(dp0
S'<subj> surprised'
p1
(dp2
S'subj_freq'
p3
I1
sS'freq'
p4
I1
sS'type'
p5
S'subj'
p6
sS'display'
p7
S'surprised'
p8
sS'prob'
p9
F1.0
ssS'<subj> is made'
p10
(dp11
S'type'
p12
S'subj'
p13
sS'freq'
p14
I1
sS'subj_freq'
p15
I1
sS'display'
p16
S'is made'
p17
sS'prob'
p18
F1.0
ssS"'ve <dobj>"
p19
(dp20
S'type'
p21
S'dobj'
p22
sS'freq'
p23
I23
sS'subj_freq'
p24
I23
sS'display'
p25
S"'ve"
p26
sS'prob'
p27
F1.0
ssS'<subj> fill'
p28
(dp29
S'type'
p30
S'subj'
p31
sS'freq'
p32
I2
sS'subj_freq'
p33
I2
sS'display'
p34
S'fill'
p35
sS'prob'
p36
F1.0
ssS'changing <dobj>'
p37
(dp38
S'type'
p39
S'dobj'
p40
sS'freq'
p41
I10
sS'subj_freq'
p42
I10
sS'display'
p43
S'changing'
p44
sS'prob'
p45
F1.0
ssS'assertion that <np>'
p46
(dp47
S'subj_freq'
p48
I7
sS'freq'
p49
I7
sS'type'
p50
S'np'
p51
sS'display'
p52
S'assertion that'
p53
sS'prob'
p54
F1.0
ssS'cause <dobj>'
p55
(dp56
S'type'
p57
S'dobj'
p58
sS'freq'
p59
I9
sS'subj_freq'
p60
I9
sS'display'
p61
S'cause'
p62
sS'prob'
p63
F1.0
ssS'thinks sister of <np>'
p64
(dp65
g57
S'np'
p66
sg59
I9
sg60
I9
sg61
S'thinks sister of'
p67
sg63
F1.0
ssS'<subj> located'
p68
(dp69
S'type'
p70
S'subj'
p71
sS'freq'
p72
I7
sS'subj_freq'
p73
I4
sS'display'
p74
S'located'
p75
sS'prob'
p76
F0.5714285714285714
ssS'await <dobj>'
p77
(dp78
S'type'
p79
S'dobj'
p80
sS'freq'
p81
I2
sS'subj_freq'
p82
I2
sS'display'
p83
S'await'
p84
sS'prob'
p85
F1.0
ssS'put focus on <np>'
p86
(dp87
S'subj_freq'
p88
I42
sS'freq'
p89
I42
sS'type'
p90
S'np'
p91
sS'display'
p92
S'put focus on'
p93
sS'prob'
p94
F1.0
ssS'claim <dobj>'
p95
(dp96
S'type'
p97
S'dobj'
p98
sS'freq'
p99
I28
sS'subj_freq'
p100
I28
sS'display'
p101
S'claim'
p102
sS'prob'
p103
F1.0
ssS"<subj> 've"
p104
(dp105
g21
S'subj'
p106
sg23
I23
sg24
I23
sg25
S"'ve"
p107
sg27
F1.0
ssS'<subj> exhibiting coins'
p108
(dp109
S'subj_freq'
p110
I0
sS'freq'
p111
I1
sS'type'
p112
S'subj'
p113
sS'display'
p114
S'exhibiting coins'
p115
sS'prob'
p116
F0.0
ssS'<subj> hate world'
p117
(dp118
S'subj_freq'
p119
I9
sS'freq'
p120
I9
sS'type'
p121
S'subj'
p122
sS'display'
p123
S'hate world'
p124
sS'prob'
p125
F1.0
ssS'<subj> added spirit'
p126
(dp127
S'type'
p128
S'subj'
p129
sS'freq'
p130
I5
sS'subj_freq'
p131
I5
sS'display'
p132
S'added spirit'
p133
sS'prob'
p134
F1.0
ssS'walks <dobj>'
p135
(dp136
S'subj_freq'
p137
I1
sS'freq'
p138
I1
sS'type'
p139
S'dobj'
p140
sS'display'
p141
S'walks'
p142
sS'prob'
p143
F1.0
ssS'confirm <dobj>'
p144
(dp145
S'type'
p146
S'dobj'
p147
sS'freq'
p148
I7
sS'subj_freq'
p149
I7
sS'display'
p150
S'confirm'
p151
sS'prob'
p152
F1.0
ssS'<subj> hold'
p153
(dp154
S'type'
p155
S'subj'
p156
sS'freq'
p157
I7
sS'subj_freq'
p158
I7
sS'display'
p159
S'hold'
p160
sS'prob'
p161
F1.0
ssS'<subj> needed arthritis'
p162
(dp163
S'subj_freq'
p164
I7
sS'freq'
p165
I7
sS'type'
p166
S'subj'
p167
sS'display'
p168
S'needed arthritis'
p169
sS'prob'
p170
F1.0
ssS'<subj> belongs'
p171
(dp172
S'subj_freq'
p173
I7
sS'freq'
p174
I7
sS'type'
p175
S'subj'
p176
sS'display'
p177
S'belongs'
p178
sS'prob'
p179
F1.0
ssS'gives <dobj>'
p180
(dp181
S'subj_freq'
p182
I10
sS'freq'
p183
I10
sS'type'
p184
S'dobj'
p185
sS'display'
p186
S'gives'
p187
sS'prob'
p188
F1.0
ssS'options for <np>'
p189
(dp190
S'type'
p191
S'np'
p192
sS'freq'
p193
I1
sS'subj_freq'
p194
I1
sS'display'
p195
S'options for'
p196
sS'prob'
p197
F1.0
ssS'<subj> knew Beijing'
p198
(dp199
S'subj_freq'
p200
I7
sS'freq'
p201
I7
sS'type'
p202
S'subj'
p203
sS'display'
p204
S'knew Beijing'
p205
sS'prob'
p206
F1.0
ssS'cut <dobj>'
p207
(dp208
S'subj_freq'
p209
I4
sS'freq'
p210
I4
sS'type'
p211
S'dobj'
p212
sS'display'
p213
S'cut'
p214
sS'prob'
p215
F1.0
ssS'deserved <dobj>'
p216
(dp217
S'subj_freq'
p218
I7
sS'freq'
p219
I7
sS'type'
p220
S'dobj'
p221
sS'display'
p222
S'deserved'
p223
sS'prob'
p224
F1.0
ssS'thinking <dobj>'
p225
(dp226
S'subj_freq'
p227
I21
sS'freq'
p228
I21
sS'type'
p229
S'dobj'
p230
sS'display'
p231
S'thinking'
p232
sS'prob'
p233
F1.0
ssS'<subj> win contest'
p234
(dp235
S'type'
p236
S'subj'
p237
sS'freq'
p238
I2
sS'subj_freq'
p239
I2
sS'display'
p240
S'win contest'
p241
sS'prob'
p242
F1.0
ssS'spread <dobj>'
p243
(dp244
S'type'
p245
S'dobj'
p246
sS'freq'
p247
I1
sS'subj_freq'
p248
I1
sS'display'
p249
S'spread'
p250
sS'prob'
p251
F1.0
ssS'<subj> fly'
p252
(dp253
S'type'
p254
S'subj'
p255
sS'freq'
p256
I11
sS'subj_freq'
p257
I11
sS'display'
p258
S'fly'
p259
sS'prob'
p260
F1.0
ssS'<subj> undo powers'
p261
(dp262
S'type'
p263
S'subj'
p264
sS'freq'
p265
I21
sS'subj_freq'
p266
I21
sS'display'
p267
S'undo powers'
p268
sS'prob'
p269
F1.0
ssS'<subj> excited topic'
p270
(dp271
S'type'
p272
S'subj'
p273
sS'freq'
p274
I21
sS'subj_freq'
p275
I21
sS'display'
p276
S'excited topic'
p277
sS'prob'
p278
F1.0
ssS"<subj> 's problem"
p279
(dp280
S'subj_freq'
p281
I22
sS'freq'
p282
I22
sS'type'
p283
S'subj'
p284
sS'display'
p285
S"'s problem"
p286
sS'prob'
p287
F1.0
ssS'escape <dobj>'
p288
(dp289
S'type'
p290
S'dobj'
p291
sS'freq'
p292
I1
sS'subj_freq'
p293
I1
sS'display'
p294
S'escape'
p295
sS'prob'
p296
F1.0
ssS'<subj> turns'
p297
(dp298
S'type'
p299
S'subj'
p300
sS'freq'
p301
I3
sS'subj_freq'
p302
I3
sS'display'
p303
S'turns'
p304
sS'prob'
p305
F1.0
ssS'<subj> discussed'
p306
(dp307
S'subj_freq'
p308
I21
sS'freq'
p309
I21
sS'type'
p310
S'subj'
p311
sS'display'
p312
S'discussed'
p313
sS'prob'
p314
F1.0
ssS'<subj> complain'
p315
(dp316
S'type'
p317
S'subj'
p318
sS'freq'
p319
I21
sS'subj_freq'
p320
I21
sS'display'
p321
S'complain'
p322
sS'prob'
p323
F1.0
ssS'<subj> cut syndrome'
p324
(dp325
g209
I4
sg210
I4
sg211
S'subj'
p326
sg213
S'cut syndrome'
p327
sg215
F1.0
ssS'<subj> was amazed'
p328
(dp329
S'subj_freq'
p330
I2
sS'freq'
p331
I2
sS'type'
p332
S'subj'
p333
sS'display'
p334
S'was amazed'
p335
sS'prob'
p336
F1.0
ssS'<subj> be inaugurated'
p337
(dp338
S'type'
p339
S'subj'
p340
sS'freq'
p341
I2
sS'subj_freq'
p342
I2
sS'display'
p343
S'be inaugurated'
p344
sS'prob'
p345
F1.0
ssS'think <dobj>'
p346
(dp347
S'subj_freq'
p348
I75
sS'freq'
p349
I75
sS'type'
p350
S'dobj'
p351
sS'display'
p352
S'think'
p353
sS'prob'
p354
F1.0
ssS'to celebrate <dobj>'
p355
(dp356
S'subj_freq'
p357
I4
sS'freq'
p358
I4
sS'type'
p359
S'dobj'
p360
sS'display'
p361
S'to celebrate'
p362
sS'prob'
p363
F1.0
ssS'<subj> killing'
p364
(dp365
S'subj_freq'
p366
I1
sS'freq'
p367
I1
sS'type'
p368
S'subj'
p369
sS'display'
p370
S'killing'
p371
sS'prob'
p372
F1.0
ssV<subj> 'm nurse
p373
(dp374
S'subj_freq'
p375
I2
sS'freq'
p376
I2
sS'type'
p377
S'subj'
p378
sS'display'
p379
V'm nurse
p380
sS'prob'
p381
F1.0
ssS'<subj> belongs community'
p382
(dp383
g173
I7
sg174
I7
sg175
g176
sg177
S'belongs community'
p384
sg179
F1.0
ssS'spreading <dobj>'
p385
(dp386
S'type'
p387
S'dobj'
p388
sS'freq'
p389
I2
sS'subj_freq'
p390
I2
sS'display'
p391
S'spreading'
p392
sS'prob'
p393
F1.0
ssS'sharing <dobj>'
p394
(dp395
S'subj_freq'
p396
I10
sS'freq'
p397
I10
sS'type'
p398
S'dobj'
p399
sS'display'
p400
S'sharing'
p401
sS'prob'
p402
F1.0
ssS'explore <dobj>'
p403
(dp404
S'type'
p405
S'dobj'
p406
sS'freq'
p407
I2
sS'subj_freq'
p408
I2
sS'display'
p409
S'explore'
p410
sS'prob'
p411
F1.0
ssS'<subj> creating universe'
p412
(dp413
S'type'
p414
S'subj'
p415
sS'freq'
p416
I4
sS'subj_freq'
p417
I4
sS'display'
p418
S'creating universe'
p419
sS'prob'
p420
F1.0
ssS'delight in <np>'
p421
(dp422
S'type'
p423
S'np'
p424
sS'freq'
p425
I1
sS'subj_freq'
p426
I1
sS'display'
p427
S'delight in'
p428
sS'prob'
p429
F1.0
ssS'<subj> provides Forest'
p430
(dp431
S'subj_freq'
p432
I1
sS'freq'
p433
I1
sS'type'
p434
S'subj'
p435
sS'display'
p436
S'provides Forest'
p437
sS'prob'
p438
F1.0
ssS'<subj> provides'
p439
(dp440
g432
I2
sg433
I2
sg434
g435
sg436
S'provides'
p441
sg438
F1.0
ssS'awaiting <dobj>'
p442
(dp443
S'type'
p444
S'dobj'
p445
sS'freq'
p446
I1
sS'subj_freq'
p447
I1
sS'display'
p448
S'awaiting'
p449
sS'prob'
p450
F1.0
ssS'according <dobj>'
p451
(dp452
S'type'
p453
S'dobj'
p454
sS'freq'
p455
I7
sS'subj_freq'
p456
I7
sS'display'
p457
S'according'
p458
sS'prob'
p459
F1.0
ssS'hate <dobj>'
p460
(dp461
g119
I9
sg120
I9
sg121
S'dobj'
p462
sg123
S'hate'
p463
sg125
F1.0
ssS"<subj> 's place"
p464
(dp465
S'subj_freq'
p466
I1
sS'freq'
p467
I1
sS'type'
p468
S'subj'
p469
sS'display'
p470
S"'s place"
p471
sS'prob'
p472
F1.0
ssS'to fight <dobj>'
p473
(dp474
S'subj_freq'
p475
I7
sS'freq'
p476
I7
sS'type'
p477
S'dobj'
p478
sS'display'
p479
S'to fight'
p480
sS'prob'
p481
F1.0
ssS'<subj> changing education'
p482
(dp483
g39
S'subj'
p484
sg41
I9
sg42
I9
sg43
S'changing education'
p485
sg45
F1.0
ssS'hotel in <np>'
p486
(dp487
S'subj_freq'
p488
I4
sS'freq'
p489
I4
sS'type'
p490
S'np'
p491
sS'display'
p492
S'hotel in'
p493
sS'prob'
p494
F1.0
ssS'<subj> fight term'
p495
(dp496
g475
I7
sg476
I7
sg477
S'subj'
p497
sg479
S'fight term'
p498
sg481
F1.0
ssS'to accepted <dobj>'
p499
(dp500
S'type'
p501
S'dobj'
p502
sS'freq'
p503
I7
sS'subj_freq'
p504
I7
sS'display'
p505
S'to accepted'
p506
sS'prob'
p507
F1.0
ssS'<subj> needed'
p508
(dp509
S'subj_freq'
p510
I28
sS'freq'
p511
I28
sS'type'
p512
S'subj'
p513
sS'display'
p514
S'needed'
p515
sS'prob'
p516
F1.0
ssS'stay <dobj>'
p517
(dp518
S'subj_freq'
p519
I4
sS'freq'
p520
I4
sS'type'
p521
S'dobj'
p522
sS'display'
p523
S'stay'
p524
sS'prob'
p525
F1.0
ssS'to discover <dobj>'
p526
(dp527
S'type'
p528
S'dobj'
p529
sS'freq'
p530
I2
sS'subj_freq'
p531
I2
sS'display'
p532
S'to discover'
p533
sS'prob'
p534
F1.0
ssS'<subj> keep'
p535
(dp536
S'subj_freq'
p537
I10
sS'freq'
p538
I10
sS'type'
p539
S'subj'
p540
sS'display'
p541
S'keep'
p542
sS'prob'
p543
F1.0
ssS'<subj> needed to teach'
p544
(dp545
g510
I21
sg511
I21
sg512
g513
sg514
S'needed to teach'
p546
sg516
F1.0
ssS'<subj> created museum'
p547
(dp548
S'subj_freq'
p549
I0
sS'freq'
p550
I4
sS'type'
p551
S'subj'
p552
sS'display'
p553
S'created museum'
p554
sS'prob'
p555
F0.0
ssS'<subj> demonstrate'
p556
(dp557
S'type'
p558
S'subj'
p559
sS'freq'
p560
I2
sS'subj_freq'
p561
I2
sS'display'
p562
S'demonstrate'
p563
sS'prob'
p564
F1.0
ssS'<subj> celebrate New'
p565
(dp566
S'subj_freq'
p567
I1
sS'freq'
p568
I1
sS'type'
p569
S'subj'
p570
sS'display'
p571
S'celebrate New'
p572
sS'prob'
p573
F1.0
ssS'<subj> makes country'
p574
(dp575
S'subj_freq'
p576
I1
sS'freq'
p577
I1
sS'type'
p578
S'subj'
p579
sS'display'
p580
S'makes country'
p581
sS'prob'
p582
F1.0
ssS'knew <dobj>'
p583
(dp584
g200
I7
sg201
I7
sg202
S'dobj'
p585
sg204
S'knew'
p586
sg206
F1.0
ssS'<subj> get input'
p587
(dp588
S'type'
p589
S'subj'
p590
sS'freq'
p591
I9
sS'subj_freq'
p592
I9
sS'display'
p593
S'get input'
p594
sS'prob'
p595
F1.0
ssS'<subj> attributed'
p596
(dp597
S'subj_freq'
p598
I10
sS'freq'
p599
I10
sS'type'
p600
S'subj'
p601
sS'display'
p602
S'attributed'
p603
sS'prob'
p604
F1.0
ssS'<subj> solving'
p605
(dp606
S'type'
p607
S'subj'
p608
sS'freq'
p609
I21
sS'subj_freq'
p610
I21
sS'display'
p611
S'solving'
p612
sS'prob'
p613
F1.0
ssS'<subj> capture sky'
p614
(dp615
S'subj_freq'
p616
I2
sS'freq'
p617
I2
sS'type'
p618
S'subj'
p619
sS'display'
p620
S'capture sky'
p621
sS'prob'
p622
F1.0
ssS'<subj> does'
p623
(dp624
S'type'
p625
S'subj'
p626
sS'freq'
p627
I47
sS'subj_freq'
p628
I47
sS'display'
p629
S'does'
p630
sS'prob'
p631
F1.0
ssS"'s <dobj>"
p632
(dp633
S'type'
p634
S'dobj'
p635
sS'freq'
p636
I251
sS'subj_freq'
p637
I251
sS'display'
p638
S"'s"
p639
sS'prob'
p640
F1.0
ssS'sky for <np>'
p641
(dp642
S'subj_freq'
p643
I1
sS'freq'
p644
I1
sS'type'
p645
S'np'
p646
sS'display'
p647
S'sky for'
p648
sS'prob'
p649
F1.0
ssS'<subj> according'
p650
(dp651
g453
S'subj'
p652
sg455
I7
sg456
I7
sg457
S'according'
p653
sg459
F1.0
ssS'<subj> be unveiled'
p654
(dp655
S'type'
p656
S'subj'
p657
sS'freq'
p658
I9
sS'subj_freq'
p659
I9
sS'display'
p660
S'be unveiled'
p661
sS'prob'
p662
F1.0
ssS'end <dobj>'
p663
(dp664
S'subj_freq'
p665
I3
sS'freq'
p666
I3
sS'type'
p667
S'dobj'
p668
sS'display'
p669
S'end'
p670
sS'prob'
p671
F1.0
ssS'sounds <dobj>'
p672
(dp673
g281
I22
sg282
I22
sg283
S'dobj'
p674
sg285
S'sounds'
p675
sg287
F1.0
ssS'<subj> learn'
p676
(dp677
S'subj_freq'
p678
I9
sS'freq'
p679
I9
sS'type'
p680
S'subj'
p681
sS'display'
p682
S'learn'
p683
sS'prob'
p684
F1.0
ssS'<subj> know'
p685
(dp686
S'subj_freq'
p687
I39
sS'freq'
p688
I39
sS'type'
p689
S'subj'
p690
sS'display'
p691
S'know'
p692
sS'prob'
p693
F1.0
ssS'<subj> is dedicated'
p694
(dp695
S'subj_freq'
p696
I3
sS'freq'
p697
I3
sS'type'
p698
S'subj'
p699
sS'display'
p700
S'is dedicated'
p701
sS'prob'
p702
F1.0
ssS'<subj> going'
p703
(dp704
S'subj_freq'
p705
I12
sS'freq'
p706
I12
sS'type'
p707
S'subj'
p708
sS'display'
p709
S'going'
p710
sS'prob'
p711
F1.0
ssS'<subj> like'
p712
(dp713
S'type'
p714
S'subj'
p715
sS'freq'
p716
I10
sS'subj_freq'
p717
I10
sS'display'
p718
S'like'
p719
sS'prob'
p720
F1.0
ssS'considered <dobj>'
p721
(dp722
S'subj_freq'
p723
I2
sS'freq'
p724
I2
sS'type'
p725
S'dobj'
p726
sS'display'
p727
S'considered'
p728
sS'prob'
p729
F1.0
ssS'win <dobj>'
p730
(dp731
g236
S'dobj'
p732
sg238
I4
sg239
I4
sg240
S'win'
p733
sg242
F1.0
ssS'displaying <dobj>'
p734
(dp735
S'subj_freq'
p736
I2
sS'freq'
p737
I2
sS'type'
p738
S'dobj'
p739
sS'display'
p740
S'displaying'
p741
sS'prob'
p742
F1.0
ssS'<subj> provides opportunity'
p743
(dp744
g432
I1
sg433
I1
sg434
g435
sg436
S'provides opportunity'
p745
sg438
F1.0
ssS'<subj> fell'
p746
(dp747
S'subj_freq'
p748
I1
sS'freq'
p749
I1
sS'type'
p750
S'subj'
p751
sS'display'
p752
S'fell'
p753
sS'prob'
p754
F1.0
ssS'<subj> going network'
p755
(dp756
S'subj_freq'
p757
I1
sS'freq'
p758
I1
sS'type'
p759
S'subj'
p760
sS'display'
p761
S'going network'
p762
sS'prob'
p763
F1.0
ssS'<subj> gives'
p764
(dp765
g182
I10
sg183
I10
sg184
S'subj'
p766
sg186
S'gives'
p767
sg188
F1.0
ssS'presented <dobj>'
p768
(dp769
S'subj_freq'
p770
I9
sS'freq'
p771
I9
sS'type'
p772
S'dobj'
p773
sS'display'
p774
S'presented'
p775
sS'prob'
p776
F1.0
ssS'<subj> quit'
p777
(dp778
S'type'
p779
S'subj'
p780
sS'freq'
p781
I4
sS'subj_freq'
p782
I4
sS'display'
p783
S'quit'
p784
sS'prob'
p785
F1.0
ssS'<subj> given'
p786
(dp787
S'subj_freq'
p788
I10
sS'freq'
p789
I10
sS'type'
p790
S'subj'
p791
sS'display'
p792
S'given'
p793
sS'prob'
p794
F1.0
ssS'<subj> solving energy'
p795
(dp796
g607
g608
sg609
I21
sg610
I21
sg611
S'solving energy'
p797
sg613
F1.0
ssS'<subj> understand'
p798
(dp799
S'subj_freq'
p800
I7
sS'freq'
p801
I7
sS'type'
p802
S'subj'
p803
sS'display'
p804
S'understand'
p805
sS'prob'
p806
F1.0
ssS'<subj> has been places'
p807
(dp808
S'subj_freq'
p809
I4
sS'freq'
p810
I4
sS'type'
p811
S'subj'
p812
sS'display'
p813
S'has been places'
p814
sS'prob'
p815
F1.0
ssS'<subj> defends'
p816
(dp817
S'type'
p818
S'subj'
p819
sS'freq'
p820
I9
sS'subj_freq'
p821
I9
sS'display'
p822
S'defends'
p823
sS'prob'
p824
F1.0
ssS'knowing <dobj>'
p825
(dp826
S'type'
p827
S'dobj'
p828
sS'freq'
p829
I1
sS'subj_freq'
p830
I1
sS'display'
p831
S'knowing'
p832
sS'prob'
p833
F1.0
ssS'<subj> built'
p834
(dp835
S'type'
p836
S'subj'
p837
sS'freq'
p838
I4
sS'subj_freq'
p839
I1
sS'display'
p840
S'built'
p841
sS'prob'
p842
F0.25
ssS'<subj> using'
p843
(dp844
S'type'
p845
S'subj'
p846
sS'freq'
p847
I2
sS'subj_freq'
p848
I0
sS'display'
p849
S'using'
p850
sS'prob'
p851
F0.0
ssS'<subj> shining sand'
p852
(dp853
g137
I1
sg138
I1
sg139
S'subj'
p854
sg141
S'shining sand'
p855
sg143
F1.0
ssS'<subj> poses'
p856
(dp857
S'type'
p858
S'subj'
p859
sS'freq'
p860
I9
sS'subj_freq'
p861
I9
sS'display'
p862
S'poses'
p863
sS'prob'
p864
F1.0
ssS'poses <dobj>'
p865
(dp866
g858
S'dobj'
p867
sg860
I9
sg861
I9
sg862
S'poses'
p868
sg864
F1.0
ssS'allowing <dobj>'
p869
(dp870
S'subj_freq'
p871
I1
sS'freq'
p872
I1
sS'type'
p873
S'dobj'
p874
sS'display'
p875
S'allowing'
p876
sS'prob'
p877
F1.0
ssS'<subj> has year'
p878
(dp879
S'type'
p880
S'subj'
p881
sS'freq'
p882
I4
sS'subj_freq'
p883
I0
sS'display'
p884
S'has year'
p885
sS'prob'
p886
F0.0
ssS'<subj> learn development'
p887
(dp888
g678
I7
sg679
I7
sg680
g681
sg682
S'learn development'
p889
sg684
F1.0
ssS'<subj> has years'
p890
(dp891
S'type'
p892
S'subj'
p893
sS'freq'
p894
I19
sS'subj_freq'
p895
I19
sS'display'
p896
S'has years'
p897
sS'prob'
p898
F1.0
ssS'prevent <dobj>'
p899
(dp900
S'subj_freq'
p901
I21
sS'freq'
p902
I21
sS'type'
p903
S'dobj'
p904
sS'display'
p905
S'prevent'
p906
sS'prob'
p907
F1.0
ssS'<subj> converted children'
p908
(dp909
S'type'
p910
S'subj'
p911
sS'freq'
p912
I5
sS'subj_freq'
p913
I0
sS'display'
p914
S'converted children'
p915
sS'prob'
p916
F0.0
ssS'<subj> fall'
p917
(dp918
S'subj_freq'
p919
I1
sS'freq'
p920
I1
sS'type'
p921
S'subj'
p922
sS'display'
p923
S'fall'
p924
sS'prob'
p925
F1.0
ssS'<subj> copied'
p926
(dp927
S'type'
p928
S'subj'
p929
sS'freq'
p930
I21
sS'subj_freq'
p931
I21
sS'display'
p932
S'copied'
p933
sS'prob'
p934
F1.0
ssS'belongs to do <dobj>'
p935
(dp936
g173
I7
sg174
I7
sg175
S'dobj'
p937
sg177
S'belongs to do'
p938
sg179
F1.0
ssS'<subj> raise showcase'
p939
(dp940
S'subj_freq'
p941
I4
sS'freq'
p942
I4
sS'type'
p943
S'subj'
p944
sS'display'
p945
S'raise showcase'
p946
sS'prob'
p947
F1.0
ssS'to think <dobj>'
p948
(dp949
S'subj_freq'
p950
I9
sS'freq'
p951
I9
sS'type'
p952
S'dobj'
p953
sS'display'
p954
S'to think'
p955
sS'prob'
p956
F1.0
ssS'<subj> waste reason'
p957
(dp958
S'subj_freq'
p959
I6
sS'freq'
p960
I6
sS'type'
p961
S'subj'
p962
sS'display'
p963
S'waste reason'
p964
sS'prob'
p965
F1.0
ssS'complain <dobj>'
p966
(dp967
g317
S'dobj'
p968
sg319
I21
sg320
I21
sg321
S'complain'
p969
sg323
F1.0
ssS'booked <dobj>'
p970
(dp971
S'subj_freq'
p972
I0
sS'freq'
p973
I1
sS'type'
p974
S'dobj'
p975
sS'display'
p976
S'booked'
p977
sS'prob'
p978
F0.0
ssS'cool <dobj>'
p979
(dp980
S'subj_freq'
p981
I1
sS'freq'
p982
I1
sS'type'
p983
S'dobj'
p984
sS'display'
p985
S'cool'
p986
sS'prob'
p987
F1.0
ssS'take <dobj>'
p988
(dp989
S'subj_freq'
p990
I13
sS'freq'
p991
I13
sS'type'
p992
S'dobj'
p993
sS'display'
p994
S'take'
p995
sS'prob'
p996
F1.0
ssS'<subj> many'
p997
(dp998
S'type'
p999
S'subj'
p1000
sS'freq'
p1001
I1
sS'subj_freq'
p1002
I1
sS'display'
p1003
S'many'
p1004
sS'prob'
p1005
F1.0
ssS'<subj> be undone'
p1006
(dp1007
g263
g264
sg265
I21
sg266
I21
sg267
S'be undone'
p1008
sg269
F1.0
ssS'<subj> done environment'
p1009
(dp1010
S'type'
p1011
S'subj'
p1012
sS'freq'
p1013
I3
sS'subj_freq'
p1014
I3
sS'display'
p1015
S'done environment'
p1016
sS'prob'
p1017
F1.0
ssS'gets <dobj>'
p1018
(dp1019
S'subj_freq'
p1020
I1
sS'freq'
p1021
I1
sS'type'
p1022
S'dobj'
p1023
sS'display'
p1024
S'gets'
p1025
sS'prob'
p1026
F1.0
ssS'<subj> have date'
p1027
(dp1028
S'type'
p1029
S'subj'
p1030
sS'freq'
p1031
I1
sS'subj_freq'
p1032
I1
sS'display'
p1033
S'have date'
p1034
sS'prob'
p1035
F1.0
ssS'walking <dobj>'
p1036
(dp1037
S'subj_freq'
p1038
I4
sS'freq'
p1039
I4
sS'type'
p1040
S'dobj'
p1041
sS'display'
p1042
S'walking'
p1043
sS'prob'
p1044
F1.0
ssS'<subj> fell image'
p1045
(dp1046
g748
I1
sg749
I1
sg750
g751
sg752
S'fell image'
p1047
sg754
F1.0
ssV<subj> posted
p1048
(dp1049
g375
I2
sg376
I2
sg377
g378
sg379
Vposted
p1050
sg381
F1.0
ssS'holidays in <np>'
p1051
(dp1052
S'type'
p1053
S'np'
p1054
sS'freq'
p1055
I2
sS'subj_freq'
p1056
I2
sS'display'
p1057
S'holidays in'
p1058
sS'prob'
p1059
F1.0
ssS'going to held <dobj>'
p1060
(dp1061
g757
I1
sg758
I1
sg759
S'dobj'
p1062
sg761
S'going to held'
p1063
sg763
F1.0
ssS'found <dobj>'
p1064
(dp1065
g501
g502
sg503
I7
sg504
I7
sg505
S'found'
p1066
sg507
F1.0
ssS'<subj> take'
p1067
(dp1068
g990
I13
sg991
I13
sg992
S'subj'
p1069
sg994
S'take'
p1070
sg996
F1.0
ssS'<subj> need'
p1071
(dp1072
g687
I95
sg688
I95
sg689
g690
sg691
S'need'
p1073
sg693
F1.0
ssS'many <dobj>'
p1074
(dp1075
g999
S'dobj'
p1076
sg1001
I1
sg1002
I1
sg1003
S'many'
p1077
sg1005
F1.0
ssS'<subj> going to held'
p1078
(dp1079
g757
I1
sg758
I1
sg759
g760
sg761
S'going to held'
p1080
sg763
F1.0
ssS'<subj> waste'
p1081
(dp1082
g959
I6
sg960
I6
sg961
g962
sg963
S'waste'
p1083
sg965
F1.0
ssS'lives from <np>'
p1084
(dp1085
S'subj_freq'
p1086
I1
sS'freq'
p1087
I1
sS'type'
p1088
S'np'
p1089
sS'display'
p1090
S'lives from'
p1091
sS'prob'
p1092
F1.0
ssS'<subj> decides journalist'
p1093
(dp1094
S'subj_freq'
p1095
I9
sS'freq'
p1096
I9
sS'type'
p1097
S'subj'
p1098
sS'display'
p1099
S'decides journalist'
p1100
sS'prob'
p1101
F1.0
ssS'<subj> do things'
p1102
(dp1103
S'subj_freq'
p1104
I21
sS'freq'
p1105
I21
sS'type'
p1106
S'subj'
p1107
sS'display'
p1108
S'do things'
p1109
sS'prob'
p1110
F1.0
ssS'<subj> made offerings'
p1111
(dp1112
S'subj_freq'
p1113
I1
sS'freq'
p1114
I1
sS'type'
p1115
S'subj'
p1116
sS'display'
p1117
S'made offerings'
p1118
sS'prob'
p1119
F1.0
ssS'is located in <np>'
p1120
(dp1121
g70
S'np'
p1122
sg72
I3
sg73
I0
sg74
S'is located in'
p1123
sg76
F0.0
ssS'<subj> seeing'
p1124
(dp1125
S'type'
p1126
S'subj'
p1127
sS'freq'
p1128
I7
sS'subj_freq'
p1129
I7
sS'display'
p1130
S'seeing'
p1131
sS'prob'
p1132
F1.0
ssS'<subj> been attributed'
p1133
(dp1134
g1011
g1012
sg1013
I3
sg1014
I3
sg1015
S'been attributed'
p1135
sg1017
F1.0
ssS'<subj> led'
p1136
(dp1137
g818
g819
sg820
I9
sg821
I9
sg822
S'led'
p1138
sg824
F1.0
ssS'<subj> do'
p1139
(dp1140
S'subj_freq'
p1141
I254
sS'freq'
p1142
I254
sS'type'
p1143
S'subj'
p1144
sS'display'
p1145
S'do'
p1146
sS'prob'
p1147
F1.0
ssS'<subj> poses absence'
p1148
(dp1149
g858
g859
sg860
I9
sg861
I9
sg862
S'poses absence'
p1150
sg864
F1.0
ssS'<subj> attend'
p1151
(dp1152
S'subj_freq'
p1153
I2
sS'freq'
p1154
I2
sS'type'
p1155
S'subj'
p1156
sS'display'
p1157
S'attend'
p1158
sS'prob'
p1159
F1.0
ssS'<subj> used Daniel'
p1160
(dp1161
g501
S'subj'
p1162
sg503
I7
sg504
I7
sg505
S'used Daniel'
p1163
sg507
F1.0
ssS'lost <dobj>'
p1164
(dp1165
S'type'
p1166
S'dobj'
p1167
sS'freq'
p1168
I55
sS'subj_freq'
p1169
I55
sS'display'
p1170
S'lost'
p1171
sS'prob'
p1172
F1.0
ssS'celebrating <dobj>'
p1173
(dp1174
S'subj_freq'
p1175
I2
sS'freq'
p1176
I2
sS'type'
p1177
S'dobj'
p1178
sS'display'
p1179
S'celebrating'
p1180
sS'prob'
p1181
F1.0
ssS'<subj> become'
p1182
(dp1183
g88
I65
sg89
I65
sg90
S'subj'
p1184
sg92
S'become'
p1185
sg94
F1.0
ssS'to escape <dobj>'
p1186
(dp1187
g290
g291
sg292
I1
sg293
I1
sg294
S'to escape'
p1188
sg296
F1.0
ssS'<subj> meets land'
p1189
(dp1190
S'subj_freq'
p1191
I1
sS'freq'
p1192
I1
sS'type'
p1193
S'subj'
p1194
sS'display'
p1195
S'meets land'
p1196
sS'prob'
p1197
F1.0
ssS'<subj> send nature'
p1198
(dp1199
S'type'
p1200
S'subj'
p1201
sS'freq'
p1202
I1
sS'subj_freq'
p1203
I1
sS'display'
p1204
S'send nature'
p1205
sS'prob'
p1206
F1.0
ssS'<subj> threw'
p1207
(dp1208
S'subj_freq'
p1209
I7
sS'freq'
p1210
I7
sS'type'
p1211
S'subj'
p1212
sS'display'
p1213
S'threw'
p1214
sS'prob'
p1215
F1.0
ssS'<subj> took'
p1216
(dp1217
S'subj_freq'
p1218
I0
sS'freq'
p1219
I1
sS'type'
p1220
S'subj'
p1221
sS'display'
p1222
S'took'
p1223
sS'prob'
p1224
F0.0
ssS'<subj> helps paralysis'
p1225
(dp1226
g589
g590
sg591
I9
sg592
I9
sg593
S'helps paralysis'
p1227
sg595
F1.0
ssS'to misled <dobj>'
p1228
(dp1229
S'subj_freq'
p1230
I21
sS'freq'
p1231
I21
sS'type'
p1232
S'dobj'
p1233
sS'display'
p1234
S'to misled'
p1235
sS'prob'
p1236
F1.0
ssS'dwellers of <np>'
p1237
(dp1238
S'subj_freq'
p1239
I1
sS'freq'
p1240
I1
sS'type'
p1241
S'np'
p1242
sS'display'
p1243
S'dwellers of'
p1244
sS'prob'
p1245
F1.0
ssS'<subj> gearing'
p1246
(dp1247
S'subj_freq'
p1248
I0
sS'freq'
p1249
I1
sS'type'
p1250
S'subj'
p1251
sS'display'
p1252
S'gearing'
p1253
sS'prob'
p1254
F0.0
ssS'belongs <dobj>'
p1255
(dp1256
g173
I7
sg174
I7
sg175
g937
sg177
S'belongs'
p1257
sg179
F1.0
ssS'<subj> watch'
p1258
(dp1259
S'subj_freq'
p1260
I2
sS'freq'
p1261
I2
sS'type'
p1262
S'subj'
p1263
sS'display'
p1264
S'watch'
p1265
sS'prob'
p1266
F1.0
ssS'<subj> be interpreted'
p1267
(dp1268
S'subj_freq'
p1269
I7
sS'freq'
p1270
I7
sS'type'
p1271
S'subj'
p1272
sS'display'
p1273
S'be interpreted'
p1274
sS'prob'
p1275
F1.0
ssS'excited <dobj>'
p1276
(dp1277
g272
S'dobj'
p1278
sg274
I21
sg275
I21
sg276
S'excited'
p1279
sg278
F1.0
ssS'<subj> converted'
p1280
(dp1281
g910
g911
sg912
I9
sg913
I4
sg914
S'converted'
p1282
sg916
F0.4444444444444444
ssS'analyze <dobj>'
p1283
(dp1284
S'subj_freq'
p1285
I19
sS'freq'
p1286
I19
sS'type'
p1287
S'dobj'
p1288
sS'display'
p1289
S'analyze'
p1290
sS'prob'
p1291
F1.0
ssS'<subj> need to make'
p1292
(dp1293
g1285
I19
sg1286
I19
sg1287
S'subj'
p1294
sg1289
S'need to make'
p1295
sg1291
F1.0
ssS'<subj> wait'
p1296
(dp1297
S'subj_freq'
p1298
I4
sS'freq'
p1299
I7
sS'type'
p1300
S'subj'
p1301
sS'display'
p1302
S'wait'
p1303
sS'prob'
p1304
F0.5714285714285714
ssS'takes <dobj>'
p1305
(dp1306
S'type'
p1307
S'dobj'
p1308
sS'freq'
p1309
I2
sS'subj_freq'
p1310
I0
sS'display'
p1311
S'takes'
p1312
sS'prob'
p1313
F0.0
ssS'<subj> called'
p1314
(dp1315
S'type'
p1316
S'subj'
p1317
sS'freq'
p1318
I3
sS'subj_freq'
p1319
I3
sS'display'
p1320
S'called'
p1321
sS'prob'
p1322
F1.0
ssS'<subj> buy'
p1323
(dp1324
g48
I7
sg49
I7
sg50
S'subj'
p1325
sg52
S'buy'
p1326
sg54
F1.0
ssS'<subj> watching'
p1327
(dp1328
g97
S'subj'
p1329
sg99
I29
sg100
I29
sg101
S'watching'
p1330
sg103
F1.0
ssV<subj> forces
p1331
(dp1332
g375
I2
sg376
I2
sg377
g378
sg379
Vforces
p1333
sg381
F1.0
ssS'known <dobj>'
p1334
(dp1335
S'type'
p1336
S'dobj'
p1337
sS'freq'
p1338
I7
sS'subj_freq'
p1339
I6
sS'display'
p1340
S'known'
p1341
sS'prob'
p1342
F0.8571428571428571
ssS'solving <dobj>'
p1343
(dp1344
g607
S'dobj'
p1345
sg609
I21
sg610
I21
sg611
S'solving'
p1346
sg613
F1.0
ssS'work by <np>'
p1347
(dp1348
S'subj_freq'
p1349
I0
sS'freq'
p1350
I1
sS'type'
p1351
S'np'
p1352
sS'display'
p1353
S'work by'
p1354
sS'prob'
p1355
F0.0
ssS'<subj> saves'
p1356
(dp1357
S'type'
p1358
S'subj'
p1359
sS'freq'
p1360
I7
sS'subj_freq'
p1361
I7
sS'display'
p1362
S'saves'
p1363
sS'prob'
p1364
F1.0
ssS'amazed <dobj>'
p1365
(dp1366
g330
I2
sg331
I2
sg332
S'dobj'
p1367
sg334
S'amazed'
p1368
sg336
F1.0
ssS'spend <dobj>'
p1369
(dp1370
g1053
S'dobj'
p1371
sg1055
I5
sg1056
I4
sg1057
S'spend'
p1372
sg1059
F0.8
ssS'to bathing <dobj>'
p1373
(dp1374
S'type'
p1375
S'dobj'
p1376
sS'freq'
p1377
I1
sS'subj_freq'
p1378
I0
sS'display'
p1379
S'to bathing'
p1380
sS'prob'
p1381
F0.0
ssS'<subj> have claim'
p1382
(dp1383
g1230
I21
sg1231
I21
sg1232
S'subj'
p1384
sg1234
S'have claim'
p1385
sg1236
F1.0
ssS'<subj> exhibits'
p1386
(dp1387
S'type'
p1388
S'subj'
p1389
sS'freq'
p1390
I1
sS'subj_freq'
p1391
I1
sS'display'
p1392
S'exhibits'
p1393
sS'prob'
p1394
F1.0
ssS'smitten <dobj>'
p1395
(dp1396
S'subj_freq'
p1397
I1
sS'freq'
p1398
I1
sS'type'
p1399
S'dobj'
p1400
sS'display'
p1401
S'smitten'
p1402
sS'prob'
p1403
F1.0
ssS'according to required <dobj>'
p1404
(dp1405
g453
g454
sg455
I7
sg456
I7
sg457
S'according to required'
p1406
sg459
F1.0
ssS'<subj> bring joy'
p1407
(dp1408
S'type'
p1409
S'subj'
p1410
sS'freq'
p1411
I1
sS'subj_freq'
p1412
I1
sS'display'
p1413
S'bring joy'
p1414
sS'prob'
p1415
F1.0
ssS'<subj> made Gujarat'
p1416
(dp1417
g1113
I1
sg1114
I1
sg1115
g1116
sg1117
S'made Gujarat'
p1418
sg1119
F1.0
ssS'get <dobj>'
p1419
(dp1420
g589
S'dobj'
p1421
sg591
I31
sg592
I27
sg593
S'get'
p1422
sg595
F0.8709677419354839
ssS'live <dobj>'
p1423
(dp1424
g173
I16
sg174
I16
sg175
g937
sg177
S'live'
p1425
sg179
F1.0
ssS'says <dobj>'
p1426
(dp1427
g57
g58
sg59
I9
sg60
I9
sg61
S'says'
p1428
sg63
F1.0
ssS'stand <dobj>'
p1429
(dp1430
g348
I22
sg349
I22
sg350
g351
sg352
S'stand'
p1431
sg354
F1.0
ssS'open <dobj>'
p1432
(dp1433
S'subj_freq'
p1434
I4
sS'freq'
p1435
I4
sS'type'
p1436
S'dobj'
p1437
sS'display'
p1438
S'open'
p1439
sS'prob'
p1440
F1.0
ssS'capture <dobj>'
p1441
(dp1442
S'type'
p1443
S'dobj'
p1444
sS'freq'
p1445
I4
sS'subj_freq'
p1446
I4
sS'display'
p1447
S'capture'
p1448
sS'prob'
p1449
F1.0
ssS'<subj> hate'
p1450
(dp1451
g119
I9
sg120
I9
sg121
g122
sg123
S'hate'
p1452
sg125
F1.0
ssS'fail to realize <dobj>'
p1453
(dp1454
S'type'
p1455
S'dobj'
p1456
sS'freq'
p1457
I27
sS'subj_freq'
p1458
I27
sS'display'
p1459
S'fail to realize'
p1460
sS'prob'
p1461
F1.0
ssS"<subj> 's Carnival"
p1462
(dp1463
S'type'
p1464
S'subj'
p1465
sS'freq'
p1466
I1
sS'subj_freq'
p1467
I1
sS'display'
p1468
S"'s Carnival"
p1469
sS'prob'
p1470
F1.0
ssS'<subj> have tickets'
p1471
(dp1472
g972
I0
sg973
I1
sg974
S'subj'
p1473
sg976
S'have tickets'
p1474
sg978
F0.0
ssS'making war on <np>'
p1475
(dp1476
S'subj_freq'
p1477
I21
sS'freq'
p1478
I21
sS'type'
p1479
S'np'
p1480
sS'display'
p1481
S'making war on'
p1482
sS'prob'
p1483
F1.0
ssS'friend of <np>'
p1484
(dp1485
g696
I2
sg697
I2
sg698
S'np'
p1486
sg700
S'friend of'
p1487
sg702
F1.0
ssS'getting <dobj>'
p1488
(dp1489
S'subj_freq'
p1490
I8
sS'freq'
p1491
I8
sS'type'
p1492
S'dobj'
p1493
sS'display'
p1494
S'getting'
p1495
sS'prob'
p1496
F1.0
ssS'to taking <dobj>'
p1497
(dp1498
S'type'
p1499
S'dobj'
p1500
sS'freq'
p1501
I2
sS'subj_freq'
p1502
I2
sS'display'
p1503
S'to taking'
p1504
sS'prob'
p1505
F1.0
ssS'to invite <dobj>'
p1506
(dp1507
S'subj_freq'
p1508
I1
sS'freq'
p1509
I1
sS'type'
p1510
S'dobj'
p1511
sS'display'
p1512
S'to invite'
p1513
sS'prob'
p1514
F1.0
ssS'<subj> helps understanding'
p1515
(dp1516
S'subj_freq'
p1517
I2
sS'freq'
p1518
I2
sS'type'
p1519
S'subj'
p1520
sS'display'
p1521
S'helps understanding'
p1522
sS'prob'
p1523
F1.0
ssS'<subj> lies middle'
p1524
(dp1525
g1126
g1127
sg1128
I7
sg1129
I7
sg1130
S'lies middle'
p1526
sg1132
F1.0
ssS"<subj> 're triumph"
p1527
(dp1528
S'type'
p1529
S'subj'
p1530
sS'freq'
p1531
I7
sS'subj_freq'
p1532
I7
sS'display'
p1533
S"'re triumph"
p1534
sS'prob'
p1535
F1.0
ssS'done <dobj>'
p1536
(dp1537
g1529
S'dobj'
p1538
sg1531
I11
sg1532
I11
sg1533
S'done'
p1539
sg1535
F1.0
ssS'was inaugurated by <np>'
p1540
(dp1541
S'subj_freq'
p1542
I0
sS'freq'
p1543
I2
sS'type'
p1544
S'np'
p1545
sS'display'
p1546
S'was inaugurated by'
p1547
sS'prob'
p1548
F0.0
ssS'<subj> claim increase'
p1549
(dp1550
S'subj_freq'
p1551
I7
sS'freq'
p1552
I7
sS'type'
p1553
S'subj'
p1554
sS'display'
p1555
S'claim increase'
p1556
sS'prob'
p1557
F1.0
ssS'<subj> changed'
p1558
(dp1559
S'type'
p1560
S'subj'
p1561
sS'freq'
p1562
I7
sS'subj_freq'
p1563
I7
sS'display'
p1564
S'changed'
p1565
sS'prob'
p1566
F1.0
ssS'enter <dobj>'
p1567
(dp1568
g488
I4
sg489
I4
sg490
S'dobj'
p1569
sg492
S'enter'
p1570
sg494
F1.0
ssS'<subj> was happened'
p1571
(dp1572
g57
S'subj'
p1573
sg59
I9
sg60
I9
sg61
S'was happened'
p1574
sg63
F1.0
ssS'does <dobj>'
p1575
(dp1576
g625
S'dobj'
p1577
sg627
I47
sg628
I47
sg629
S'does'
p1578
sg631
F1.0
ssS'<subj> making war'
p1579
(dp1580
g1477
I21
sg1478
I21
sg1479
S'subj'
p1581
sg1481
S'making war'
p1582
sg1483
F1.0
ssS'passion for <np>'
p1583
(dp1584
S'type'
p1585
S'np'
p1586
sS'freq'
p1587
I2
sS'subj_freq'
p1588
I2
sS'display'
p1589
S'passion for'
p1590
sS'prob'
p1591
F1.0
ssS'being <dobj>'
p1592
(dp1593
S'subj_freq'
p1594
I21
sS'freq'
p1595
I21
sS'type'
p1596
S'dobj'
p1597
sS'display'
p1598
S'being'
p1599
sS'prob'
p1600
F1.0
ssS'help <dobj>'
p1601
(dp1602
g779
S'dobj'
p1603
sg781
I7
sg782
I7
sg783
S'help'
p1604
sg785
F1.0
ssS'rise in <np>'
p1605
(dp1606
g1126
S'np'
p1607
sg1128
I7
sg1129
I7
sg1130
S'rise in'
p1608
sg1132
F1.0
ssS"<subj> 's initiative"
p1609
(dp1610
S'subj_freq'
p1611
I1
sS'freq'
p1612
I1
sS'type'
p1613
S'subj'
p1614
sS'display'
p1615
S"'s initiative"
p1616
sS'prob'
p1617
F1.0
ssS'<subj> fight terrorism'
p1618
(dp1619
g475
I7
sg476
I7
sg477
g497
sg479
S'fight terrorism'
p1620
sg481
F1.0
ssS'involves <dobj>'
p1621
(dp1622
S'type'
p1623
S'dobj'
p1624
sS'freq'
p1625
I3
sS'subj_freq'
p1626
I3
sS'display'
p1627
S'involves'
p1628
sS'prob'
p1629
F1.0
ssS'<subj> made conscience'
p1630
(dp1631
S'type'
p1632
S'subj'
p1633
sS'freq'
p1634
I21
sS'subj_freq'
p1635
I21
sS'display'
p1636
S'made conscience'
p1637
sS'prob'
p1638
F1.0
ssS'produces <dobj>'
p1639
(dp1640
S'type'
p1641
S'dobj'
p1642
sS'freq'
p1643
I7
sS'subj_freq'
p1644
I7
sS'display'
p1645
S'produces'
p1646
sS'prob'
p1647
F1.0
ssS'want to hold <dobj>'
p1648
(dp1649
g155
S'dobj'
p1650
sg157
I7
sg158
I7
sg159
S'want to hold'
p1651
sg161
F1.0
ssS'conserve <dobj>'
p1652
(dp1653
S'subj_freq'
p1654
I4
sS'freq'
p1655
I4
sS'type'
p1656
S'dobj'
p1657
sS'display'
p1658
S'conserve'
p1659
sS'prob'
p1660
F1.0
ssS'wait <dobj>'
p1661
(dp1662
g1298
I4
sg1299
I7
sg1300
S'dobj'
p1663
sg1302
S'wait'
p1664
sg1304
F0.5714285714285714
ssVforces <dobj>
p1665
(dp1666
g375
I2
sg376
I2
sg377
S'dobj'
p1667
sg379
Vforces
p1668
sg381
F1.0
ssS'<subj> witnessed fact'
p1669
(dp1670
g57
g1573
sg59
I9
sg60
I9
sg61
S'witnessed fact'
p1671
sg63
F1.0
ssS'come <dobj>'
p1672
(dp1673
g57
g58
sg59
I15
sg60
I15
sg61
S'come'
p1674
sg63
F1.0
ssS'<subj> appears'
p1675
(dp1676
S'type'
p1677
S'subj'
p1678
sS'freq'
p1679
I22
sS'subj_freq'
p1680
I22
sS'display'
p1681
S'appears'
p1682
sS'prob'
p1683
F1.0
ssS'beginning <dobj>'
p1684
(dp1685
g972
I2
sg973
I3
sg974
g975
sg976
S'beginning'
p1686
sg978
F0.6666666666666666
ssS'<subj> packed'
p1687
(dp1688
g736
I2
sg737
I2
sg738
S'subj'
p1689
sg740
S'packed'
p1690
sg742
F1.0
ssS'<subj> want evolution'
p1691
(dp1692
S'type'
p1693
S'subj'
p1694
sS'freq'
p1695
I23
sS'subj_freq'
p1696
I23
sS'display'
p1697
S'want evolution'
p1698
sS'prob'
p1699
F1.0
ssS'<subj> celebrated Institute'
p1700
(dp1701
S'subj_freq'
p1702
I2
sS'freq'
p1703
I2
sS'type'
p1704
S'subj'
p1705
sS'display'
p1706
S'celebrated Institute'
p1707
sS'prob'
p1708
F1.0
ssS'<subj> is celebrated'
p1709
(dp1710
g1702
I2
sg1703
I2
sg1704
g1705
sg1706
S'is celebrated'
p1711
sg1708
F1.0
ssS'<subj> create'
p1712
(dp1713
S'type'
p1714
S'subj'
p1715
sS'freq'
p1716
I2
sS'subj_freq'
p1717
I2
sS'display'
p1718
S'create'
p1719
sS'prob'
p1720
F1.0
ssS'<subj> belongs opinion'
p1721
(dp1722
g173
I7
sg174
I7
sg175
g176
sg177
S'belongs opinion'
p1723
sg179
F1.0
ssS'<subj> maintained'
p1724
(dp1725
g880
g881
sg882
I4
sg883
I0
sg884
S'maintained'
p1726
sg886
F0.0
ssS'<subj> depressed'
p1727
(dp1728
g317
g318
sg319
I21
sg320
I21
sg321
S'depressed'
p1729
sg323
F1.0
ssS'prepared <dobj>'
p1730
(dp1731
S'subj_freq'
p1732
I1
sS'freq'
p1733
I1
sS'type'
p1734
S'dobj'
p1735
sS'display'
p1736
S'prepared'
p1737
sS'prob'
p1738
F1.0
ssS'<subj> portraying sculptures'
p1739
(dp1740
S'subj_freq'
p1741
I0
sS'freq'
p1742
I1
sS'type'
p1743
S'subj'
p1744
sS'display'
p1745
S'portraying sculptures'
p1746
sS'prob'
p1747
F0.0
ssS'<subj> fight'
p1748
(dp1749
g475
I7
sg476
I7
sg477
g497
sg479
S'fight'
p1750
sg481
F1.0
ssS'wanted <dobj>'
p1751
(dp1752
S'type'
p1753
S'dobj'
p1754
sS'freq'
p1755
I7
sS'subj_freq'
p1756
I7
sS'display'
p1757
S'wanted'
p1758
sS'prob'
p1759
F1.0
ssS'comes <dobj>'
p1760
(dp1761
S'type'
p1762
S'dobj'
p1763
sS'freq'
p1764
I1
sS'subj_freq'
p1765
I1
sS'display'
p1766
S'comes'
p1767
sS'prob'
p1768
F1.0
ssS'places <dobj>'
p1769
(dp1770
g809
I4
sg810
I4
sg811
S'dobj'
p1771
sg813
S'places'
p1772
sg815
F1.0
ssS'<subj> been maintained'
p1773
(dp1774
g880
g881
sg882
I4
sg883
I0
sg884
S'been maintained'
p1775
sg886
F0.0
ssS'shining <dobj>'
p1776
(dp1777
g137
I1
sg138
I1
sg139
g140
sg141
S'shining'
p1778
sg143
F1.0
ssS'to hit <dobj>'
p1779
(dp1780
S'subj_freq'
p1781
I21
sS'freq'
p1782
I21
sS'type'
p1783
S'dobj'
p1784
sS'display'
p1785
S'to hit'
p1786
sS'prob'
p1787
F1.0
ssS'defends <dobj>'
p1788
(dp1789
g818
S'dobj'
p1790
sg820
I9
sg821
I9
sg822
S'defends'
p1791
sg824
F1.0
ssS'<subj> wants'
p1792
(dp1793
S'subj_freq'
p1794
I7
sS'freq'
p1795
I7
sS'type'
p1796
S'subj'
p1797
sS'display'
p1798
S'wants'
p1799
sS'prob'
p1800
F1.0
ssS'<subj> saw Sir'
p1801
(dp1802
S'subj_freq'
p1803
I7
sS'freq'
p1804
I7
sS'type'
p1805
S'subj'
p1806
sS'display'
p1807
S'saw Sir'
p1808
sS'prob'
p1809
F1.0
ssS'<subj> have be touched'
p1810
(dp1811
g1560
g1561
sg1562
I7
sg1563
I7
sg1564
S'have be touched'
p1812
sg1566
F1.0
ssS'<subj> relax'
p1813
(dp1814
S'type'
p1815
S'subj'
p1816
sS'freq'
p1817
I2
sS'subj_freq'
p1818
I2
sS'display'
p1819
S'relax'
p1820
sS'prob'
p1821
F1.0
ssS'<subj> visit'
p1822
(dp1823
S'type'
p1824
S'subj'
p1825
sS'freq'
p1826
I9
sS'subj_freq'
p1827
I9
sS'display'
p1828
S'visit'
p1829
sS'prob'
p1830
F1.0
ssS'<subj> win gift'
p1831
(dp1832
S'type'
p1833
S'subj'
p1834
sS'freq'
p1835
I2
sS'subj_freq'
p1836
I2
sS'display'
p1837
S'win gift'
p1838
sS'prob'
p1839
F1.0
ssS'<subj> prepared'
p1840
(dp1841
g1732
I1
sg1733
I1
sg1734
S'subj'
p1842
sg1736
S'prepared'
p1843
sg1738
F1.0
ssS'meets <dobj>'
p1844
(dp1845
S'type'
p1846
S'dobj'
p1847
sS'freq'
p1848
I5
sS'subj_freq'
p1849
I5
sS'display'
p1850
S'meets'
p1851
sS'prob'
p1852
F1.0
ssS'site of <np>'
p1853
(dp1854
S'type'
p1855
S'np'
p1856
sS'freq'
p1857
I1
sS'subj_freq'
p1858
I0
sS'display'
p1859
S'site of'
p1860
sS'prob'
p1861
F0.0
ssS'tomorrow for <np>'
p1862
(dp1863
g1824
S'np'
p1864
sg1826
I5
sg1827
I5
sg1828
S'tomorrow for'
p1865
sg1830
F1.0
ssS'seems to evolved <dobj>'
p1866
(dp1867
g687
I21
sg688
I21
sg689
S'dobj'
p1868
sg691
S'seems to evolved'
p1869
sg693
F1.0
ssS'<subj> is delighted'
p1870
(dp1871
S'subj_freq'
p1872
I1
sS'freq'
p1873
I1
sS'type'
p1874
S'subj'
p1875
sS'display'
p1876
S'is delighted'
p1877
sS'prob'
p1878
F1.0
ssS'thinks <dobj>'
p1879
(dp1880
g57
g58
sg59
I9
sg60
I9
sg61
S'thinks'
p1881
sg63
F1.0
ssS'<subj> fail to realize'
p1882
(dp1883
g1455
S'subj'
p1884
sg1457
I27
sg1458
I27
sg1459
S'fail to realize'
p1885
sg1461
F1.0
ssS'<subj> bothered'
p1886
(dp1887
g959
I6
sg960
I6
sg961
g962
sg963
S'bothered'
p1888
sg965
F1.0
ssS'<subj> thought'
p1889
(dp1890
g1104
I46
sg1105
I46
sg1106
g1107
sg1108
S'thought'
p1891
sg1110
F1.0
ssS'develop <dobj>'
p1892
(dp1893
g39
g40
sg41
I9
sg42
I9
sg43
S'develop'
p1894
sg45
F1.0
ssS'<subj> devoted politicians'
p1895
(dp1896
g656
g657
sg658
I9
sg659
I9
sg660
S'devoted politicians'
p1897
sg662
F1.0
ssS'<subj> did'
p1898
(dp1899
g714
g715
sg716
I16
sg717
I16
sg718
S'did'
p1900
sg720
F1.0
ssS'<subj> believe debate'
p1901
(dp1902
g607
g608
sg609
I21
sg610
I21
sg611
S'believe debate'
p1903
sg613
F1.0
ssS'packed <dobj>'
p1904
(dp1905
g736
I2
sg737
I2
sg738
g739
sg740
S'packed'
p1906
sg742
F1.0
ssV<subj> 're grade
p1907
(dp1908
g375
I2
sg376
I2
sg377
g378
sg379
V're grade
p1909
sg381
F1.0
ssS'<subj> remind'
p1910
(dp1911
S'subj_freq'
p1912
I4
sS'freq'
p1913
I4
sS'type'
p1914
S'subj'
p1915
sS'display'
p1916
S'remind'
p1917
sS'prob'
p1918
F1.0
ssS'participating <dobj>'
p1919
(dp1920
S'type'
p1921
S'dobj'
p1922
sS'freq'
p1923
I2
sS'subj_freq'
p1924
I2
sS'display'
p1925
S'participating'
p1926
sS'prob'
p1927
F1.0
ssS'<subj> conserves'
p1928
(dp1929
S'subj_freq'
p1930
I4
sS'freq'
p1931
I4
sS'type'
p1932
S'subj'
p1933
sS'display'
p1934
S'conserves'
p1935
sS'prob'
p1936
F1.0
ssS'distinguished <dobj>'
p1937
(dp1938
S'type'
p1939
S'dobj'
p1940
sS'freq'
p1941
I2
sS'subj_freq'
p1942
I2
sS'display'
p1943
S'distinguished'
p1944
sS'prob'
p1945
F1.0
ssS'Year in <np>'
p1946
(dp1947
g567
I1
sg568
I1
sg569
S'np'
p1948
sg571
S'Year in'
p1949
sg573
F1.0
ssS'life with <np>'
p1950
(dp1951
S'subj_freq'
p1952
I4
sS'freq'
p1953
I4
sS'type'
p1954
S'np'
p1955
sS'display'
p1956
S'life with'
p1957
sS'prob'
p1958
F1.0
ssS'<subj> gave'
p1959
(dp1960
g1126
g1127
sg1128
I7
sg1129
I7
sg1130
S'gave'
p1961
sg1132
F1.0
ssS'transforms <dobj>'
p1962
(dp1963
S'subj_freq'
p1964
I1
sS'freq'
p1965
I1
sS'type'
p1966
S'dobj'
p1967
sS'display'
p1968
S'transforms'
p1969
sS'prob'
p1970
F1.0
ssS'<subj> spread'
p1971
(dp1972
g245
S'subj'
p1973
sg247
I1
sg248
I1
sg249
S'spread'
p1974
sg251
F1.0
ssS'<subj> preserve'
p1975
(dp1976
S'subj_freq'
p1977
I21
sS'freq'
p1978
I21
sS'type'
p1979
S'subj'
p1980
sS'display'
p1981
S'preserve'
p1982
sS'prob'
p1983
F1.0
ssS'<subj> eliminated'
p1984
(dp1985
g97
g1329
sg99
I21
sg100
I21
sg101
S'eliminated'
p1986
sg103
F1.0
ssS'<subj> be shown'
p1987
(dp1988
S'subj_freq'
p1989
I21
sS'freq'
p1990
I21
sS'type'
p1991
S'subj'
p1992
sS'display'
p1993
S'be shown'
p1994
sS'prob'
p1995
F1.0
ssS'do <dobj>'
p1996
(dp1997
g1141
I254
sg1142
I254
sg1143
S'dobj'
p1998
sg1145
S'do'
p1999
sg1147
F1.0
ssS'reached <dobj>'
p2000
(dp2001
S'subj_freq'
p2002
I25
sS'freq'
p2003
I25
sS'type'
p2004
S'dobj'
p2005
sS'display'
p2006
S'reached'
p2007
sS'prob'
p2008
F1.0
ssS'<subj> created'
p2009
(dp2010
g549
I1
sg550
I5
sg551
g552
sg553
S'created'
p2011
sg555
F0.2
ssS'keep <dobj>'
p2012
(dp2013
g537
I10
sg538
I10
sg539
S'dobj'
p2014
sg541
S'keep'
p2015
sg543
F1.0
ssS'become <dobj>'
p2016
(dp2017
g88
I65
sg89
I65
sg90
S'dobj'
p2018
sg92
S'become'
p2019
sg94
F1.0
ssS'providing <dobj>'
p2020
(dp2021
g348
I21
sg349
I21
sg350
g351
sg352
S'providing'
p2022
sg354
F1.0
ssS'<subj> having collections'
p2023
(dp2024
S'subj_freq'
p2025
I1
sS'freq'
p2026
I1
sS'type'
p2027
S'subj'
p2028
sS'display'
p2029
S'having collections'
p2030
sS'prob'
p2031
F1.0
ssS'<subj> faces'
p2032
(dp2033
S'type'
p2034
S'subj'
p2035
sS'freq'
p2036
I2
sS'subj_freq'
p2037
I2
sS'display'
p2038
S'faces'
p2039
sS'prob'
p2040
F1.0
ssS'<subj> required wealth'
p2041
(dp2042
g453
g652
sg455
I7
sg456
I7
sg457
S'required wealth'
p2043
sg459
F1.0
ssS'<subj> lie'
p2044
(dp2045
g537
I9
sg538
I9
sg539
g540
sg541
S'lie'
p2046
sg543
F1.0
ssS'lies <dobj>'
p2047
(dp2048
g656
S'dobj'
p2049
sg658
I17
sg659
I17
sg660
S'lies'
p2050
sg662
F1.0
ssS'<subj> surrounded hills'
p2051
(dp2052
g1053
S'subj'
p2053
sg1055
I2
sg1056
I2
sg1057
S'surrounded hills'
p2054
sg1059
F1.0
ssS'<subj> offer'
p2055
(dp2056
S'type'
p2057
S'subj'
p2058
sS'freq'
p2059
I10
sS'subj_freq'
p2060
I10
sS'display'
p2061
S'offer'
p2062
sS'prob'
p2063
F1.0
ssS'surrounded <dobj>'
p2064
(dp2065
g1053
g1371
sg1055
I2
sg1056
I2
sg1057
S'surrounded'
p2066
sg1059
F1.0
ssS'is known for <np>'
p2067
(dp2068
S'subj_freq'
p2069
I2
sS'freq'
p2070
I2
sS'type'
p2071
S'np'
p2072
sS'display'
p2073
S'is known for'
p2074
sS'prob'
p2075
F1.0
ssS'sounds control over <np>'
p2076
(dp2077
g281
I10
sg282
I10
sg283
S'np'
p2078
sg285
S'sounds control over'
p2079
sg287
F1.0
ssS'saw <dobj>'
p2080
(dp2081
g1803
I7
sg1804
I7
sg1805
S'dobj'
p2082
sg1807
S'saw'
p2083
sg1809
F1.0
ssS'hidden <dobj>'
p2084
(dp2085
g1038
I5
sg1039
I5
sg1040
g1041
sg1042
S'hidden'
p2086
sg1044
F1.0
ssS'<subj> sounds sort'
p2087
(dp2088
g281
I22
sg282
I22
sg283
g284
sg285
S'sounds sort'
p2089
sg287
F1.0
ssS'walk <dobj>'
p2090
(dp2091
g137
I2
sg138
I2
sg139
g140
sg141
S'walk'
p2092
sg143
F1.0
ssS'<subj> grown'
p2093
(dp2094
S'subj_freq'
p2095
I1
sS'freq'
p2096
I1
sS'type'
p2097
S'subj'
p2098
sS'display'
p2099
S'grown'
p2100
sS'prob'
p2101
F1.0
ssS'<subj> get'
p2102
(dp2103
g589
g590
sg591
I31
sg592
I27
sg593
S'get'
p2104
sg595
F0.8709677419354839
ssS'video of <np>'
p2105
(dp2106
g845
S'np'
p2107
sg847
I2
sg848
I0
sg849
S'video of'
p2108
sg851
F0.0
ssS'<subj> seems'
p2109
(dp2110
g687
I29
sg688
I29
sg689
g690
sg691
S'seems'
p2111
sg693
F1.0
ssS'<subj> creating'
p2112
(dp2113
g2057
g2058
sg2059
I13
sg2060
I13
sg2061
S'creating'
p2114
sg2063
F1.0
ssS"<subj> 's technology"
p2115
(dp2116
S'subj_freq'
p2117
I9
sS'freq'
p2118
I9
sS'type'
p2119
S'subj'
p2120
sS'display'
p2121
S"'s technology"
p2122
sS'prob'
p2123
F1.0
ssS'<subj> suppose'
p2124
(dp2125
S'type'
p2126
S'subj'
p2127
sS'freq'
p2128
I7
sS'subj_freq'
p2129
I7
sS'display'
p2130
S'suppose'
p2131
sS'prob'
p2132
F1.0
ssS'Kingdom of <np>'
p2133
(dp2134
S'subj_freq'
p2135
I1
sS'freq'
p2136
I1
sS'type'
p2137
S'np'
p2138
sS'display'
p2139
S'Kingdom of'
p2140
sS'prob'
p2141
F1.0
ssS'see <dobj>'
p2142
(dp2143
g348
I60
sg349
I61
sg350
g351
sg352
S'see'
p2144
sg354
F0.9836065573770492
ssS'<subj> sharing experience'
p2145
(dp2146
S'type'
p2147
S'subj'
p2148
sS'freq'
p2149
I1
sS'subj_freq'
p2150
I1
sS'display'
p2151
S'sharing experience'
p2152
sS'prob'
p2153
F1.0
ssS'<subj> left'
p2154
(dp2155
S'subj_freq'
p2156
I11
sS'freq'
p2157
I11
sS'type'
p2158
S'subj'
p2159
sS'display'
p2160
S'left'
p2161
sS'prob'
p2162
F1.0
ssS'touched <dobj>'
p2163
(dp2164
g1560
S'dobj'
p2165
sg1562
I7
sg1563
I7
sg1564
S'touched'
p2166
sg1566
F1.0
ssS'<subj> prevent'
p2167
(dp2168
g901
I21
sg902
I21
sg903
S'subj'
p2169
sg905
S'prevent'
p2170
sg907
F1.0
ssS'<subj> offer communities'
p2171
(dp2172
g2057
g2058
sg2059
I9
sg2060
I9
sg2061
S'offer communities'
p2173
sg2063
F1.0
ssS'<subj> saves someone'
p2174
(dp2175
g1358
g1359
sg1360
I7
sg1361
I7
sg1362
S'saves someone'
p2176
sg1364
F1.0
ssS'<subj> known'
p2177
(dp2178
g1336
S'subj'
p2179
sg1338
I7
sg1339
I6
sg1340
S'known'
p2180
sg1342
F0.8571428571428571
ssS'believe <dobj>'
p2181
(dp2182
g607
g1345
sg609
I30
sg610
I30
sg611
S'believe'
p2183
sg613
F1.0
ssS'<subj> knows'
p2184
(dp2185
g1794
I7
sg1795
I7
sg1796
g1797
sg1798
S'knows'
p2186
sg1800
F1.0
ssS'<subj> allowing'
p2187
(dp2188
g871
I1
sg872
I1
sg873
S'subj'
p2189
sg875
S'allowing'
p2190
sg877
F1.0
ssS'<subj> managing work'
p2191
(dp2192
S'subj_freq'
p2193
I4
sS'freq'
p2194
I4
sS'type'
p2195
S'subj'
p2196
sS'display'
p2197
S'managing work'
p2198
sS'prob'
p2199
F1.0
ssS'to visit <dobj>'
p2200
(dp2201
S'type'
p2202
S'dobj'
p2203
sS'freq'
p2204
I4
sS'subj_freq'
p2205
I4
sS'display'
p2206
S'to visit'
p2207
sS'prob'
p2208
F1.0
ssS'vacation with <np>'
p2209
(dp2210
S'subj_freq'
p2211
I1
sS'freq'
p2212
I1
sS'type'
p2213
S'np'
p2214
sS'display'
p2215
S'vacation with'
p2216
sS'prob'
p2217
F1.0
ssS'going <dobj>'
p2218
(dp2219
g705
I12
sg706
I12
sg707
S'dobj'
p2220
sg709
S'going'
p2221
sg711
F1.0
ssS'undo <dobj>'
p2222
(dp2223
g263
S'dobj'
p2224
sg265
I21
sg266
I21
sg267
S'undo'
p2225
sg269
F1.0
ssS'<subj> knowing'
p2226
(dp2227
g827
S'subj'
p2228
sg829
I1
sg830
I1
sg831
S'knowing'
p2229
sg833
F1.0
ssS'<subj> creating eternity'
p2230
(dp2231
g414
g415
sg416
I4
sg417
I4
sg418
S'creating eternity'
p2232
sg420
F1.0
ssS'<subj> have time'
p2233
(dp2234
g959
I6
sg960
I6
sg961
g962
sg963
S'have time'
p2235
sg965
F1.0
ssS'<subj> elaborate designs'
p2236
(dp2237
g1939
S'subj'
p2238
sg1941
I2
sg1942
I2
sg1943
S'elaborate designs'
p2239
sg1945
F1.0
ssS'doing <dobj>'
p2240
(dp2241
g97
g98
sg99
I21
sg100
I21
sg101
S'doing'
p2242
sg103
F1.0
ssS'attributed <dobj>'
p2243
(dp2244
g598
I10
sg599
I10
sg600
S'dobj'
p2245
sg602
S'attributed'
p2246
sg604
F1.0
ssS'began <dobj>'
p2247
(dp2248
S'subj_freq'
p2249
I1
sS'freq'
p2250
I3
sS'type'
p2251
S'dobj'
p2252
sS'display'
p2253
S'began'
p2254
sS'prob'
p2255
F0.3333333333333333
ssS'<subj> end'
p2256
(dp2257
g665
I3
sg666
I3
sg667
S'subj'
p2258
sg669
S'end'
p2259
sg671
F1.0
ssS'to explore <dobj>'
p2260
(dp2261
g405
g406
sg407
I1
sg408
I1
sg409
S'to explore'
p2262
sg411
F1.0
ssS'performing <dobj>'
p2263
(dp2264
S'subj_freq'
p2265
I1
sS'freq'
p2266
I1
sS'type'
p2267
S'dobj'
p2268
sS'display'
p2269
S'performing'
p2270
sS'prob'
p2271
F1.0
ssS'fighters on <np>'
p2272
(dp2273
S'type'
p2274
S'np'
p2275
sS'freq'
p2276
I1
sS'subj_freq'
p2277
I1
sS'display'
p2278
S'fighters on'
p2279
sS'prob'
p2280
F1.0
ssS'<subj> have been attributed'
p2281
(dp2282
g1011
g1012
sg1013
I3
sg1014
I3
sg1015
S'have been attributed'
p2283
sg1017
F1.0
ssS'<subj> work'
p2284
(dp2285
S'type'
p2286
S'subj'
p2287
sS'freq'
p2288
I1
sS'subj_freq'
p2289
I0
sS'display'
p2290
S'work'
p2291
sS'prob'
p2292
F0.0
ssS'<subj> see birds'
p2293
(dp2294
S'type'
p2295
S'subj'
p2296
sS'freq'
p2297
I2
sS'subj_freq'
p2298
I2
sS'display'
p2299
S'see birds'
p2300
sS'prob'
p2301
F1.0
ssS'<subj> say experience'
p2302
(dp2303
g892
g893
sg894
I19
sg895
I19
sg896
S'say experience'
p2304
sg898
F1.0
ssS'like <dobj>'
p2305
(dp2306
g714
S'dobj'
p2307
sg716
I10
sg717
I10
sg718
S'like'
p2308
sg720
F1.0
ssS'continue <dobj>'
p2309
(dp2310
g990
I7
sg991
I7
sg992
g993
sg994
S'continue'
p2311
sg996
F1.0
ssS'<subj> meets incomprehensible'
p2312
(dp2313
g1191
I1
sg1192
I1
sg1193
g1194
sg1195
S'meets incomprehensible'
p2314
sg1197
F1.0
ssS'to prevent <dobj>'
p2315
(dp2316
g901
I21
sg902
I21
sg903
g904
sg905
S'to prevent'
p2317
sg907
F1.0
ssS'came <dobj>'
p2318
(dp2319
g1803
I7
sg1804
I7
sg1805
g2082
sg1807
S'came'
p2320
sg1809
F1.0
ssS'<subj> construct'
p2321
(dp2322
S'type'
p2323
S'subj'
p2324
sS'freq'
p2325
I21
sS'subj_freq'
p2326
I0
sS'display'
p2327
S'construct'
p2328
sS'prob'
p2329
F0.0
ssS'faces <dobj>'
p2330
(dp2331
g2034
S'dobj'
p2332
sg2036
I2
sg2037
I2
sg2038
S'faces'
p2333
sg2040
F1.0
ssS'to cool <dobj>'
p2334
(dp2335
g981
I1
sg982
I1
sg983
g984
sg985
S'to cool'
p2336
sg987
F1.0
ssS'<subj> means'
p2337
(dp2338
g1455
g1884
sg1457
I41
sg1458
I41
sg1459
S'means'
p2339
sg1461
F1.0
ssS'<subj> got problem'
p2340
(dp2341
g57
g1573
sg59
I9
sg60
I9
sg61
S'got problem'
p2342
sg63
F1.0
ssS'eliminated <dobj>'
p2343
(dp2344
g97
g98
sg99
I21
sg100
I21
sg101
S'eliminated'
p2345
sg103
F1.0
ssS'<subj> has been maintained'
p2346
(dp2347
g880
g881
sg882
I4
sg883
I0
sg884
S'has been maintained'
p2348
sg886
F0.0
ssS'sees <dobj>'
p2349
(dp2350
g88
I42
sg89
I42
sg90
g2018
sg92
S'sees'
p2351
sg94
F1.0
ssS'<subj> believe'
p2352
(dp2353
g607
g608
sg609
I30
sg610
I30
sg611
S'believe'
p2354
sg613
F1.0
ssS'to reach <dobj>'
p2355
(dp2356
g97
g98
sg99
I21
sg100
I21
sg101
S'to reach'
p2357
sg103
F1.0
ssS'apply <dobj>'
p2358
(dp2359
g714
g2307
sg716
I9
sg717
I9
sg718
S'apply'
p2360
sg720
F1.0
ssS'<subj> are connected'
p2361
(dp2362
g97
g1329
sg99
I21
sg100
I21
sg101
S'are connected'
p2363
sg103
F1.0
ssS'<subj> open tourist'
p2364
(dp2365
g1434
I4
sg1435
I4
sg1436
S'subj'
p2366
sg1438
S'open tourist'
p2367
sg1440
F1.0
ssS'<subj> wanted to express'
p2368
(dp2369
g1753
S'subj'
p2370
sg1755
I7
sg1756
I7
sg1757
S'wanted to express'
p2371
sg1759
F1.0
ssS'<subj> took place'
p2372
(dp2373
g1218
I0
sg1219
I1
sg1220
g1221
sg1222
S'took place'
p2374
sg1224
F0.0
ssS'<subj> continue'
p2375
(dp2376
g990
I7
sg991
I7
sg992
g1069
sg994
S'continue'
p2377
sg996
F1.0
ssS'<subj> written'
p2378
(dp2379
S'subj_freq'
p2380
I6
sS'freq'
p2381
I6
sS'type'
p2382
S'subj'
p2383
sS'display'
p2384
S'written'
p2385
sS'prob'
p2386
F1.0
ssS'<subj> walks tourists'
p2387
(dp2388
g137
I1
sg138
I1
sg139
g854
sg141
S'walks tourists'
p2389
sg143
F1.0
ssS'governing <dobj>'
p2390
(dp2391
g263
g2224
sg265
I21
sg266
I21
sg267
S'governing'
p2392
sg269
F1.0
ssV<subj> have work
p2393
(dp2394
g375
I2
sg376
I2
sg377
g378
sg379
Vhave work
p2395
sg381
F1.0
ssS'soul on <np>'
p2396
(dp2397
S'subj_freq'
p2398
I0
sS'freq'
p2399
I1
sS'type'
p2400
S'np'
p2401
sS'display'
p2402
S'soul on'
p2403
sS'prob'
p2404
F0.0
ssS'<subj> preserving'
p2405
(dp2406
S'type'
p2407
S'subj'
p2408
sS'freq'
p2409
I2
sS'subj_freq'
p2410
I2
sS'display'
p2411
S'preserving'
p2412
sS'prob'
p2413
F1.0
ssS'hold <dobj>'
p2414
(dp2415
g155
g1650
sg157
I7
sg158
I7
sg159
S'hold'
p2416
sg161
F1.0
ssS'become work on <np>'
p2417
(dp2418
S'type'
p2419
S'np'
p2420
sS'freq'
p2421
I13
sS'subj_freq'
p2422
I13
sS'display'
p2423
S'become work on'
p2424
sS'prob'
p2425
F1.0
ssS"'m <dobj>"
p2426
(dp2427
g1677
S'dobj'
p2428
sg1679
I77
sg1680
I77
sg1681
S"'m"
p2429
sg1683
F1.0
ssS'got <dobj>'
p2430
(dp2431
g57
g58
sg59
I9
sg60
I9
sg61
S'got'
p2432
sg63
F1.0
ssS'shows <dobj>'
p2433
(dp2434
g1529
g1538
sg1531
I7
sg1532
I7
sg1533
S'shows'
p2435
sg1535
F1.0
ssS'<subj> thinking'
p2436
(dp2437
g227
I21
sg228
I21
sg229
S'subj'
p2438
sg231
S'thinking'
p2439
sg233
F1.0
ssS'<subj> cut'
p2440
(dp2441
g209
I4
sg210
I4
sg211
g326
sg213
S'cut'
p2442
sg215
F1.0
ssVblown <dobj>
p2443
(dp2444
g375
I2
sg376
I2
sg377
g1667
sg379
Vblown
p2445
sg381
F1.0
ssS'focused <dobj>'
p2446
(dp2447
g705
I7
sg706
I7
sg707
g2220
sg709
S'focused'
p2448
sg711
F1.0
ssS'<subj> wrecked'
p2449
(dp2450
g1011
g1012
sg1013
I3
sg1014
I3
sg1015
S'wrecked'
p2451
sg1017
F1.0
ssS'<subj> held travel'
p2452
(dp2453
g757
I1
sg758
I1
sg759
g760
sg761
S'held travel'
p2454
sg763
F1.0
ssS'<subj> make energy'
p2455
(dp2456
S'type'
p2457
S'subj'
p2458
sS'freq'
p2459
I1
sS'subj_freq'
p2460
I1
sS'display'
p2461
S'make energy'
p2462
sS'prob'
p2463
F1.0
ssS'uses <dobj>'
p2464
(dp2465
S'type'
p2466
S'dobj'
p2467
sS'freq'
p2468
I17
sS'subj_freq'
p2469
I17
sS'display'
p2470
S'uses'
p2471
sS'prob'
p2472
F1.0
ssS'<subj> offers water'
p2473
(dp2474
g1375
S'subj'
p2475
sg1377
I1
sg1378
I0
sg1379
S'offers water'
p2476
sg1381
F0.0
ssS'<subj> exhibiting'
p2477
(dp2478
g110
I0
sg111
I1
sg112
g113
sg114
S'exhibiting'
p2479
sg116
F0.0
ssS'having <dobj>'
p2480
(dp2481
S'subj_freq'
p2482
I8
sS'freq'
p2483
I8
sS'type'
p2484
S'dobj'
p2485
sS'display'
p2486
S'having'
p2487
sS'prob'
p2488
F1.0
ssS'<subj> needed education'
p2489
(dp2490
g510
I21
sg511
I21
sg512
g513
sg514
S'needed education'
p2491
sg516
F1.0
ssS'makes <dobj>'
p2492
(dp2493
S'type'
p2494
S'dobj'
p2495
sS'freq'
p2496
I4
sS'subj_freq'
p2497
I4
sS'display'
p2498
S'makes'
p2499
sS'prob'
p2500
F1.0
ssS'<subj> portraying feet'
p2501
(dp2502
g1741
I0
sg1742
I1
sg1743
g1744
sg1745
S'portraying feet'
p2503
sg1747
F0.0
ssS'<subj> shown'
p2504
(dp2505
g607
g608
sg609
I42
sg610
I42
sg611
S'shown'
p2506
sg613
F1.0
ssS'<subj> was began'
p2507
(dp2508
g57
g1573
sg59
I9
sg60
I9
sg61
S'was began'
p2509
sg63
F1.0
ssS'<subj> connected privacy'
p2510
(dp2511
g97
g1329
sg99
I21
sg100
I21
sg101
S'connected privacy'
p2512
sg103
F1.0
ssS'<subj> shows'
p2513
(dp2514
g1529
g1530
sg1531
I7
sg1532
I7
sg1533
S'shows'
p2515
sg1535
F1.0
ssS'is made up <np>'
p2516
(dp2517
g12
S'np'
p2518
sg14
I1
sg15
I1
sg16
S'is made up'
p2519
sg18
F1.0
ssS'<subj> cheat sister'
p2520
(dp2521
g57
g1573
sg59
I9
sg60
I9
sg61
S'cheat sister'
p2522
sg63
F1.0
ssS'<subj> had fun'
p2523
(dp2524
S'type'
p2525
S'subj'
p2526
sS'freq'
p2527
I1
sS'subj_freq'
p2528
I1
sS'display'
p2529
S'had fun'
p2530
sS'prob'
p2531
F1.0
ssS'<subj> stay Gujarat'
p2532
(dp2533
S'type'
p2534
S'subj'
p2535
sS'freq'
p2536
I1
sS'subj_freq'
p2537
I1
sS'display'
p2538
S'stay Gujarat'
p2539
sS'prob'
p2540
F1.0
ssS'suggests <dobj>'
p2541
(dp2542
S'subj_freq'
p2543
I0
sS'freq'
p2544
I17
sS'type'
p2545
S'dobj'
p2546
sS'display'
p2547
S'suggests'
p2548
sS'prob'
p2549
F0.0
ssS'<subj> think to think'
p2550
(dp2551
g950
I9
sg951
I9
sg952
S'subj'
p2552
sg954
S'think to think'
p2553
sg956
F1.0
ssS'<subj> hit gallon'
p2554
(dp2555
g1781
I21
sg1782
I21
sg1783
S'subj'
p2556
sg1785
S'hit gallon'
p2557
sg1787
F1.0
ssS'<subj> are presented'
p2558
(dp2559
g770
I9
sg771
I9
sg772
S'subj'
p2560
sg774
S'are presented'
p2561
sg776
F1.0
ssS'<subj> was conceded'
p2562
(dp2563
g200
I7
sg201
I7
sg202
g203
sg204
S'was conceded'
p2564
sg206
F1.0
ssS'took <dobj>'
p2565
(dp2566
g1218
I0
sg1219
I1
sg1220
S'dobj'
p2567
sg1222
S'took'
p2568
sg1224
F0.0
ssS"<subj> 's spending"
p2569
(dp2570
S'type'
p2571
S'subj'
p2572
sS'freq'
p2573
I1
sS'subj_freq'
p2574
I1
sS'display'
p2575
S"'s spending"
p2576
sS'prob'
p2577
F1.0
ssS'reject <dobj>'
p2578
(dp2579
g1230
I21
sg1231
I21
sg1232
g1233
sg1234
S'reject'
p2580
sg1236
F1.0
ssS'<subj> raise'
p2581
(dp2582
g941
I4
sg942
I4
sg943
g944
sg945
S'raise'
p2583
sg947
F1.0
ssS'printed <dobj>'
p2584
(dp2585
S'subj_freq'
p2586
I1
sS'freq'
p2587
I1
sS'type'
p2588
S'dobj'
p2589
sS'display'
p2590
S'printed'
p2591
sS'prob'
p2592
F1.0
ssS'originated <dobj>'
p2593
(dp2594
g3
I1
sg4
I1
sg5
S'dobj'
p2595
sg7
S'originated'
p2596
sg9
F1.0
ssS'misled <dobj>'
p2597
(dp2598
g1230
I21
sg1231
I21
sg1232
g1233
sg1234
S'misled'
p2599
sg1236
F1.0
ssS'wanted to express <dobj>'
p2600
(dp2601
g1753
g1754
sg1755
I7
sg1756
I7
sg1757
S'wanted to express'
p2602
sg1759
F1.0
ssS'awaits <dobj>'
p2603
(dp2604
S'type'
p2605
S'dobj'
p2606
sS'freq'
p2607
I1
sS'subj_freq'
p2608
I1
sS'display'
p2609
S'awaits'
p2610
sS'prob'
p2611
F1.0
ssS'killing <dobj>'
p2612
(dp2613
g366
I1
sg367
I1
sg368
S'dobj'
p2614
sg370
S'killing'
p2615
sg372
F1.0
ssS'lie <dobj>'
p2616
(dp2617
g537
I9
sg538
I9
sg539
g2014
sg541
S'lie'
p2618
sg543
F1.0
ssS'soldiers for <np>'
p2619
(dp2620
S'type'
p2621
S'np'
p2622
sS'freq'
p2623
I1
sS'subj_freq'
p2624
I1
sS'display'
p2625
S'soldiers for'
p2626
sS'prob'
p2627
F1.0
ssS'to stop <dobj>'
p2628
(dp2629
g1632
S'dobj'
p2630
sg1634
I21
sg1635
I21
sg1636
S'to stop'
p2631
sg1638
F1.0
ssS'<subj> think genius'
p2632
(dp2633
S'subj_freq'
p2634
I7
sS'freq'
p2635
I7
sS'type'
p2636
S'subj'
p2637
sS'display'
p2638
S'think genius'
p2639
sS'prob'
p2640
F1.0
ssS'<subj> become canvas'
p2641
(dp2642
g1239
I1
sg1240
I1
sg1241
S'subj'
p2643
sg1243
S'become canvas'
p2644
sg1245
F1.0
ssS'<subj> makes'
p2645
(dp2646
g2494
S'subj'
p2647
sg2496
I4
sg2497
I4
sg2498
S'makes'
p2648
sg2500
F1.0
ssS'heed <dobj>'
p2649
(dp2650
g990
I7
sg991
I7
sg992
g993
sg994
S'heed'
p2651
sg996
F1.0
ssS'<subj> bringing responsibility'
p2652
(dp2653
S'subj_freq'
p2654
I23
sS'freq'
p2655
I23
sS'type'
p2656
S'subj'
p2657
sS'display'
p2658
S'bringing responsibility'
p2659
sS'prob'
p2660
F1.0
ssS'<subj> has be spent'
p2661
(dp2662
g892
g893
sg894
I19
sg895
I19
sg896
S'has be spent'
p2663
sg898
F1.0
ssS'atoms in <np>'
p2664
(dp2665
g2482
I7
sg2483
I7
sg2484
S'np'
p2666
sg2486
S'atoms in'
p2667
sg2488
F1.0
ssS'<subj> think room'
p2668
(dp2669
g950
I9
sg951
I9
sg952
g2552
sg954
S'think room'
p2670
sg956
F1.0
ssS'invite <dobj>'
p2671
(dp2672
g616
I3
sg617
I3
sg618
S'dobj'
p2673
sg620
S'invite'
p2674
sg622
F1.0
ssS'<subj> buy assertion'
p2675
(dp2676
g48
I7
sg49
I7
sg50
g1325
sg52
S'buy assertion'
p2677
sg54
F1.0
ssS'<subj> spent'
p2678
(dp2679
g892
g893
sg894
I19
sg895
I19
sg896
S'spent'
p2680
sg898
F1.0
ssS'needed <dobj>'
p2681
(dp2682
g510
I28
sg511
I28
sg512
S'dobj'
p2683
sg514
S'needed'
p2684
sg516
F1.0
ssS'<subj> seems to evolved'
p2685
(dp2686
g687
I21
sg688
I21
sg689
g690
sg691
S'seems to evolved'
p2687
sg693
F1.0
ssS'<subj> going to begin'
p2688
(dp2689
S'subj_freq'
p2690
I1
sS'freq'
p2691
I1
sS'type'
p2692
S'subj'
p2693
sS'display'
p2694
S'going to begin'
p2695
sS'prob'
p2696
F1.0
ssS'to watch <dobj>'
p2697
(dp2698
g1260
I2
sg1261
I2
sg1262
S'dobj'
p2699
sg1264
S'to watch'
p2700
sg1266
F1.0
ssVwatched <dobj>
p2701
(dp2702
g375
I2
sg376
I2
sg377
g1667
sg379
Vwatched
p2703
sg381
F1.0
ssS'<subj> spreading'
p2704
(dp2705
g387
S'subj'
p2706
sg389
I2
sg390
I2
sg391
S'spreading'
p2707
sg393
F1.0
ssS'<subj> elaborate'
p2708
(dp2709
g1939
g2238
sg1941
I2
sg1942
I2
sg1943
S'elaborate'
p2710
sg1945
F1.0
ssS'ensure <dobj>'
p2711
(dp2712
g1285
I20
sg1286
I20
sg1287
g1288
sg1289
S'ensure'
p2713
sg1291
F1.0
ssS'<subj> get chance'
p2714
(dp2715
S'subj_freq'
p2716
I1
sS'freq'
p2717
I1
sS'type'
p2718
S'subj'
p2719
sS'display'
p2720
S'get chance'
p2721
sS'prob'
p2722
F1.0
ssS'<subj> spend'
p2723
(dp2724
g1053
g2053
sg1055
I5
sg1056
I4
sg1057
S'spend'
p2725
sg1059
F0.8
ssS'held <dobj>'
p2726
(dp2727
S'type'
p2728
S'dobj'
p2729
sS'freq'
p2730
I2
sS'subj_freq'
p2731
I1
sS'display'
p2732
S'held'
p2733
sS'prob'
p2734
F0.5
ssS'to create <dobj>'
p2735
(dp2736
g1714
S'dobj'
p2737
sg1716
I2
sg1717
I2
sg1718
S'to create'
p2738
sg1720
F1.0
ssS'waste <dobj>'
p2739
(dp2740
g959
I6
sg960
I6
sg961
S'dobj'
p2741
sg963
S'waste'
p2742
sg965
F1.0
ssS'learned <dobj>'
p2743
(dp2744
g589
g1421
sg591
I13
sg592
I13
sg593
S'learned'
p2745
sg595
F1.0
ssS'<subj> learning'
p2746
(dp2747
S'type'
p2748
S'subj'
p2749
sS'freq'
p2750
I8
sS'subj_freq'
p2751
I8
sS'display'
p2752
S'learning'
p2753
sS'prob'
p2754
F1.0
ssS'<subj> leads visitor'
p2755
(dp2756
S'type'
p2757
S'subj'
p2758
sS'freq'
p2759
I1
sS'subj_freq'
p2760
I0
sS'display'
p2761
S'leads visitor'
p2762
sS'prob'
p2763
F0.0
ssS'<subj> stay'
p2764
(dp2765
g519
I4
sg520
I4
sg521
S'subj'
p2766
sg523
S'stay'
p2767
sg525
F1.0
ssS'helps <dobj>'
p2768
(dp2769
g589
g1421
sg591
I11
sg592
I11
sg593
S'helps'
p2770
sg595
F1.0
ssS'understand <dobj>'
p2771
(dp2772
g800
I7
sg801
I7
sg802
S'dobj'
p2773
sg804
S'understand'
p2774
sg806
F1.0
ssS'<subj> restored'
p2775
(dp2776
S'subj_freq'
p2777
I2
sS'freq'
p2778
I2
sS'type'
p2779
S'subj'
p2780
sS'display'
p2781
S'restored'
p2782
sS'prob'
p2783
F1.0
ssS'Minister of <np>'
p2784
(dp2785
S'type'
p2786
S'np'
p2787
sS'freq'
p2788
I1
sS'subj_freq'
p2789
I0
sS'display'
p2790
S'Minister of'
p2791
sS'prob'
p2792
F0.0
ssS'to win <dobj>'
p2793
(dp2794
g236
g732
sg238
I4
sg239
I4
sg240
S'to win'
p2795
sg242
F1.0
ssS"<subj> 's pleasure"
p2796
(dp2797
S'type'
p2798
S'subj'
p2799
sS'freq'
p2800
I3
sS'subj_freq'
p2801
I3
sS'display'
p2802
S"'s pleasure"
p2803
sS'prob'
p2804
F1.0
ssS'copied <dobj>'
p2805
(dp2806
g928
S'dobj'
p2807
sg930
I21
sg931
I21
sg932
S'copied'
p2808
sg934
F1.0
ssS'<subj> fill festival'
p2809
(dp2810
g30
g31
sg32
I2
sg33
I2
sg34
S'fill festival'
p2811
sg36
F1.0
ssS'hit <dobj>'
p2812
(dp2813
g1781
I21
sg1782
I21
sg1783
g1784
sg1785
S'hit'
p2814
sg1787
F1.0
ssS'to wait <dobj>'
p2815
(dp2816
g1298
I4
sg1299
I7
sg1300
g1663
sg1302
S'to wait'
p2817
sg1304
F0.5714285714285714
ssS'need to remember <dobj>'
p2818
(dp2819
S'subj_freq'
p2820
I6
sS'freq'
p2821
I6
sS'type'
p2822
S'dobj'
p2823
sS'display'
p2824
S'need to remember'
p2825
sS'prob'
p2826
F1.0
ssS'fight <dobj>'
p2827
(dp2828
g475
I7
sg476
I7
sg477
g478
sg479
S'fight'
p2829
sg481
F1.0
ssS'<subj> cool'
p2830
(dp2831
g981
I1
sg982
I1
sg983
S'subj'
p2832
sg985
S'cool'
p2833
sg987
F1.0
ssS'<subj> exercise'
p2834
(dp2835
g950
I9
sg951
I9
sg952
g2552
sg954
S'exercise'
p2836
sg956
F1.0
ssS'<subj> lies'
p2837
(dp2838
g656
g657
sg658
I17
sg659
I17
sg660
S'lies'
p2839
sg662
F1.0
ssS'is lit with <np>'
p2840
(dp2841
g1464
S'np'
p2842
sg1466
I1
sg1467
I1
sg1468
S'is lit with'
p2843
sg1470
F1.0
ssS'<subj> bringing power'
p2844
(dp2845
g2654
I23
sg2655
I23
sg2656
g2657
sg2658
S'bringing power'
p2846
sg2660
F1.0
ssS'<subj> guess picnic'
p2847
(dp2848
S'type'
p2849
S'subj'
p2850
sS'freq'
p2851
I1
sS'subj_freq'
p2852
I0
sS'display'
p2853
S'guess picnic'
p2854
sS'prob'
p2855
F0.0
ssS'forget <dobj>'
p2856
(dp2857
S'type'
p2858
S'dobj'
p2859
sS'freq'
p2860
I8
sS'subj_freq'
p2861
I8
sS'display'
p2862
S'forget'
p2863
sS'prob'
p2864
F1.0
ssS'theory of <np>'
p2865
(dp2866
g589
S'np'
p2867
sg591
I9
sg592
I9
sg593
S'theory of'
p2868
sg595
F1.0
ssS'speech at <np>'
p2869
(dp2870
g2457
S'np'
p2871
sg2459
I1
sg2460
I1
sg2461
S'speech at'
p2872
sg2463
F1.0
ssS'<subj> incurred amount'
p2873
(dp2874
S'subj_freq'
p2875
I0
sS'freq'
p2876
I2
sS'type'
p2877
S'subj'
p2878
sS'display'
p2879
S'incurred amount'
p2880
sS'prob'
p2881
F0.0
ssS'speak <dobj>'
p2882
(dp2883
S'subj_freq'
p2884
I7
sS'freq'
p2885
I7
sS'type'
p2886
S'dobj'
p2887
sS'display'
p2888
S'speak'
p2889
sS'prob'
p2890
F1.0
ssS'using <dobj>'
p2891
(dp2892
g845
S'dobj'
p2893
sg847
I2
sg848
I0
sg849
S'using'
p2894
sg851
F0.0
ssS'involves use of <np>'
p2895
(dp2896
S'subj_freq'
p2897
I2
sS'freq'
p2898
I2
sS'type'
p2899
S'np'
p2900
sS'display'
p2901
S'involves use of'
p2902
sS'prob'
p2903
F1.0
ssS'celebration at <np>'
p2904
(dp2905
S'subj_freq'
p2906
I2
sS'freq'
p2907
I2
sS'type'
p2908
S'np'
p2909
sS'display'
p2910
S'celebration at'
p2911
sS'prob'
p2912
F1.0
ssS'shot in <np>'
p2913
(dp2914
g1200
S'np'
p2915
sg1202
I1
sg1203
I1
sg1204
S'shot in'
p2916
sg1206
F1.0
ssS'to make <dobj>'
p2917
(dp2918
S'subj_freq'
p2919
I17
sS'freq'
p2920
I17
sS'type'
p2921
S'dobj'
p2922
sS'display'
p2923
S'to make'
p2924
sS'prob'
p2925
F1.0
ssS'seems <dobj>'
p2926
(dp2927
g687
I29
sg688
I29
sg689
g1868
sg691
S'seems'
p2928
sg693
F1.0
ssS'waves with <np>'
p2929
(dp2930
g1038
I4
sg1039
I4
sg1040
S'np'
p2931
sg1042
S'waves with'
p2932
sg1044
F1.0
ssS'denied <dobj>'
p2933
(dp2934
g1230
I21
sg1231
I21
sg1232
g1233
sg1234
S'denied'
p2935
sg1236
F1.0
ssS'arrive <dobj>'
p2936
(dp2937
S'subj_freq'
p2938
I7
sS'freq'
p2939
I7
sS'type'
p2940
S'dobj'
p2941
sS'display'
p2942
S'arrive'
p2943
sS'prob'
p2944
F1.0
ssS'<subj> like ideas'
p2945
(dp2946
g2457
g2458
sg2459
I1
sg2460
I1
sg2461
S'like ideas'
p2947
sg2463
F1.0
ssS'<subj> explained Ted'
p2948
(dp2949
g254
g255
sg256
I9
sg257
I9
sg258
S'explained Ted'
p2950
sg260
F1.0
ssVread <dobj>
p2951
(dp2952
g375
I2
sg376
I2
sg377
g1667
sg379
Vread
p2953
sg381
F1.0
ssS'<subj> celebrated'
p2954
(dp2955
S'subj_freq'
p2956
I7
sS'freq'
p2957
I7
sS'type'
p2958
S'subj'
p2959
sS'display'
p2960
S'celebrated'
p2961
sS'prob'
p2962
F1.0
ssS'<subj> discover'
p2963
(dp2964
g528
S'subj'
p2965
sg530
I2
sg531
I2
sg532
S'discover'
p2966
sg534
F1.0
ssS'<subj> celebrated devotion'
p2967
(dp2968
S'subj_freq'
p2969
I1
sS'freq'
p2970
I1
sS'type'
p2971
S'subj'
p2972
sS'display'
p2973
S'celebrated devotion'
p2974
sS'prob'
p2975
F1.0
ssS'<subj> is cut'
p2976
(dp2977
g209
I4
sg210
I4
sg211
g326
sg213
S'is cut'
p2978
sg215
F1.0
ssS'<subj> be held'
p2979
(dp2980
g757
I1
sg758
I1
sg759
g760
sg761
S'be held'
p2981
sg763
F1.0
ssS'<subj> gather'
p2982
(dp2983
g1732
I1
sg1733
I1
sg1734
g1842
sg1736
S'gather'
p2984
sg1738
F1.0
ssS'<subj> reached'
p2985
(dp2986
g2002
I25
sg2003
I25
sg2004
S'subj'
p2987
sg2006
S'reached'
p2988
sg2008
F1.0
ssS'<subj> wants technology'
p2989
(dp2990
g1794
I7
sg1795
I7
sg1796
g1797
sg1798
S'wants technology'
p2991
sg1800
F1.0
ssS'<subj> shows things'
p2992
(dp2993
g1529
g1530
sg1531
I7
sg1532
I7
sg1533
S'shows things'
p2994
sg1535
F1.0
ssS'watch <dobj>'
p2995
(dp2996
g1260
I2
sg1261
I2
sg1262
g2699
sg1264
S'watch'
p2997
sg1266
F1.0
ssS'changed <dobj>'
p2998
(dp2999
g1560
g2165
sg1562
I7
sg1563
I7
sg1564
S'changed'
p3000
sg1566
F1.0
ssS'<subj> been unveiled'
p3001
(dp3002
S'type'
p3003
S'subj'
p3004
sS'freq'
p3005
I1
sS'subj_freq'
p3006
I1
sS'display'
p3007
S'been unveiled'
p3008
sS'prob'
p3009
F1.0
ssS'<subj> look'
p3010
(dp3011
S'type'
p3012
S'subj'
p3013
sS'freq'
p3014
I4
sS'subj_freq'
p3015
I4
sS'display'
p3016
S'look'
p3017
sS'prob'
p3018
F1.0
ssS'<subj> places India'
p3019
(dp3020
g809
I4
sg810
I4
sg811
g812
sg813
S'places India'
p3021
sg815
F1.0
ssS'exhibits <dobj>'
p3022
(dp3023
g1388
S'dobj'
p3024
sg1390
I1
sg1391
I1
sg1392
S'exhibits'
p3025
sg1394
F1.0
ssS'<subj> make'
p3026
(dp3027
g1285
I43
sg1286
I43
sg1287
g1294
sg1289
S'make'
p3028
sg1291
F1.0
ssS'state <dobj>'
p3029
(dp3030
S'subj_freq'
p3031
I23
sS'freq'
p3032
I23
sS'type'
p3033
S'dobj'
p3034
sS'display'
p3035
S'state'
p3036
sS'prob'
p3037
F1.0
ssS'<subj> be spotted'
p3038
(dp3039
S'subj_freq'
p3040
I2
sS'freq'
p3041
I2
sS'type'
p3042
S'subj'
p3043
sS'display'
p3044
S'be spotted'
p3045
sS'prob'
p3046
F1.0
ssS'cheat <dobj>'
p3047
(dp3048
g57
g58
sg59
I18
sg60
I18
sg61
S'cheat'
p3049
sg63
F1.0
ssS'to build <dobj>'
p3050
(dp3051
g475
I7
sg476
I7
sg477
g478
sg479
S'to build'
p3052
sg481
F1.0
ssS'<subj> find discord'
p3053
(dp3054
g1126
g1127
sg1128
I7
sg1129
I7
sg1130
S'find discord'
p3055
sg1132
F1.0
ssS'blessings with <np>'
p3056
(dp3057
S'type'
p3058
S'np'
p3059
sS'freq'
p3060
I1
sS'subj_freq'
p3061
I1
sS'display'
p3062
S'blessings with'
p3063
sS'prob'
p3064
F1.0
ssS'devoted <dobj>'
p3065
(dp3066
g656
g2049
sg658
I9
sg659
I9
sg660
S'devoted'
p3067
sg662
F1.0
ssS'<subj> announce winner'
p3068
(dp3069
S'subj_freq'
p3070
I2
sS'freq'
p3071
I2
sS'type'
p3072
S'subj'
p3073
sS'display'
p3074
S'announce winner'
p3075
sS'prob'
p3076
F1.0
ssS'appears <dobj>'
p3077
(dp3078
g1677
g2428
sg1679
I22
sg1680
I22
sg1681
S'appears'
p3079
sg1683
F1.0
ssS'received <dobj>'
p3080
(dp3081
S'type'
p3082
S'dobj'
p3083
sS'freq'
p3084
I2
sS'subj_freq'
p3085
I2
sS'display'
p3086
S'received'
p3087
sS'prob'
p3088
F1.0
ssS'portraying <dobj>'
p3089
(dp3090
g1741
I0
sg1742
I1
sg1743
S'dobj'
p3091
sg1745
S'portraying'
p3092
sg1747
F0.0
ssS'provides <dobj>'
p3093
(dp3094
g432
I2
sg433
I2
sg434
S'dobj'
p3095
sg436
S'provides'
p3096
sg438
F1.0
ssS'role in <np>'
p3097
(dp3098
S'type'
p3099
S'np'
p3100
sS'freq'
p3101
I1
sS'subj_freq'
p3102
I1
sS'display'
p3103
S'role in'
p3104
sS'prob'
p3105
F1.0
ssS'<subj> watching show'
p3106
(dp3107
S'subj_freq'
p3108
I2
sS'freq'
p3109
I2
sS'type'
p3110
S'subj'
p3111
sS'display'
p3112
S'watching show'
p3113
sS'prob'
p3114
F1.0
ssS'required <dobj>'
p3115
(dp3116
g453
g454
sg455
I7
sg456
I7
sg457
S'required'
p3117
sg459
F1.0
ssS'to define <dobj>'
p3118
(dp3119
g800
I7
sg801
I7
sg802
g2773
sg804
S'to define'
p3120
sg806
F1.0
ssS'<subj> focused Ted'
p3121
(dp3122
g705
I7
sg706
I7
sg707
g708
sg709
S'focused Ted'
p3123
sg711
F1.0
ssS'listening <dobj>'
p3124
(dp3125
g1632
g2630
sg1634
I21
sg1635
I21
sg1636
S'listening'
p3126
sg1638
F1.0
ssS'<subj> excited'
p3127
(dp3128
g272
g273
sg274
I21
sg275
I21
sg276
S'excited'
p3129
sg278
F1.0
ssS'styles of <np>'
p3130
(dp3131
S'subj_freq'
p3132
I0
sS'freq'
p3133
I1
sS'type'
p3134
S'np'
p3135
sS'display'
p3136
S'styles of'
p3137
sS'prob'
p3138
F0.0
ssS'<subj> being built'
p3139
(dp3140
S'type'
p3141
S'subj'
p3142
sS'freq'
p3143
I1
sS'subj_freq'
p3144
I1
sS'display'
p3145
S'being built'
p3146
sS'prob'
p3147
F1.0
ssS'explain <dobj>'
p3148
(dp3149
g2858
g2859
sg2860
I7
sg2861
I7
sg2862
S'explain'
p3150
sg2864
F1.0
ssS'<subj> are considered'
p3151
(dp3152
S'subj_freq'
p3153
I1
sS'freq'
p3154
I1
sS'type'
p3155
S'subj'
p3156
sS'display'
p3157
S'are considered'
p3158
sS'prob'
p3159
F1.0
ssS'<subj> find'
p3160
(dp3161
g155
g156
sg157
I20
sg158
I20
sg159
S'find'
p3162
sg161
F1.0
ssS'given <dobj>'
p3163
(dp3164
g788
I10
sg789
I10
sg790
S'dobj'
p3165
sg792
S'given'
p3166
sg794
F1.0
ssS'to spot <dobj>'
p3167
(dp3168
S'type'
p3169
S'dobj'
p3170
sS'freq'
p3171
I1
sS'subj_freq'
p3172
I1
sS'display'
p3173
S'to spot'
p3174
sS'prob'
p3175
F1.0
ssS'<subj> please'
p3176
(dp3177
S'subj_freq'
p3178
I6
sS'freq'
p3179
I6
sS'type'
p3180
S'subj'
p3181
sS'display'
p3182
S'please'
p3183
sS'prob'
p3184
F1.0
ssS'<subj> belongs to do'
p3185
(dp3186
g173
I7
sg174
I7
sg175
g176
sg177
S'belongs to do'
p3187
sg179
F1.0
ssS'used <dobj>'
p3188
(dp3189
g501
g502
sg503
I9
sg504
I7
sg505
S'used'
p3190
sg507
F0.7777777777777778
ssS'<subj> visiting'
p3191
(dp3192
S'subj_freq'
p3193
I6
sS'freq'
p3194
I6
sS'type'
p3195
S'subj'
p3196
sS'display'
p3197
S'visiting'
p3198
sS'prob'
p3199
F1.0
ssS'<subj> helps people'
p3200
(dp3201
g589
g590
sg591
I9
sg592
I9
sg593
S'helps people'
p3202
sg595
F1.0
ssS'<subj> has been unveiled'
p3203
(dp3204
g3003
g3004
sg3005
I1
sg3006
I1
sg3007
S'has been unveiled'
p3205
sg3009
F1.0
ssS'taken <dobj>'
p3206
(dp3207
g2457
S'dobj'
p3208
sg2459
I1
sg2460
I1
sg2461
S'taken'
p3209
sg2463
F1.0
ssS'<subj> are built'
p3210
(dp3211
g3132
I0
sg3133
I1
sg3134
S'subj'
p3212
sg3136
S'are built'
p3213
sg3138
F0.0
ssS'<subj> capture'
p3214
(dp3215
g1443
S'subj'
p3216
sg1445
I4
sg1446
I4
sg1447
S'capture'
p3217
sg1449
F1.0
ssS'<subj> fly year'
p3218
(dp3219
S'type'
p3220
S'subj'
p3221
sS'freq'
p3222
I2
sS'subj_freq'
p3223
I2
sS'display'
p3224
S'fly year'
p3225
sS'prob'
p3226
F1.0
ssS'to stay <dobj>'
p3227
(dp3228
g519
I2
sg520
I2
sg521
g522
sg523
S'to stay'
p3229
sg525
F1.0
ssS'<subj> brings'
p3230
(dp3231
S'type'
p3232
S'subj'
p3233
sS'freq'
p3234
I1
sS'subj_freq'
p3235
I1
sS'display'
p3236
S'brings'
p3237
sS'prob'
p3238
F1.0
ssS'<subj> was reached'
p3239
(dp3240
g2002
I25
sg2003
I25
sg2004
g2987
sg2006
S'was reached'
p3241
sg2008
F1.0
ssS'deserves <dobj>'
p3242
(dp3243
g218
I8
sg219
I8
sg220
g221
sg222
S'deserves'
p3244
sg224
F1.0
ssS'buy <dobj>'
p3245
(dp3246
g48
I7
sg49
I7
sg50
S'dobj'
p3247
sg52
S'buy'
p3248
sg54
F1.0
ssS'<subj> probing'
p3249
(dp3250
g88
I42
sg89
I42
sg90
g1184
sg92
S'probing'
p3251
sg94
F1.0
ssS'<subj> have years'
p3252
(dp3253
g959
I6
sg960
I6
sg961
g962
sg963
S'have years'
p3254
sg965
F1.0
ssS'suppose <dobj>'
p3255
(dp3256
g2126
S'dobj'
p3257
sg2128
I7
sg2129
I7
sg2130
S'suppose'
p3258
sg2132
F1.0
ssS'<subj> varied'
p3259
(dp3260
g1702
I3
sg1703
I3
sg1704
g1705
sg1706
S'varied'
p3261
sg1708
F1.0
ssS'exercise <dobj>'
p3262
(dp3263
g950
I9
sg951
I9
sg952
g953
sg954
S'exercise'
p3264
sg956
F1.0
ssS'<subj> decides'
p3265
(dp3266
g1095
I9
sg1096
I9
sg1097
g1098
sg1099
S'decides'
p3267
sg1101
F1.0
ssS'told <dobj>'
p3268
(dp3269
g892
S'dobj'
p3270
sg894
I19
sg895
I19
sg896
S'told'
p3271
sg898
F1.0
ssS'incurred <dobj>'
p3272
(dp3273
g2875
I0
sg2876
I2
sg2877
S'dobj'
p3274
sg2879
S'incurred'
p3275
sg2881
F0.0
ssS'promise for <np>'
p3276
(dp3277
S'type'
p3278
S'np'
p3279
sS'freq'
p3280
I21
sS'subj_freq'
p3281
I21
sS'display'
p3282
S'promise for'
p3283
sS'prob'
p3284
F1.0
ssV<subj> have to is
p3285
(dp3286
g375
I2
sg376
I2
sg377
g378
sg379
Vhave to is
p3287
sg381
F1.0
ssS'<subj> walking Cuba'
p3288
(dp3289
g1038
I4
sg1039
I4
sg1040
S'subj'
p3290
sg1042
S'walking Cuba'
p3291
sg1044
F1.0
ssS'exploring <dobj>'
p3292
(dp3293
S'type'
p3294
S'dobj'
p3295
sS'freq'
p3296
I1
sS'subj_freq'
p3297
I1
sS'display'
p3298
S'exploring'
p3299
sS'prob'
p3300
F1.0
ssS'done to reduced <dobj>'
p3301
(dp3302
g1011
S'dobj'
p3303
sg1013
I3
sg1014
I3
sg1015
S'done to reduced'
p3304
sg1017
F1.0
ssS'<subj> creating structures'
p3305
(dp3306
g2057
g2058
sg2059
I9
sg2060
I9
sg2061
S'creating structures'
p3307
sg2063
F1.0
ssS'<subj> be explored'
p3308
(dp3309
g39
g484
sg41
I9
sg42
I9
sg43
S'be explored'
p3310
sg45
F1.0
ssS'needed to teach <dobj>'
p3311
(dp3312
g510
I21
sg511
I21
sg512
g2683
sg514
S'needed to teach'
p3313
sg516
F1.0
ssS'reduced <dobj>'
p3314
(dp3315
g1011
g3303
sg1013
I3
sg1014
I3
sg1015
S'reduced'
p3316
sg1017
F1.0
ssS'<subj> see lot'
p3317
(dp3318
g317
g318
sg319
I21
sg320
I21
sg321
S'see lot'
p3319
sg323
F1.0
ssS'<subj> originated'
p3320
(dp3321
g3
I1
sg4
I1
sg5
g6
sg7
S'originated'
p3322
sg9
F1.0
ssS'<subj> participating'
p3323
(dp3324
g1921
S'subj'
p3325
sg1923
I2
sg1924
I2
sg1925
S'participating'
p3326
sg1927
F1.0
ssS'<subj> explains'
p3327
(dp3328
g88
I42
sg89
I42
sg90
g1184
sg92
S'explains'
p3329
sg94
F1.0
ssS'<subj> distinguished'
p3330
(dp3331
g1939
g2238
sg1941
I2
sg1942
I2
sg1943
S'distinguished'
p3332
sg1945
F1.0
ssS'<subj> bless'
p3333
(dp3334
g396
I9
sg397
I9
sg398
S'subj'
p3335
sg400
S'bless'
p3336
sg402
F1.0
ssS'attached <dobj>'
p3337
(dp3338
g2380
I6
sg2381
I6
sg2382
S'dobj'
p3339
sg2384
S'attached'
p3340
sg2386
F1.0
ssS'<subj> open'
p3341
(dp3342
g1434
I4
sg1435
I4
sg1436
g2366
sg1438
S'open'
p3343
sg1440
F1.0
ssS'<subj> is classified'
p3344
(dp3345
S'type'
p3346
S'subj'
p3347
sS'freq'
p3348
I1
sS'subj_freq'
p3349
I0
sS'display'
p3350
S'is classified'
p3351
sS'prob'
p3352
F0.0
ssS'saw education by <np>'
p3353
(dp3354
g1803
I7
sg1804
I7
sg1805
S'np'
p3355
sg1807
S'saw education by'
p3356
sg1809
F1.0
ssS'<subj> was knew'
p3357
(dp3358
g200
I7
sg201
I7
sg202
g203
sg204
S'was knew'
p3359
sg206
F1.0
ssS'<subj> ensure'
p3360
(dp3361
g1285
I20
sg1286
I20
sg1287
g1294
sg1289
S'ensure'
p3362
sg1291
F1.0
ssS'<subj> brings faith'
p3363
(dp3364
g3232
g3233
sg3234
I1
sg3235
I1
sg3236
S'brings faith'
p3365
sg3238
F1.0
ssS'wants <dobj>'
p3366
(dp3367
g1794
I7
sg1795
I7
sg1796
S'dobj'
p3368
sg1798
S'wants'
p3369
sg1800
F1.0
ssS'learn <dobj>'
p3370
(dp3371
g678
I9
sg679
I9
sg680
S'dobj'
p3372
sg682
S'learn'
p3373
sg684
F1.0
ssS'sun at <np>'
p3374
(dp3375
g919
I1
sg920
I1
sg921
S'np'
p3376
sg923
S'sun at'
p3377
sg925
F1.0
ssS'preserving <dobj>'
p3378
(dp3379
g2407
S'dobj'
p3380
sg2409
I2
sg2410
I2
sg2411
S'preserving'
p3381
sg2413
F1.0
ssS'evaluate <dobj>'
p3382
(dp3383
g3070
I2
sg3071
I2
sg3072
S'dobj'
p3384
sg3074
S'evaluate'
p3385
sg3076
F1.0
ssS'<subj> realize'
p3386
(dp3387
g1038
I4
sg1039
I4
sg1040
g3290
sg1042
S'realize'
p3388
sg1044
F1.0
ssS'<subj> do concept'
p3389
(dp3390
g1141
I23
sg1142
I23
sg1143
g1144
sg1145
S'do concept'
p3391
sg1147
F1.0
ssS'surprised <dobj>'
p3392
(dp3393
g3
I1
sg4
I1
sg5
g2595
sg7
S'surprised'
p3394
sg9
F1.0
ssS'<subj> connected'
p3395
(dp3396
g97
g1329
sg99
I25
sg100
I25
sg101
S'connected'
p3397
sg103
F1.0
ssS'<subj> feel'
p3398
(dp3399
g2002
I40
sg2003
I40
sg2004
g2987
sg2006
S'feel'
p3400
sg2008
F1.0
ssS'agree <dobj>'
p3401
(dp3402
g1086
I1
sg1087
I1
sg1088
S'dobj'
p3403
sg1090
S'agree'
p3404
sg1092
F1.0
ssS'<subj> has be solving'
p3405
(dp3406
g607
g608
sg609
I21
sg610
I21
sg611
S'has be solving'
p3407
sg613
F1.0
ssS'<subj> is attached'
p3408
(dp3409
g2380
I6
sg2381
I6
sg2382
g2383
sg2384
S'is attached'
p3410
sg2386
F1.0
ssS'<subj> becoming'
p3411
(dp3412
S'type'
p3413
S'subj'
p3414
sS'freq'
p3415
I1
sS'subj_freq'
p3416
I1
sS'display'
p3417
S'becoming'
p3418
sS'prob'
p3419
F1.0
ssS'<subj> standing rows'
p3420
(dp3421
S'type'
p3422
S'subj'
p3423
sS'freq'
p3424
I2
sS'subj_freq'
p3425
I2
sS'display'
p3426
S'standing rows'
p3427
sS'prob'
p3428
F1.0
ssS'<subj> make friends'
p3429
(dp3430
S'subj_freq'
p3431
I1
sS'freq'
p3432
I1
sS'type'
p3433
S'subj'
p3434
sS'display'
p3435
S'make friends'
p3436
sS'prob'
p3437
F1.0
ssS'<subj> considered'
p3438
(dp3439
g723
I2
sg724
I2
sg725
S'subj'
p3440
sg727
S'considered'
p3441
sg729
F1.0
ssS'<subj> listening to stop'
p3442
(dp3443
g1632
g1633
sg1634
I21
sg1635
I21
sg1636
S'listening to stop'
p3444
sg1638
F1.0
ssS'<subj> think opportunity'
p3445
(dp3446
g1126
g1127
sg1128
I7
sg1129
I7
sg1130
S'think opportunity'
p3447
sg1132
F1.0
ssS'<subj> delighted'
p3448
(dp3449
g1872
I1
sg1873
I1
sg1874
g1875
sg1876
S'delighted'
p3450
sg1878
F1.0
ssS'passion by <np>'
p3451
(dp3452
g1632
S'np'
p3453
sg1634
I21
sg1635
I21
sg1636
S'passion by'
p3454
sg1638
F1.0
ssS"<subj> 're part"
p3455
(dp3456
g97
g1329
sg99
I21
sg100
I21
sg101
S"'re part"
p3457
sg103
F1.0
ssS'think to think <dobj>'
p3458
(dp3459
g950
I9
sg951
I9
sg952
g953
sg954
S'think to think'
p3460
sg956
F1.0
ssS'celebrated <dobj>'
p3461
(dp3462
g2956
I7
sg2957
I7
sg2958
S'dobj'
p3463
sg2960
S'celebrated'
p3464
sg2962
F1.0
ssS'<subj> have canvas'
p3465
(dp3466
g1239
I1
sg1240
I1
sg1241
g2643
sg1243
S'have canvas'
p3467
sg1245
F1.0
ssS'start <dobj>'
p3468
(dp3469
S'subj_freq'
p3470
I7
sS'freq'
p3471
I7
sS'type'
p3472
S'dobj'
p3473
sS'display'
p3474
S'start'
p3475
sS'prob'
p3476
F1.0
ssS'fly <dobj>'
p3477
(dp3478
g254
S'dobj'
p3479
sg256
I11
sg257
I11
sg258
S'fly'
p3480
sg260
F1.0
ssS'<subj> governing'
p3481
(dp3482
g263
g264
sg265
I21
sg266
I21
sg267
S'governing'
p3483
sg269
F1.0
ssS'creating <dobj>'
p3484
(dp3485
g2057
S'dobj'
p3486
sg2059
I13
sg2060
I13
sg2061
S'creating'
p3487
sg2063
F1.0
ssS'<subj> prevent terrorism'
p3488
(dp3489
g901
I21
sg902
I21
sg903
g2169
sg905
S'prevent terrorism'
p3490
sg907
F1.0
ssS'inaugurated <dobj>'
p3491
(dp3492
g1542
I3
sg1543
I6
sg1544
S'dobj'
p3493
sg1546
S'inaugurated'
p3494
sg1548
F0.5
ssS'<subj> have reason'
p3495
(dp3496
g959
I6
sg960
I6
sg961
g962
sg963
S'have reason'
p3497
sg965
F1.0
ssS'<subj> hit'
p3498
(dp3499
g1781
I21
sg1782
I21
sg1783
g2556
sg1785
S'hit'
p3500
sg1787
F1.0
ssS'<subj> take dancers'
p3501
(dp3502
S'subj_freq'
p3503
I1
sS'freq'
p3504
I1
sS'type'
p3505
S'subj'
p3506
sS'display'
p3507
S'take dancers'
p3508
sS'prob'
p3509
F1.0
ssS'<subj> presents creation'
p3510
(dp3511
S'type'
p3512
S'subj'
p3513
sS'freq'
p3514
I1
sS'subj_freq'
p3515
I1
sS'display'
p3516
S'presents creation'
p3517
sS'prob'
p3518
F1.0
ssS'tapping <dobj>'
p3519
(dp3520
S'subj_freq'
p3521
I0
sS'freq'
p3522
I1
sS'type'
p3523
S'dobj'
p3524
sS'display'
p3525
S'tapping'
p3526
sS'prob'
p3527
F0.0
ssS'offers <dobj>'
p3528
(dp3529
S'type'
p3530
S'dobj'
p3531
sS'freq'
p3532
I6
sS'subj_freq'
p3533
I5
sS'display'
p3534
S'offers'
p3535
sS'prob'
p3536
F0.8333333333333334
ssS'name from <np>'
p3537
(dp3538
g2875
I0
sg2876
I2
sg2877
S'np'
p3539
sg2879
S'name from'
p3540
sg2881
F0.0
ssS'<subj> was hidden'
p3541
(dp3542
g1038
I4
sg1039
I4
sg1040
g3290
sg1042
S'was hidden'
p3543
sg1044
F1.0
ssS'enchant <dobj>'
p3544
(dp3545
S'subj_freq'
p3546
I1
sS'freq'
p3547
I1
sS'type'
p3548
S'dobj'
p3549
sS'display'
p3550
S'enchant'
p3551
sS'prob'
p3552
F1.0
ssS'<subj> designed'
p3553
(dp3554
S'subj_freq'
p3555
I2
sS'freq'
p3556
I2
sS'type'
p3557
S'subj'
p3558
sS'display'
p3559
S'designed'
p3560
sS'prob'
p3561
F1.0
ssS'<subj> helps'
p3562
(dp3563
g589
g590
sg591
I11
sg592
I11
sg593
S'helps'
p3564
sg595
F1.0
ssS'<subj> send'
p3565
(dp3566
g1200
g1201
sg1202
I1
sg1203
I1
sg1204
S'send'
p3567
sg1206
F1.0
ssS'<subj> stand'
p3568
(dp3569
g348
I22
sg349
I22
sg350
S'subj'
p3570
sg352
S'stand'
p3571
sg354
F1.0
ssS'<subj> giving'
p3572
(dp3573
g3169
S'subj'
p3574
sg3171
I2
sg3172
I2
sg3173
S'giving'
p3575
sg3175
F1.0
ssS'<subj> thinks'
p3576
(dp3577
g57
g1573
sg59
I9
sg60
I9
sg61
S'thinks'
p3578
sg63
F1.0
ssS'<subj> have problem'
p3579
(dp3580
g414
g415
sg416
I4
sg417
I4
sg418
S'have problem'
p3581
sg420
F1.0
ssS'<subj> making senses'
p3582
(dp3583
g2380
I6
sg2381
I6
sg2382
g2383
sg2384
S'making senses'
p3584
sg2386
F1.0
ssS'<subj> explain'
p3585
(dp3586
g2858
S'subj'
p3587
sg2860
I7
sg2861
I7
sg2862
S'explain'
p3588
sg2864
F1.0
ssS'<subj> according classes'
p3589
(dp3590
g453
g652
sg455
I7
sg456
I7
sg457
S'according classes'
p3591
sg459
F1.0
ssS'returned <dobj>'
p3592
(dp3593
g366
I1
sg367
I1
sg368
g2614
sg370
S'returned'
p3594
sg372
F1.0
ssS'<subj> was designed'
p3595
(dp3596
g748
I1
sg749
I1
sg750
g751
sg752
S'was designed'
p3597
sg754
F1.0
ssS'<subj> attached'
p3598
(dp3599
g2380
I6
sg2381
I6
sg2382
g2383
sg2384
S'attached'
p3600
sg2386
F1.0
ssS'<subj> enjoy beauty'
p3601
(dp3602
S'type'
p3603
S'subj'
p3604
sS'freq'
p3605
I2
sS'subj_freq'
p3606
I2
sS'display'
p3607
S'enjoy beauty'
p3608
sS'prob'
p3609
F1.0
ssS'<subj> be attributed'
p3610
(dp3611
g598
I7
sg599
I7
sg600
g601
sg602
S'be attributed'
p3612
sg604
F1.0
ssS'visit <dobj>'
p3613
(dp3614
g1824
S'dobj'
p3615
sg1826
I9
sg1827
I9
sg1828
S'visit'
p3616
sg1830
F1.0
ssS'<subj> analyze'
p3617
(dp3618
g1285
I19
sg1286
I19
sg1287
g1294
sg1289
S'analyze'
p3619
sg1291
F1.0
ssS'<subj> guess'
p3620
(dp3621
S'type'
p3622
S'subj'
p3623
sS'freq'
p3624
I4
sS'subj_freq'
p3625
I3
sS'display'
p3626
S'guess'
p3627
sS'prob'
p3628
F0.75
ssS'<subj> awaiting'
p3629
(dp3630
g444
S'subj'
p3631
sg446
I1
sg447
I1
sg448
S'awaiting'
p3632
sg450
F1.0
ssV<subj> watched
p3633
(dp3634
g375
I2
sg376
I2
sg377
g378
sg379
Vwatched
p3635
sg381
F1.0
ssS'<subj> shining'
p3636
(dp3637
g137
I1
sg138
I1
sg139
g854
sg141
S'shining'
p3638
sg143
F1.0
ssS'<subj> reduced'
p3639
(dp3640
g1011
g1012
sg1013
I3
sg1014
I3
sg1015
S'reduced'
p3641
sg1017
F1.0
ssS'yard at <np>'
p3642
(dp3643
g3141
S'np'
p3644
sg3143
I1
sg3144
I1
sg3145
S'yard at'
p3645
sg3147
F1.0
ssS'becoming <dobj>'
p3646
(dp3647
g3413
S'dobj'
p3648
sg3415
I1
sg3416
I1
sg3417
S'becoming'
p3649
sg3419
F1.0
ssS'<subj> exhibits works'
p3650
(dp3651
g1388
g1389
sg1390
I1
sg1391
I1
sg1392
S'exhibits works'
p3652
sg1394
F1.0
ssS'<subj> hidden sort'
p3653
(dp3654
g1038
I4
sg1039
I4
sg1040
g3290
sg1042
S'hidden sort'
p3655
sg1044
F1.0
ssS'relax <dobj>'
p3656
(dp3657
g1815
S'dobj'
p3658
sg1817
I2
sg1818
I2
sg1819
S'relax'
p3659
sg1821
F1.0
ssS'<subj> tapping'
p3660
(dp3661
g3521
I0
sg3522
I1
sg3523
S'subj'
p3662
sg3525
S'tapping'
p3663
sg3527
F0.0
ssS'wish <dobj>'
p3664
(dp3665
S'type'
p3666
S'dobj'
p3667
sS'freq'
p3668
I32
sS'subj_freq'
p3669
I32
sS'display'
p3670
S'wish'
p3671
sS'prob'
p3672
F1.0
ssS'<subj> wish'
p3673
(dp3674
g3666
S'subj'
p3675
sg3668
I32
sg3669
I32
sg3670
S'wish'
p3676
sg3672
F1.0
ssS'<subj> displaying'
p3677
(dp3678
g736
I2
sg737
I2
sg738
g1689
sg740
S'displaying'
p3679
sg742
F1.0
ssS'<subj> start b'
p3680
(dp3681
g3470
I6
sg3471
I6
sg3472
S'subj'
p3682
sg3474
S'start b'
p3683
sg3476
F1.0
ssS'<subj> need to told'
p3684
(dp3685
g892
g893
sg894
I19
sg895
I19
sg896
S'need to told'
p3686
sg898
F1.0
ssS'preserve <dobj>'
p3687
(dp3688
g1977
I21
sg1978
I21
sg1979
S'dobj'
p3689
sg1981
S'preserve'
p3690
sg1983
F1.0
ssS'<subj> have luxury'
p3691
(dp3692
S'subj_freq'
p3693
I4
sS'freq'
p3694
I4
sS'type'
p3695
S'subj'
p3696
sS'display'
p3697
S'have luxury'
p3698
sS'prob'
p3699
F1.0
ssS'seeing <dobj>'
p3700
(dp3701
g1126
S'dobj'
p3702
sg1128
I7
sg1129
I7
sg1130
S'seeing'
p3703
sg1132
F1.0
ssS'<subj> having'
p3704
(dp3705
g2482
I8
sg2483
I8
sg2484
S'subj'
p3706
sg2486
S'having'
p3707
sg2488
F1.0
ssS'<subj> according studies'
p3708
(dp3709
g453
g652
sg455
I7
sg456
I7
sg457
S'according studies'
p3710
sg459
F1.0
ssS'construct <dobj>'
p3711
(dp3712
g2323
S'dobj'
p3713
sg2325
I21
sg2326
I0
sg2327
S'construct'
p3714
sg2329
F0.0
ssS'<subj> saw'
p3715
(dp3716
g1803
I7
sg1804
I7
sg1805
g1806
sg1807
S'saw'
p3717
sg1809
F1.0
ssS'<subj> are celebrated'
p3718
(dp3719
g2969
I1
sg2970
I1
sg2971
g2972
sg2973
S'are celebrated'
p3720
sg2975
F1.0
ssS'legacy with <np>'
p3721
(dp3722
g3693
I4
sg3694
I4
sg3695
S'np'
p3723
sg3697
S'legacy with'
p3724
sg3699
F1.0
ssS'seem <dobj>'
p3725
(dp3726
S'type'
p3727
S'dobj'
p3728
sS'freq'
p3729
I8
sS'subj_freq'
p3730
I8
sS'display'
p3731
S'seem'
p3732
sS'prob'
p3733
F1.0
ssS'delighted <dobj>'
p3734
(dp3735
g1872
I1
sg1873
I1
sg1874
S'dobj'
p3736
sg1876
S'delighted'
p3737
sg1878
F1.0
ssS'grown <dobj>'
p3738
(dp3739
g2095
I1
sg2096
I1
sg2097
S'dobj'
p3740
sg2099
S'grown'
p3741
sg2101
F1.0
ssS'added <dobj>'
p3742
(dp3743
g128
S'dobj'
p3744
sg130
I6
sg131
I5
sg132
S'added'
p3745
sg134
F0.8333333333333334
ssS'<subj> added memories'
p3746
(dp3747
S'type'
p3748
S'subj'
p3749
sS'freq'
p3750
I1
sS'subj_freq'
p3751
I0
sS'display'
p3752
S'added memories'
p3753
sS'prob'
p3754
F0.0
ssS'<subj> say'
p3755
(dp3756
g1989
I68
sg1990
I68
sg1991
g1992
sg1993
S'say'
p3757
sg1995
F1.0
ssS'<subj> is shown'
p3758
(dp3759
g1989
I21
sg1990
I21
sg1991
g1992
sg1993
S'is shown'
p3760
sg1995
F1.0
ssS'witnessed <dobj>'
p3761
(dp3762
g57
g58
sg59
I9
sg60
I9
sg61
S'witnessed'
p3763
sg63
F1.0
ssS'sites from <np>'
p3764
(dp3765
g3622
S'np'
p3766
sg3624
I2
sg3625
I2
sg3626
S'sites from'
p3767
sg3628
F1.0
ssS'<subj> find scene'
p3768
(dp3769
g3422
g3423
sg3424
I2
sg3425
I2
sg3426
S'find scene'
p3770
sg3428
F1.0
ssS'pays <dobj>'
p3771
(dp3772
g128
g3744
sg130
I4
sg131
I4
sg132
S'pays'
p3773
sg134
F1.0
ssS'<subj> had sort'
p3774
(dp3775
g1038
I4
sg1039
I4
sg1040
g3290
sg1042
S'had sort'
p3776
sg1044
F1.0
ssS'<subj> presents'
p3777
(dp3778
S'subj_freq'
p3779
I3
sS'freq'
p3780
I3
sS'type'
p3781
S'subj'
p3782
sS'display'
p3783
S'presents'
p3784
sS'prob'
p3785
F1.0
ssS'<subj> is written'
p3786
(dp3787
g2380
I6
sg2381
I6
sg2382
g2383
sg2384
S'is written'
p3788
sg2386
F1.0
ssS'<subj> want'
p3789
(dp3790
g1693
g1694
sg1695
I49
sg1696
I49
sg1697
S'want'
p3791
sg1699
F1.0
ssS'<subj> announce'
p3792
(dp3793
g3070
I2
sg3071
I2
sg3072
g3073
sg3074
S'announce'
p3794
sg3076
F1.0
ssS'is located at <np>'
p3795
(dp3796
g1846
S'np'
p3797
sg1848
I2
sg1849
I2
sg1850
S'is located at'
p3798
sg1852
F1.0
ssS'guess <dobj>'
p3799
(dp3800
g3622
S'dobj'
p3801
sg3624
I4
sg3625
I3
sg3626
S'guess'
p3802
sg3628
F0.75
ssS'<subj> learned'
p3803
(dp3804
g589
g590
sg591
I13
sg592
I13
sg593
S'learned'
p3805
sg595
F1.0
ssS'realize <dobj>'
p3806
(dp3807
g1038
I4
sg1039
I4
sg1040
g1041
sg1042
S'realize'
p3808
sg1044
F1.0
ssS'feel <dobj>'
p3809
(dp3810
g2002
I40
sg2003
I40
sg2004
g2005
sg2006
S'feel'
p3811
sg2008
F1.0
ssS'<subj> spot'
p3812
(dp3813
g3169
g3574
sg3171
I1
sg3172
I1
sg3173
S'spot'
p3814
sg3175
F1.0
ssS'<subj> agree'
p3815
(dp3816
g1086
I1
sg1087
I1
sg1088
S'subj'
p3817
sg1090
S'agree'
p3818
sg1092
F1.0
ssS'<subj> struck'
p3819
(dp3820
S'type'
p3821
S'subj'
p3822
sS'freq'
p3823
I21
sS'subj_freq'
p3824
I21
sS'display'
p3825
S'struck'
p3826
sS'prob'
p3827
F1.0
ssV<subj> blown
p3828
(dp3829
g375
I2
sg376
I2
sg377
g378
sg379
Vblown
p3830
sg381
F1.0
ssS'explained <dobj>'
p3831
(dp3832
g254
g3479
sg256
I9
sg257
I9
sg258
S'explained'
p3833
sg260
F1.0
ssS'<subj> places'
p3834
(dp3835
g809
I4
sg810
I4
sg811
g812
sg813
S'places'
p3836
sg815
F1.0
ssS'<subj> carved stone'
p3837
(dp3838
S'type'
p3839
S'subj'
p3840
sS'freq'
p3841
I1
sS'subj_freq'
p3842
I0
sS'display'
p3843
S'carved stone'
p3844
sS'prob'
p3845
F0.0
ssS'flying <dobj>'
p3846
(dp3847
S'subj_freq'
p3848
I1
sS'freq'
p3849
I1
sS'type'
p3850
S'dobj'
p3851
sS'display'
p3852
S'flying'
p3853
sS'prob'
p3854
F1.0
ssS'<subj> stay food'
p3855
(dp3856
S'subj_freq'
p3857
I1
sS'freq'
p3858
I1
sS'type'
p3859
S'subj'
p3860
sS'display'
p3861
S'stay food'
p3862
sS'prob'
p3863
F1.0
ssS'<subj> amazed Festival'
p3864
(dp3865
g330
I2
sg331
I2
sg332
g333
sg334
S'amazed Festival'
p3866
sg336
F1.0
ssS'need to told <dobj>'
p3867
(dp3868
g892
g3270
sg894
I19
sg895
I19
sg896
S'need to told'
p3869
sg898
F1.0
ssS'built <dobj>'
p3870
(dp3871
g836
S'dobj'
p3872
sg838
I4
sg839
I1
sg840
S'built'
p3873
sg842
F0.25
ssS'led <dobj>'
p3874
(dp3875
g818
g1790
sg820
I9
sg821
I9
sg822
S'led'
p3876
sg824
F1.0
ssS'to need <dobj>'
p3877
(dp3878
S'type'
p3879
S'dobj'
p3880
sS'freq'
p3881
I1
sS'subj_freq'
p3882
I1
sS'display'
p3883
S'to need'
p3884
sS'prob'
p3885
F1.0
ssS'<subj> involves'
p3886
(dp3887
g1623
S'subj'
p3888
sg1625
I3
sg1626
I3
sg1627
S'involves'
p3889
sg1629
F1.0
ssS'<subj> need to remember'
p3890
(dp3891
g2820
I6
sg2821
I6
sg2822
S'subj'
p3892
sg2824
S'need to remember'
p3893
sg2826
F1.0
ssS'left <dobj>'
p3894
(dp3895
g2156
I11
sg2157
I11
sg2158
S'dobj'
p3896
sg2160
S'left'
p3897
sg2162
F1.0
ssS'<subj> is gave'
p3898
(dp3899
g1126
g1127
sg1128
I7
sg1129
I7
sg1130
S'is gave'
p3900
sg1132
F1.0
ssS'decides <dobj>'
p3901
(dp3902
g1095
I9
sg1096
I9
sg1097
S'dobj'
p3903
sg1099
S'decides'
p3904
sg1101
F1.0
ssS'<subj> enter'
p3905
(dp3906
g488
I4
sg489
I4
sg490
S'subj'
p3907
sg492
S'enter'
p3908
sg494
F1.0
ssS'<subj> changing'
p3909
(dp3910
g39
g484
sg41
I10
sg42
I10
sg43
S'changing'
p3911
sg45
F1.0
ssS'<subj> stop'
p3912
(dp3913
g1632
g1633
sg1634
I21
sg1635
I21
sg1636
S'stop'
p3914
sg1638
F1.0
ssS'<subj> done'
p3915
(dp3916
g1529
g1530
sg1531
I11
sg1532
I11
sg1533
S'done'
p3917
sg1535
F1.0
ssS'spot <dobj>'
p3918
(dp3919
g3169
g3170
sg3171
I1
sg3172
I1
sg3173
S'spot'
p3920
sg3175
F1.0
ssS'to remind <dobj>'
p3921
(dp3922
g1912
I4
sg1913
I4
sg1914
S'dobj'
p3923
sg1916
S'to remind'
p3924
sg1918
F1.0
ssS'<subj> please details'
p3925
(dp3926
g3178
I2
sg3179
I2
sg3180
g3181
sg3182
S'please details'
p3927
sg3184
F1.0
ssS'<subj> wanted'
p3928
(dp3929
g1753
g2370
sg1755
I7
sg1756
I7
sg1757
S'wanted'
p3930
sg1759
F1.0
ssS'<subj> see things'
p3931
(dp3932
g348
I21
sg349
I21
sg350
g3570
sg352
S'see things'
p3933
sg354
F1.0
ssS'<subj> walking'
p3934
(dp3935
g1038
I4
sg1039
I4
sg1040
g3290
sg1042
S'walking'
p3936
sg1044
F1.0
ssS'connected <dobj>'
p3937
(dp3938
g97
g98
sg99
I25
sg100
I25
sg101
S'connected'
p3939
sg103
F1.0
ssS'<subj> please experience'
p3940
(dp3941
S'type'
p3942
S'subj'
p3943
sS'freq'
p3944
I2
sS'subj_freq'
p3945
I2
sS'display'
p3946
S'please experience'
p3947
sS'prob'
p3948
F1.0
ssS'<subj> are depressed'
p3949
(dp3950
g317
g318
sg319
I21
sg320
I21
sg321
S'are depressed'
p3951
sg323
F1.0
ssS'<subj> make fluctuations'
p3952
(dp3953
g1285
I19
sg1286
I19
sg1287
g1294
sg1289
S'make fluctuations'
p3954
sg1291
F1.0
ssS'fill <dobj>'
p3955
(dp3956
g30
S'dobj'
p3957
sg32
I2
sg33
I2
sg34
S'fill'
p3958
sg36
F1.0
ssS'<subj> getting proportion'
p3959
(dp3960
g1490
I7
sg1491
I7
sg1492
S'subj'
p3961
sg1494
S'getting proportion'
p3962
sg1496
F1.0
ssS'listening to stop <dobj>'
p3963
(dp3964
g1632
g2630
sg1634
I21
sg1635
I21
sg1636
S'listening to stop'
p3965
sg1638
F1.0
ssS'<subj> managing'
p3966
(dp3967
g2193
I4
sg2194
I4
sg2195
g2196
sg2197
S'managing'
p3968
sg2199
F1.0
ssS'to arrive <dobj>'
p3969
(dp3970
g2938
I7
sg2939
I7
sg2940
g2941
sg2942
S'to arrive'
p3971
sg2944
F1.0
ssS'<subj> win stand'
p3972
(dp3973
g1833
g1834
sg1835
I2
sg1836
I2
sg1837
S'win stand'
p3974
sg1839
F1.0
ssS'<subj> feel conclusion'
p3975
(dp3976
g2002
I25
sg2003
I25
sg2004
g2987
sg2006
S'feel conclusion'
p3977
sg2008
F1.0
ssS'<subj> classified'
p3978
(dp3979
g3346
g3347
sg3348
I1
sg3349
I0
sg3350
S'classified'
p3980
sg3352
F0.0
ssS'<subj> taking breeze'
p3981
(dp3982
g1499
S'subj'
p3983
sg1501
I2
sg1502
I2
sg1503
S'taking breeze'
p3984
sg1505
F1.0
ssS'<subj> returned'
p3985
(dp3986
g366
I1
sg367
I1
sg368
g369
sg370
S'returned'
p3987
sg372
F1.0
ssS'to enjoy <dobj>'
p3988
(dp3989
S'subj_freq'
p3990
I1
sS'freq'
p3991
I1
sS'type'
p3992
S'dobj'
p3993
sS'display'
p3994
S'to enjoy'
p3995
sS'prob'
p3996
F1.0
ssS'<subj> lost'
p3997
(dp3998
g1166
S'subj'
p3999
sg1168
I55
sg1169
I55
sg1170
S'lost'
p4000
sg1172
F1.0
ssS'<subj> has tourist'
p4001
(dp4002
g1434
I4
sg1435
I4
sg1436
g2366
sg1438
S'has tourist'
p4003
sg1440
F1.0
ssS'<subj> bathing'
p4004
(dp4005
g1375
g2475
sg1377
I1
sg1378
I0
sg1379
S'bathing'
p4006
sg1381
F0.0
ssS'carved <dobj>'
p4007
(dp4008
g3839
S'dobj'
p4009
sg3841
I1
sg3842
I0
sg3843
S'carved'
p4010
sg3845
F0.0
ssS'<subj> conserve'
p4011
(dp4012
g1654
I4
sg1655
I4
sg1656
S'subj'
p4013
sg1658
S'conserve'
p4014
sg1660
F1.0
ssS'<subj> depressed youngsters'
p4015
(dp4016
g317
g318
sg319
I21
sg320
I21
sg321
S'depressed youngsters'
p4017
sg323
F1.0
ssS'to ensure <dobj>'
p4018
(dp4019
g1285
I19
sg1286
I19
sg1287
g1288
sg1289
S'to ensure'
p4020
sg1291
F1.0
ssS'learning <dobj>'
p4021
(dp4022
g2748
S'dobj'
p4023
sg2750
I8
sg2751
I8
sg2752
S'learning'
p4024
sg2754
F1.0
ssS'<subj> restored time'
p4025
(dp4026
g2777
I2
sg2778
I2
sg2779
g2780
sg2781
S'restored time'
p4027
sg2783
F1.0
ssS'started <dobj>'
p4028
(dp4029
S'subj_freq'
p4030
I0
sS'freq'
p4031
I2
sS'type'
p4032
S'dobj'
p4033
sS'display'
p4034
S'started'
p4035
sS'prob'
p4036
F0.0
ssS'<subj> have are waste'
p4037
(dp4038
g959
I6
sg960
I6
sg961
g962
sg963
S'have are waste'
p4039
sg965
F1.0
ssS'<subj> cheat'
p4040
(dp4041
g57
g1573
sg59
I18
sg60
I18
sg61
S'cheat'
p4042
sg63
F1.0
ssS'deserves to fill <dobj>'
p4043
(dp4044
g218
I7
sg219
I7
sg220
g221
sg222
S'deserves to fill'
p4045
sg224
F1.0
ssS'bring <dobj>'
p4046
(dp4047
g1409
S'dobj'
p4048
sg1411
I3
sg1412
I3
sg1413
S'bring'
p4049
sg1415
F1.0
ssS'<subj> meets breadth'
p4050
(dp4051
g1846
S'subj'
p4052
sg1848
I2
sg1849
I2
sg1850
S'meets breadth'
p4053
sg1852
F1.0
ssS'<subj> sharing God'
p4054
(dp4055
g396
I7
sg397
I7
sg398
g3335
sg400
S'sharing God'
p4056
sg402
F1.0
ssS'<subj> learned to play'
p4057
(dp4058
g1038
I4
sg1039
I4
sg1040
g3290
sg1042
S'learned to play'
p4059
sg1044
F1.0
ssS'<subj> know crops'
p4060
(dp4061
g858
g859
sg860
I9
sg861
I9
sg862
S'know crops'
p4062
sg864
F1.0
ssS'<subj> unveiled'
p4063
(dp4064
g656
g657
sg658
I10
sg659
I10
sg660
S'unveiled'
p4065
sg662
F1.0
ssS'to see <dobj>'
p4066
(dp4067
g281
I50
sg282
I50
sg283
g674
sg285
S'to see'
p4068
sg287
F1.0
ssS'<subj> dedicated'
p4069
(dp4070
g696
I3
sg697
I3
sg698
g699
sg700
S'dedicated'
p4071
sg702
F1.0
ssS'leads <dobj>'
p4072
(dp4073
g625
g1577
sg627
I22
sg628
I21
sg629
S'leads'
p4074
sg631
F0.9545454545454546
ssS'<subj> apply'
p4075
(dp4076
g714
g715
sg716
I9
sg717
I9
sg718
S'apply'
p4077
sg720
F1.0
ssS'<subj> being'
p4078
(dp4079
g1594
I21
sg1595
I21
sg1596
S'subj'
p4080
sg1598
S'being'
p4081
sg1600
F1.0
ssS'<subj> want to hold'
p4082
(dp4083
g155
g156
sg157
I7
sg158
I7
sg159
S'want to hold'
p4084
sg161
F1.0
ssS'spent <dobj>'
p4085
(dp4086
g892
g3270
sg894
I19
sg895
I19
sg896
S'spent'
p4087
sg898
F1.0
ssS'kind with <np>'
p4088
(dp4089
g3555
I1
sg3556
I1
sg3557
S'np'
p4090
sg3559
S'kind with'
p4091
sg3561
F1.0
ssS'<subj> received'
p4092
(dp4093
g3082
S'subj'
p4094
sg3084
I2
sg3085
I2
sg3086
S'received'
p4095
sg3088
F1.0
ssS'<subj> describe'
p4096
(dp4097
S'type'
p4098
S'subj'
p4099
sS'freq'
p4100
I7
sS'subj_freq'
p4101
I7
sS'display'
p4102
S'describe'
p4103
sS'prob'
p4104
F1.0
ssS'<subj> evaluate'
p4105
(dp4106
g3070
I2
sg3071
I2
sg3072
g3073
sg3074
S'evaluate'
p4107
sg3076
F1.0
ssS'sending <dobj>'
p4108
(dp4109
g475
I7
sg476
I7
sg477
g478
sg479
S'sending'
p4110
sg481
F1.0
ssS'buds after <np>'
p4111
(dp4112
S'subj_freq'
p4113
I1
sS'freq'
p4114
I1
sS'type'
p4115
S'np'
p4116
sS'display'
p4117
S'buds after'
p4118
sS'prob'
p4119
F1.0
ssVposted <dobj>
p4120
(dp4121
g375
I2
sg376
I2
sg377
g1667
sg379
Vposted
p4122
sg381
F1.0
ssS'writing <dobj>'
p4123
(dp4124
g2457
g3208
sg2459
I1
sg2460
I1
sg2461
S'writing'
p4125
sg2463
F1.0
ssS'<subj> fell sun'
p4126
(dp4127
g748
I1
sg749
I1
sg750
g751
sg752
S'fell sun'
p4128
sg754
F1.0
ssS'<subj> see railing'
p4129
(dp4130
S'subj_freq'
p4131
I1
sS'freq'
p4132
I1
sS'type'
p4133
S'subj'
p4134
sS'display'
p4135
S'see railing'
p4136
sS'prob'
p4137
F1.0
ssS'wrecked <dobj>'
p4138
(dp4139
g1011
g3303
sg1013
I3
sg1014
I3
sg1015
S'wrecked'
p4140
sg1017
F1.0
ssS'raise <dobj>'
p4141
(dp4142
g941
I4
sg942
I4
sg943
S'dobj'
p4143
sg945
S'raise'
p4144
sg947
F1.0
ssS'saves <dobj>'
p4145
(dp4146
g1358
S'dobj'
p4147
sg1360
I7
sg1361
I7
sg1362
S'saves'
p4148
sg1364
F1.0
ssS'to offer <dobj>'
p4149
(dp4150
g2057
g3486
sg2059
I9
sg2060
I9
sg2061
S'to offer'
p4151
sg2063
F1.0
ssS'<subj> walks'
p4152
(dp4153
g137
I1
sg138
I1
sg139
g854
sg141
S'walks'
p4154
sg143
F1.0
ssS"<subj> 've age"
p4155
(dp4156
S'type'
p4157
S'subj'
p4158
sS'freq'
p4159
I9
sS'subj_freq'
p4160
I9
sS'display'
p4161
S"'ve age"
p4162
sS'prob'
p4163
F1.0
ssS'<subj> meets'
p4164
(dp4165
g1846
g4052
sg1848
I5
sg1849
I5
sg1850
S'meets'
p4166
sg1852
F1.0
ssS'<subj> recommend'
p4167
(dp4168
g2202
S'subj'
p4169
sg2204
I2
sg2205
I2
sg2206
S'recommend'
p4170
sg2208
F1.0
ssS'depressed <dobj>'
p4171
(dp4172
g317
g968
sg319
I21
sg320
I21
sg321
S'depressed'
p4173
sg323
F1.0
ssS'<subj> fall love'
p4174
(dp4175
g919
I1
sg920
I1
sg921
g922
sg923
S'fall love'
p4176
sg925
F1.0
ssS'led book that <np>'
p4177
(dp4178
g818
S'np'
p4179
sg820
I9
sg821
I9
sg822
S'led book that'
p4180
sg824
F1.0
ssS'<subj> devoted'
p4181
(dp4182
g656
g657
sg658
I9
sg659
I9
sg660
S'devoted'
p4183
sg662
F1.0
ssS'<subj> await Gujarat'
p4184
(dp4185
g79
S'subj'
p4186
sg81
I2
sg82
I2
sg83
S'await Gujarat'
p4187
sg85
F1.0
ssS'<subj> await rhythm'
p4188
(dp4189
g79
g4186
sg81
I2
sg82
I2
sg83
S'await rhythm'
p4190
sg85
F1.0
ssS'thought <dobj>'
p4191
(dp4192
g1104
I46
sg1105
I46
sg1106
S'dobj'
p4193
sg1108
S'thought'
p4194
sg1110
F1.0
ssS'is required for <np>'
p4195
(dp4196
g453
S'np'
p4197
sg455
I7
sg456
I7
sg457
S'is required for'
p4198
sg459
F1.0
ssS'turns <dobj>'
p4199
(dp4200
g299
S'dobj'
p4201
sg301
I3
sg302
I3
sg303
S'turns'
p4202
sg305
F1.0
ssS'<subj> continue to maintain'
p4203
(dp4204
g990
I7
sg991
I7
sg992
g1069
sg994
S'continue to maintain'
p4205
sg996
F1.0
ssS'to hold <dobj>'
p4206
(dp4207
g155
g1650
sg157
I7
sg158
I7
sg159
S'to hold'
p4208
sg161
F1.0
ssS'discussed <dobj>'
p4209
(dp4210
g308
I21
sg309
I21
sg310
S'dobj'
p4211
sg312
S'discussed'
p4212
sg314
F1.0
ssS'food of <np>'
p4213
(dp4214
g2849
S'np'
p4215
sg2851
I1
sg2852
I0
sg2853
S'food of'
p4216
sg2855
F0.0
ssS'<subj> reach'
p4217
(dp4218
g97
g1329
sg99
I22
sg100
I22
sg101
S'reach'
p4219
sg103
F1.0
ssS'<subj> lit'
p4220
(dp4221
g1464
g1465
sg1466
I1
sg1467
I1
sg1468
S'lit'
p4222
sg1470
F1.0
ssS'<subj> knew'
p4223
(dp4224
g200
I7
sg201
I7
sg202
g203
sg204
S'knew'
p4225
sg206
F1.0
ssS'<subj> feel essence'
p4226
(dp4227
S'subj_freq'
p4228
I1
sS'freq'
p4229
I1
sS'type'
p4230
S'subj'
p4231
sS'display'
p4232
S'feel essence'
p4233
sS'prob'
p4234
F1.0
ssS'<subj> flying'
p4235
(dp4236
g3848
I1
sg3849
I1
sg3850
S'subj'
p4237
sg3852
S'flying'
p4238
sg3854
F1.0
ssS'<subj> beginning today'
p4239
(dp4240
g643
I1
sg644
I1
sg645
S'subj'
p4241
sg647
S'beginning today'
p4242
sg649
F1.0
ssS'<subj> call'
p4243
(dp4244
S'type'
p4245
S'subj'
p4246
sS'freq'
p4247
I2
sS'subj_freq'
p4248
I2
sS'display'
p4249
S'call'
p4250
sS'prob'
p4251
F1.0
ssS'<subj> are given'
p4252
(dp4253
g788
I7
sg789
I7
sg790
g791
sg792
S'are given'
p4254
sg794
F1.0
ssS'to exercise <dobj>'
p4255
(dp4256
g950
I9
sg951
I9
sg952
g953
sg954
S'to exercise'
p4257
sg956
F1.0
ssS'<subj> take country'
p4258
(dp4259
S'subj_freq'
p4260
I2
sS'freq'
p4261
I2
sS'type'
p4262
S'subj'
p4263
sS'display'
p4264
S'take country'
p4265
sS'prob'
p4266
F1.0
ssS'find <dobj>'
p4267
(dp4268
g155
g1650
sg157
I20
sg158
I20
sg159
S'find'
p4269
sg161
F1.0
ssS'<subj> belongs life'
p4270
(dp4271
g173
I7
sg174
I7
sg175
g176
sg177
S'belongs life'
p4272
sg179
F1.0
ssS'thinking process of <np>'
p4273
(dp4274
g227
I21
sg228
I21
sg229
S'np'
p4275
sg231
S'thinking process of'
p4276
sg233
F1.0
ssS'<subj> await'
p4277
(dp4278
g79
g4186
sg81
I2
sg82
I2
sg83
S'await'
p4279
sg85
F1.0
ssS'<subj> visiting clock'
p4280
(dp4281
S'subj_freq'
p4282
I1
sS'freq'
p4283
I1
sS'type'
p4284
S'subj'
p4285
sS'display'
p4286
S'visiting clock'
p4287
sS'prob'
p4288
F1.0
ssS'<subj> has life'
p4289
(dp4290
g2156
I5
sg2157
I5
sg2158
g2159
sg2160
S'has life'
p4291
sg2162
F1.0
ssS'<subj> made toys'
p4292
(dp4293
S'type'
p4294
S'subj'
p4295
sS'freq'
p4296
I1
sS'subj_freq'
p4297
I1
sS'display'
p4298
S'made toys'
p4299
sS'prob'
p4300
F1.0
ssS'<subj> be done'
p4301
(dp4302
g1529
g1530
sg1531
I7
sg1532
I7
sg1533
S'be done'
p4303
sg1535
F1.0
ssS'<subj> stay variety'
p4304
(dp4305
g3857
I1
sg3858
I1
sg3859
g3860
sg3861
S'stay variety'
p4306
sg3863
F1.0
ssS'<subj> spotted'
p4307
(dp4308
g3040
I4
sg3041
I4
sg3042
g3043
sg3044
S'spotted'
p4309
sg3046
F1.0
ssS'<subj> lived'
p4310
(dp4311
S'type'
p4312
S'subj'
p4313
sS'freq'
p4314
I7
sS'subj_freq'
p4315
I7
sS'display'
p4316
S'lived'
p4317
sS'prob'
p4318
F1.0
ssS'<subj> contribute'
p4319
(dp4320
S'subj_freq'
p4321
I9
sS'freq'
p4322
I9
sS'type'
p4323
S'subj'
p4324
sS'display'
p4325
S'contribute'
p4326
sS'prob'
p4327
F1.0
ssS'<subj> has property'
p4328
(dp4329
g1434
I4
sg1435
I4
sg1436
g2366
sg1438
S'has property'
p4330
sg1440
F1.0
ssS'know <dobj>'
p4331
(dp4332
g687
I39
sg688
I39
sg689
g1868
sg691
S'know'
p4333
sg693
F1.0
ssS'knows <dobj>'
p4334
(dp4335
g1794
I7
sg1795
I7
sg1796
g3368
sg1798
S'knows'
p4336
sg1800
F1.0
ssS'<subj> beginning'
p4337
(dp4338
g972
I2
sg973
I3
sg974
g1473
sg976
S'beginning'
p4339
sg978
F0.6666666666666666
ssS'go <dobj>'
p4340
(dp4341
S'subj_freq'
p4342
I2
sS'freq'
p4343
I2
sS'type'
p4344
S'dobj'
p4345
sS'display'
p4346
S'go'
p4347
sS'prob'
p4348
F1.0
ssS'need to make <dobj>'
p4349
(dp4350
g1285
I19
sg1286
I19
sg1287
g1288
sg1289
S'need to make'
p4351
sg1291
F1.0
ssS'<subj> have Ted'
p4352
(dp4353
g705
I7
sg706
I7
sg707
g708
sg709
S'have Ted'
p4354
sg711
F1.0
ssS'create <dobj>'
p4355
(dp4356
g1714
g2737
sg1716
I2
sg1717
I2
sg1718
S'create'
p4357
sg1720
F1.0
ssS'<subj> fly cloud'
p4358
(dp4359
g254
g255
sg256
I9
sg257
I9
sg258
S'fly cloud'
p4360
sg260
F1.0
ssS'set <dobj>'
p4361
(dp4362
g3603
S'dobj'
p4363
sg3605
I2
sg3606
I2
sg3607
S'set'
p4364
sg3609
F1.0
ssS'<subj> develop'
p4365
(dp4366
g39
g484
sg41
I9
sg42
I9
sg43
S'develop'
p4367
sg45
F1.0
ssS"<subj> 's White"
p4368
(dp4369
S'type'
p4370
S'subj'
p4371
sS'freq'
p4372
I1
sS'subj_freq'
p4373
I1
sS'display'
p4374
S"'s White"
p4375
sS'prob'
p4376
F1.0
ssS"<subj> 's east"
p4377
(dp4378
S'type'
p4379
S'subj'
p4380
sS'freq'
p4381
I2
sS'subj_freq'
p4382
I2
sS'display'
p4383
S"'s east"
p4384
sS'prob'
p4385
F1.0
ssS'experience by <np>'
p4386
(dp4387
g1585
g1586
sg1587
I2
sg1588
I2
sg1589
S'experience by'
p4388
sg1591
F1.0
ssS'forget world with <np>'
p4389
(dp4390
g444
S'np'
p4391
sg446
I1
sg447
I1
sg448
S'forget world with'
p4392
sg450
F1.0
ssS'means <dobj>'
p4393
(dp4394
g1455
g1456
sg1457
I41
sg1458
I41
sg1459
S'means'
p4395
sg1461
F1.0
ssS'<subj> received award'
p4396
(dp4397
g3082
g4094
sg3084
I2
sg3085
I2
sg3086
S'received award'
p4398
sg3088
F1.0
ssS'<subj> have women'
p4399
(dp4400
g128
g129
sg130
I4
sg131
I4
sg132
S'have women'
p4401
sg134
F1.0
ssS'<subj> deserves'
p4402
(dp4403
g218
I8
sg219
I8
sg220
S'subj'
p4404
sg222
S'deserves'
p4405
sg224
F1.0
ssS'<subj> touched'
p4406
(dp4407
g1560
g1561
sg1562
I7
sg1563
I7
sg1564
S'touched'
p4408
sg1566
F1.0
ssS'<subj> is required'
p4409
(dp4410
g453
g652
sg455
I7
sg456
I7
sg457
S'is required'
p4411
sg459
F1.0
ssS"<subj> 's call"
p4412
(dp4413
S'subj_freq'
p4414
I1
sS'freq'
p4415
I1
sS'type'
p4416
S'subj'
p4417
sS'display'
p4418
S"'s call"
p4419
sS'prob'
p4420
F1.0
ssS'<subj> put'
p4421
(dp4422
g88
I42
sg89
I42
sg90
g1184
sg92
S'put'
p4423
sg94
F1.0
ssS'fell <dobj>'
p4424
(dp4425
g748
I1
sg749
I1
sg750
S'dobj'
p4426
sg752
S'fell'
p4427
sg754
F1.0
ssS'<subj> doing ones'
p4428
(dp4429
g97
g1329
sg99
I21
sg100
I21
sg101
S'doing ones'
p4430
sg103
F1.0
ssS'experience with <np>'
p4431
(dp4432
S'type'
p4433
S'np'
p4434
sS'freq'
p4435
I1
sS'subj_freq'
p4436
I1
sS'display'
p4437
S'experience with'
p4438
sS'prob'
p4439
F1.0
ssS'<subj> love'
p4440
(dp4441
S'subj_freq'
p4442
I9
sS'freq'
p4443
I9
sS'type'
p4444
S'subj'
p4445
sS'display'
p4446
S'love'
p4447
sS'prob'
p4448
F1.0
ssS'<subj> standing horses'
p4449
(dp4450
g3422
g3423
sg3424
I2
sg3425
I2
sg3426
S'standing horses'
p4451
sg3428
F1.0
ssS'<subj> are taken'
p4452
(dp4453
g2457
g2458
sg2459
I1
sg2460
I1
sg2461
S'are taken'
p4454
sg2463
F1.0
ssS'<subj> having weekend'
p4455
(dp4456
g2025
I1
sg2026
I1
sg2027
g2028
sg2029
S'having weekend'
p4457
sg2031
F1.0
ssS'<subj> win'
p4458
(dp4459
g236
g237
sg238
I4
sg239
I4
sg240
S'win'
p4460
sg242
F1.0
ssS'<subj> deserves to fill'
p4461
(dp4462
g218
I7
sg219
I7
sg220
g4404
sg222
S'deserves to fill'
p4463
sg224
F1.0
ssS'<subj> creating God'
p4464
(dp4465
g414
g415
sg416
I4
sg417
I4
sg418
S'creating God'
p4466
sg420
F1.0
ssS'<subj> deserved'
p4467
(dp4468
g218
I7
sg219
I7
sg220
g4404
sg222
S'deserved'
p4469
sg224
F1.0
ssS"<subj> 's heritage"
p4470
(dp4471
S'subj_freq'
p4472
I1
sS'freq'
p4473
I1
sS'type'
p4474
S'subj'
p4475
sS'display'
p4476
S"'s heritage"
p4477
sS'prob'
p4478
F1.0
ssS'<subj> live'
p4479
(dp4480
g173
I16
sg174
I16
sg175
g176
sg177
S'live'
p4481
sg179
F1.0
ssS'<subj> appreciate'
p4482
(dp4483
g3141
g3142
sg3143
I1
sg3144
I1
sg3145
S'appreciate'
p4484
sg3147
F1.0
ssS'are presented in <np>'
p4485
(dp4486
g770
I9
sg771
I9
sg772
S'np'
p4487
sg774
S'are presented in'
p4488
sg776
F1.0
ssS'<subj> doing'
p4489
(dp4490
g97
g1329
sg99
I21
sg100
I21
sg101
S'doing'
p4491
sg103
F1.0
ssS'<subj> added women'
p4492
(dp4493
g128
g129
sg130
I5
sg131
I5
sg132
S'added women'
p4494
sg134
F1.0
ssS'<subj> sharing'
p4495
(dp4496
g396
I10
sg397
I10
sg398
g3335
sg400
S'sharing'
p4497
sg402
F1.0
ssS'<subj> printed'
p4498
(dp4499
g2586
I1
sg2587
I1
sg2588
S'subj'
p4500
sg2590
S'printed'
p4501
sg2592
F1.0
ssS'Sea from <np>'
p4502
(dp4503
S'type'
p4504
S'np'
p4505
sS'freq'
p4506
I1
sS'subj_freq'
p4507
I1
sS'display'
p4508
S'Sea from'
p4509
sS'prob'
p4510
F1.0
ssS'<subj> are discussed'
p4511
(dp4512
g308
I21
sg309
I21
sg310
g311
sg312
S'are discussed'
p4513
sg314
F1.0
ssS'<subj> amazed'
p4514
(dp4515
g330
I2
sg331
I2
sg332
g333
sg334
S'amazed'
p4516
sg336
F1.0
ssS'<subj> is lit'
p4517
(dp4518
g1464
g1465
sg1466
I1
sg1467
I1
sg1468
S'is lit'
p4519
sg1470
F1.0
ssS'describe <dobj>'
p4520
(dp4521
g4098
S'dobj'
p4522
sg4100
I7
sg4101
I7
sg4102
S'describe'
p4523
sg4104
F1.0
ssS'<subj> deliver'
p4524
(dp4525
S'type'
p4526
S'subj'
p4527
sS'freq'
p4528
I4
sS'subj_freq'
p4529
I4
sS'display'
p4530
S'deliver'
p4531
sS'prob'
p4532
F1.0
ssS'<subj> surrounded cottages'
p4533
(dp4534
g1053
g2053
sg1055
I2
sg1056
I2
sg1057
S'surrounded cottages'
p4535
sg1059
F1.0
ssS'<subj> is eliminated'
p4536
(dp4537
g97
g1329
sg99
I21
sg100
I21
sg101
S'is eliminated'
p4538
sg103
F1.0
ssS'<subj> is located'
p4539
(dp4540
g70
g71
sg72
I5
sg73
I2
sg74
S'is located'
p4541
sg76
F0.4
ssS'<subj> many era'
p4542
(dp4543
g999
g1000
sg1001
I1
sg1002
I1
sg1003
S'many era'
p4544
sg1005
F1.0
ssS'continue to maintain <dobj>'
p4545
(dp4546
g990
I7
sg991
I7
sg992
g993
sg994
S'continue to maintain'
p4547
sg996
F1.0
ssS'<subj> invite'
p4548
(dp4549
g616
I3
sg617
I3
sg618
g619
sg620
S'invite'
p4550
sg622
F1.0
ssS'<subj> left life'
p4551
(dp4552
g2156
I5
sg2157
I5
sg2158
g2159
sg2160
S'left life'
p4553
sg2162
F1.0
ssS'put <dobj>'
p4554
(dp4555
g88
I42
sg89
I42
sg90
g2018
sg92
S'put'
p4556
sg94
F1.0
ssS'standing <dobj>'
p4557
(dp4558
g3422
S'dobj'
p4559
sg3424
I2
sg3425
I2
sg3426
S'standing'
p4560
sg3428
F1.0
ssS'<subj> comes'
p4561
(dp4562
g1762
S'subj'
p4563
sg1764
I1
sg1765
I1
sg1766
S'comes'
p4564
sg1768
F1.0
ssS'<subj> getting'
p4565
(dp4566
g1490
I8
sg1491
I8
sg1492
g3961
sg1494
S'getting'
p4567
sg1496
F1.0
ssS'<subj> be told'
p4568
(dp4569
g892
g893
sg894
I19
sg895
I19
sg896
S'be told'
p4570
sg898
F1.0
ssS'use of <np>'
p4571
(dp4572
g2543
I0
sg2544
I17
sg2545
S'np'
p4573
sg2547
S'use of'
p4574
sg2549
F0.0
ssS'build <dobj>'
p4575
(dp4576
g475
I7
sg476
I7
sg477
g478
sg479
S'build'
p4577
sg481
F1.0
ssS'<subj> bring lots'
p4578
(dp4579
S'subj_freq'
p4580
I1
sS'freq'
p4581
I1
sS'type'
p4582
S'subj'
p4583
sS'display'
p4584
S'bring lots'
p4585
sS'prob'
p4586
F1.0
ssS'going to begin <dobj>'
p4587
(dp4588
g2690
I1
sg2691
I1
sg2692
S'dobj'
p4589
sg2694
S'going to begin'
p4590
sg2696
F1.0
ssS'spotted <dobj>'
p4591
(dp4592
g3040
I4
sg3041
I4
sg3042
S'dobj'
p4593
sg3044
S'spotted'
p4594
sg3046
F1.0
ssS'<subj> produces'
p4595
(dp4596
g1641
S'subj'
p4597
sg1643
I7
sg1644
I7
sg1645
S'produces'
p4598
sg1647
F1.0
ssS'varied <dobj>'
p4599
(dp4600
g1702
I3
sg1703
I3
sg1704
S'dobj'
p4601
sg1706
S'varied'
p4602
sg1708
F1.0
ssS'<subj> writing Marvin'
p4603
(dp4604
g2457
g2458
sg2459
I1
sg2460
I1
sg2461
S'writing Marvin'
p4605
sg2463
F1.0
ssS'<subj> dominating'
p4606
(dp4607
g97
g1329
sg99
I21
sg100
I21
sg101
S'dominating'
p4608
sg103
F1.0
ssS'operate <dobj>'
p4609
(dp4610
g414
S'dobj'
p4611
sg416
I4
sg417
I4
sg418
S'operate'
p4612
sg420
F1.0
ssS'taking place for <np>'
p4613
(dp4614
S'subj_freq'
p4615
I1
sS'freq'
p4616
I1
sS'type'
p4617
S'np'
p4618
sS'display'
p4619
S'taking place for'
p4620
sS'prob'
p4621
F1.0
ssS'gather <dobj>'
p4622
(dp4623
g1732
I1
sg1733
I1
sg1734
g1735
sg1736
S'gather'
p4624
sg1738
F1.0
ssS'<subj> cost'
p4625
(dp4626
S'subj_freq'
p4627
I1
sS'freq'
p4628
I1
sS'type'
p4629
S'subj'
p4630
sS'display'
p4631
S'cost'
p4632
sS'prob'
p4633
F1.0
ssS'<subj> presented'
p4634
(dp4635
g770
I9
sg771
I9
sg772
g2560
sg774
S'presented'
p4636
sg776
F1.0
ssS'<subj> required'
p4637
(dp4638
g453
g652
sg455
I7
sg456
I7
sg457
S'required'
p4639
sg459
F1.0
ssS'to conserve <dobj>'
p4640
(dp4641
g1654
I3
sg1655
I3
sg1656
g1657
sg1658
S'to conserve'
p4642
sg1660
F1.0
ssS'<subj> was connected'
p4643
(dp4644
g97
g1329
sg99
I21
sg100
I21
sg101
S'was connected'
p4645
sg103
F1.0
ssS'spread across <np>'
p4646
(dp4647
g901
I21
sg902
I21
sg903
S'np'
p4648
sg905
S'spread across'
p4649
sg907
F1.0
ssV<subj> watched video
p4650
(dp4651
g375
I2
sg376
I2
sg377
g378
sg379
Vwatched video
p4652
sg381
F1.0
ssS'reach <dobj>'
p4653
(dp4654
g97
g98
sg99
I22
sg100
I22
sg101
S'reach'
p4655
sg103
F1.0
ssS'<subj> gave reports'
p4656
(dp4657
g1126
g1127
sg1128
I7
sg1129
I7
sg1130
S'gave reports'
p4658
sg1132
F1.0
ssS'<subj> moved Ohio'
p4659
(dp4660
g501
g1162
sg503
I7
sg504
I7
sg505
S'moved Ohio'
p4661
sg507
F1.0
ssV<subj> was blown
p4662
(dp4663
g375
I2
sg376
I2
sg377
g378
sg379
Vwas blown
p4664
sg381
F1.0
ssS"<subj> 'm"
p4665
(dp4666
g1677
g1678
sg1679
I77
sg1680
I77
sg1681
S"'m"
p4667
sg1683
F1.0
ssS'<subj> need to try'
p4668
(dp4669
S'type'
p4670
S'subj'
p4671
sS'freq'
p4672
I23
sS'subj_freq'
p4673
I23
sS'display'
p4674
S'need to try'
p4675
sS'prob'
p4676
F1.0
ssS'to develop <dobj>'
p4677
(dp4678
g39
g40
sg41
I9
sg42
I9
sg43
S'to develop'
p4679
sg45
F1.0
ssS'<subj> meets immensity'
p4680
(dp4681
g1191
I1
sg1192
I1
sg1193
g1194
sg1195
S'meets immensity'
p4682
sg1197
F1.0
ssS'contribute <dobj>'
p4683
(dp4684
g4321
I9
sg4322
I9
sg4323
S'dobj'
p4685
sg4325
S'contribute'
p4686
sg4327
F1.0
ssS'are taken out <np>'
p4687
(dp4688
g2457
g2871
sg2459
I1
sg2460
I1
sg2461
S'are taken out'
p4689
sg2463
F1.0
ssS'<subj> is known'
p4690
(dp4691
g2069
I2
sg2070
I2
sg2071
S'subj'
p4692
sg2073
S'is known'
p4693
sg2075
F1.0
ssS'watching years ago <np>'
p4694
(dp4695
g97
S'np'
p4696
sg99
I21
sg100
I21
sg101
S'watching years ago'
p4697
sg103
F1.0
ssS'<subj> awaiting outlook'
p4698
(dp4699
g444
g3631
sg446
I1
sg447
I1
sg448
S'awaiting outlook'
p4700
sg450
F1.0
ssS'wants idea of <np>'
p4701
(dp4702
g1794
I7
sg1795
I7
sg1796
S'np'
p4703
sg1798
S'wants idea of'
p4704
sg1800
F1.0
ssS'<subj> undo'
p4705
(dp4706
g263
g264
sg265
I21
sg266
I21
sg267
S'undo'
p4707
sg269
F1.0
ssS'need <dobj>'
p4708
(dp4709
g687
I95
sg688
I95
sg689
g1868
sg691
S'need'
p4710
sg693
F1.0
ssS'<subj> bringing'
p4711
(dp4712
g2654
I26
sg2655
I26
sg2656
g2657
sg2658
S'bringing'
p4713
sg2660
F1.0
ssS'to work <dobj>'
p4714
(dp4715
g2286
S'dobj'
p4716
sg2288
I1
sg2289
I0
sg2290
S'to work'
p4717
sg2292
F0.0
ssS'<subj> be changed'
p4718
(dp4719
g1560
g1561
sg1562
I7
sg1563
I7
sg1564
S'be changed'
p4720
sg1566
F1.0
ssS'<subj> forget'
p4721
(dp4722
g2858
g3587
sg2860
I8
sg2861
I8
sg2862
S'forget'
p4723
sg2864
F1.0
ssS'<subj> loved'
p4724
(dp4725
g1912
I6
sg1913
I6
sg1914
g1915
sg1916
S'loved'
p4726
sg1918
F1.0
ssS'demonstrate <dobj>'
p4727
(dp4728
g558
S'dobj'
p4729
sg560
I2
sg561
I2
sg562
S'demonstrate'
p4730
sg564
F1.0
ssS'<subj> celebrated show'
p4731
(dp4732
g2956
I2
sg2957
I2
sg2958
g2959
sg2960
S'celebrated show'
p4733
sg2962
F1.0
ssS"<subj> 's"
p4734
(dp4735
g634
S'subj'
p4736
sg636
I251
sg637
I251
sg638
S"'s"
p4737
sg640
F1.0
ssS'<subj> found'
p4738
(dp4739
g501
g1162
sg503
I7
sg504
I7
sg505
S'found'
p4740
sg507
F1.0
ssS'blessed <dobj>'
p4741
(dp4742
S'type'
p4743
S'dobj'
p4744
sS'freq'
p4745
I1
sS'subj_freq'
p4746
I1
sS'display'
p4747
S'blessed'
p4748
sS'prob'
p4749
F1.0
ssS'call <dobj>'
p4750
(dp4751
g4245
S'dobj'
p4752
sg4247
I2
sg4248
I2
sg4249
S'call'
p4753
sg4251
F1.0
ssS'<subj> seen'
p4754
(dp4755
S'subj_freq'
p4756
I1
sS'freq'
p4757
I3
sS'type'
p4758
S'subj'
p4759
sS'display'
p4760
S'seen'
p4761
sS'prob'
p4762
F0.3333333333333333
ssS'want <dobj>'
p4763
(dp4764
g1693
S'dobj'
p4765
sg1695
I49
sg1696
I49
sg1697
S'want'
p4766
sg1699
F1.0
ssS'answer with <np>'
p4767
(dp4768
g4370
S'np'
p4769
sg4372
I1
sg4373
I0
sg4374
S'answer with'
p4770
sg4376
F0.0
ssS'learned to play <dobj>'
p4771
(dp4772
g1038
I4
sg1039
I4
sg1040
g1041
sg1042
S'learned to play'
p4773
sg1044
F1.0
ssS'<subj> listening'
p4774
(dp4775
g1632
g1633
sg1634
I21
sg1635
I21
sg1636
S'listening'
p4776
sg1638
F1.0
ssS'<subj> seem to understand'
p4777
(dp4778
g3727
S'subj'
p4779
sg3729
I8
sg3730
I8
sg3731
S'seem to understand'
p4780
sg3733
F1.0
ssS'seen <dobj>'
p4781
(dp4782
g4756
I1
sg4757
I3
sg4758
S'dobj'
p4783
sg4760
S'seen'
p4784
sg4762
F0.3333333333333333
ssS'threw <dobj>'
p4785
(dp4786
g1209
I7
sg1210
I7
sg1211
S'dobj'
p4787
sg1213
S'threw'
p4788
sg1215
F1.0
ssS'<subj> need discipline'
p4789
(dp4790
g892
g893
sg894
I19
sg895
I19
sg896
S'need discipline'
p4791
sg898
F1.0
ssV<subj> read
p4792
(dp4793
g375
I2
sg376
I2
sg377
g378
sg379
Vread
p4794
sg381
F1.0
ssS'struck <dobj>'
p4795
(dp4796
g3821
S'dobj'
p4797
sg3823
I21
sg3824
I21
sg3825
S'struck'
p4798
sg3827
F1.0
ssS'<subj> exercise right'
p4799
(dp4800
g950
I9
sg951
I9
sg952
g2552
sg954
S'exercise right'
p4801
sg956
F1.0
ssS'Day on <np>'
p4802
(dp4803
S'type'
p4804
S'np'
p4805
sS'freq'
p4806
I4
sS'subj_freq'
p4807
I0
sS'display'
p4808
S'Day on'
p4809
sS'prob'
p4810
F0.0
ssS'lived <dobj>'
p4811
(dp4812
g4312
S'dobj'
p4813
sg4314
I7
sg4315
I7
sg4316
S'lived'
p4814
sg4318
F1.0
ssS'<subj> portraying side'
p4815
(dp4816
g1741
I0
sg1742
I1
sg1743
g1744
sg1745
S'portraying side'
p4817
sg1747
F0.0
ssS'managing <dobj>'
p4818
(dp4819
g2193
I4
sg2194
I4
sg2195
S'dobj'
p4820
sg2197
S'managing'
p4821
sg2199
F1.0
ssS'send <dobj>'
p4822
(dp4823
g1200
S'dobj'
p4824
sg1202
I1
sg1203
I1
sg1204
S'send'
p4825
sg1206
F1.0
ssS'<subj> affected'
p4826
(dp4827
S'subj_freq'
p4828
I2
sS'freq'
p4829
I2
sS'type'
p4830
S'subj'
p4831
sS'display'
p4832
S'affected'
p4833
sS'prob'
p4834
F1.0
ssS'moved <dobj>'
p4835
(dp4836
g501
g502
sg503
I7
sg504
I7
sg505
S'moved'
p4837
sg507
F1.0
ssS'<subj> walk'
p4838
(dp4839
g137
I2
sg138
I2
sg139
g854
sg141
S'walk'
p4840
sg143
F1.0
ssS'<subj> has birds'
p4841
(dp4842
S'subj_freq'
p4843
I1
sS'freq'
p4844
I1
sS'type'
p4845
S'subj'
p4846
sS'display'
p4847
S'has birds'
p4848
sS'prob'
p4849
F1.0
ssS'conserves <dobj>'
p4850
(dp4851
g1930
I4
sg1931
I4
sg1932
S'dobj'
p4852
sg1934
S'conserves'
p4853
sg1936
F1.0
ssS'are used as <np>'
p4854
(dp4855
g3839
S'np'
p4856
sg3841
I1
sg3842
I0
sg3843
S'are used as'
p4857
sg3845
F0.0
ssS'<subj> reduced fish'
p4858
(dp4859
g1011
g1012
sg1013
I3
sg1014
I3
sg1015
S'reduced fish'
p4860
sg1017
F1.0
ssS'<subj> misled'
p4861
(dp4862
g1230
I21
sg1231
I21
sg1232
g1384
sg1234
S'misled'
p4863
sg1236
F1.0
ssS'<subj> was explained'
p4864
(dp4865
g254
g255
sg256
I9
sg257
I9
sg258
S'was explained'
p4866
sg260
F1.0
ssS'<subj> made'
p4867
(dp4868
g1632
g1633
sg1634
I32
sg1635
I32
sg1636
S'made'
p4869
sg1638
F1.0
ssS'<subj> was held'
p4870
(dp4871
g2728
S'subj'
p4872
sg2730
I1
sg2731
I0
sg2732
S'was held'
p4873
sg2734
F0.0
ssS'<subj> carved caves'
p4874
(dp4875
g3839
g3840
sg3841
I1
sg3842
I0
sg3843
S'carved caves'
p4876
sg3845
F0.0
ssS'presents <dobj>'
p4877
(dp4878
g3779
I3
sg3780
I3
sg3781
S'dobj'
p4879
sg3783
S'presents'
p4880
sg3785
F1.0
ssS'<subj> cause'
p4881
(dp4882
g57
g1573
sg59
I9
sg60
I9
sg61
S'cause'
p4883
sg63
F1.0
ssS'<subj> writing'
p4884
(dp4885
g2457
g2458
sg2459
I1
sg2460
I1
sg2461
S'writing'
p4886
sg2463
F1.0
ssS'<subj> offers Hill'
p4887
(dp4888
S'type'
p4889
S'subj'
p4890
sS'freq'
p4891
I1
sS'subj_freq'
p4892
I1
sS'display'
p4893
S'offers Hill'
p4894
sS'prob'
p4895
F1.0
ssS'<subj> invite entries'
p4896
(dp4897
g616
I2
sg617
I2
sg618
g619
sg620
S'invite entries'
p4898
sg622
F1.0
ssS'selling <dobj>'
p4899
(dp4900
g4157
S'dobj'
p4901
sg4159
I16
sg4160
I16
sg4161
S'selling'
p4902
sg4163
F1.0
ssS'artists of <np>'
p4903
(dp4904
S'type'
p4905
S'np'
p4906
sS'freq'
p4907
I2
sS'subj_freq'
p4908
I2
sS'display'
p4909
S'artists of'
p4910
sS'prob'
p4911
F1.0
ssS'<subj> preserving glory'
p4912
(dp4913
g2407
g2408
sg2409
I2
sg2410
I2
sg2411
S'preserving glory'
p4914
sg2413
F1.0
ssS'<subj> see'
p4915
(dp4916
g348
I60
sg349
I61
sg350
g3570
sg352
S'see'
p4917
sg354
F0.9836065573770492
ssS"<subj> 're"
p4918
(dp4919
g97
g1329
sg99
I55
sg100
I55
sg101
S"'re"
p4920
sg103
F1.0
ssS'<subj> arrive'
p4921
(dp4922
g2938
I7
sg2939
I7
sg2940
S'subj'
p4923
sg2942
S'arrive'
p4924
sg2944
F1.0
ssS'<subj> focused'
p4925
(dp4926
g705
I7
sg706
I7
sg707
g708
sg709
S'focused'
p4927
sg711
F1.0
ssS'glittering <dobj>'
p4928
(dp4929
S'type'
p4930
S'dobj'
p4931
sS'freq'
p4932
I1
sS'subj_freq'
p4933
I1
sS'display'
p4934
S'glittering'
p4935
sS'prob'
p4936
F1.0
ssS'<subj> varied birds'
p4937
(dp4938
S'subj_freq'
p4939
I1
sS'freq'
p4940
I1
sS'type'
p4941
S'subj'
p4942
sS'display'
p4943
S'varied birds'
p4944
sS'prob'
p4945
F1.0
ssS'<subj> enjoy'
p4946
(dp4947
g3603
g3604
sg3605
I4
sg3606
I4
sg3607
S'enjoy'
p4948
sg3609
F1.0
ssS'<subj> smitten'
p4949
(dp4950
g1397
I1
sg1398
I1
sg1399
S'subj'
p4951
sg1401
S'smitten'
p4952
sg1403
F1.0
ssS'to operate <dobj>'
p4953
(dp4954
g414
g4611
sg416
I4
sg417
I4
sg418
S'to operate'
p4955
sg420
F1.0
ssS'welcoming <dobj>'
p4956
(dp4957
S'type'
p4958
S'dobj'
p4959
sS'freq'
p4960
I2
sS'subj_freq'
p4961
I1
sS'display'
p4962
S'welcoming'
p4963
sS'prob'
p4964
F0.5
ssS'<subj> knows idea'
p4965
(dp4966
g1794
I7
sg1795
I7
sg1796
g1797
sg1798
S'knows idea'
p4967
sg1800
F1.0
ssS'<subj> confirm'
p4968
(dp4969
g146
S'subj'
p4970
sg148
I7
sg149
I7
sg150
S'confirm'
p4971
sg152
F1.0
ssS'<subj> seeing things'
p4972
(dp4973
g1126
g1127
sg1128
I7
sg1129
I7
sg1130
S'seeing things'
p4974
sg1132
F1.0
ssS'offer <dobj>'
p4975
(dp4976
g2057
g3486
sg2059
I10
sg2060
I10
sg2061
S'offer'
p4977
sg2063
F1.0
ssS'make <dobj>'
p4978
(dp4979
g1285
I43
sg1286
I43
sg1287
g1288
sg1289
S'make'
p4980
sg1291
F1.0
ssS'classified <dobj>'
p4981
(dp4982
g3346
S'dobj'
p4983
sg3348
I1
sg3349
I0
sg3350
S'classified'
p4984
sg3352
F0.0
ssS'fail <dobj>'
p4985
(dp4986
g1455
g1456
sg1457
I27
sg1458
I27
sg1459
S'fail'
p4987
sg1461
F1.0
ssS'<subj> seem'
p4988
(dp4989
g3727
g4779
sg3729
I8
sg3730
I8
sg3731
S'seem'
p4990
sg3733
F1.0
ssS'<subj> having properties'
p4991
(dp4992
g2482
I7
sg2483
I7
sg2484
g3706
sg2486
S'having properties'
p4993
sg2488
F1.0
ssS'cup from <np>'
p4994
(dp4995
g218
I7
sg219
I7
sg220
S'np'
p4996
sg222
S'cup from'
p4997
sg224
F1.0
ssS'<subj> talking'
p4998
(dp4999
g1989
I21
sg1990
I21
sg1991
g1992
sg1993
S'talking'
p5000
sg1995
F1.0
ssS'discover <dobj>'
p5001
(dp5002
g528
g529
sg530
I2
sg531
I2
sg532
S'discover'
p5003
sg534
F1.0
ssS'<subj> bless occasion'
p5004
(dp5005
g1409
g1410
sg1411
I1
sg1412
I1
sg1413
S'bless occasion'
p5006
sg1415
F1.0
ssS'<subj> deserves time'
p5007
(dp5008
S'type'
p5009
S'subj'
p5010
sS'freq'
p5011
I1
sS'subj_freq'
p5012
I1
sS'display'
p5013
S'deserves time'
p5014
sS'prob'
p5015
F1.0
ssS'to spread <dobj>'
p5016
(dp5017
g245
g246
sg247
I1
sg248
I1
sg249
S'to spread'
p5018
sg251
F1.0
ssS'<subj> start'
p5019
(dp5020
g3470
I7
sg3471
I7
sg3472
g3682
sg3474
S'start'
p5021
sg3476
F1.0
ssS'deserts <dobj>'
p5022
(dp5023
S'type'
p5024
S'dobj'
p5025
sS'freq'
p5026
I1
sS'subj_freq'
p5027
I1
sS'display'
p5028
S'deserts'
p5029
sS'prob'
p5030
F1.0
ssS'love for <np>'
p5031
(dp5032
S'subj_freq'
p5033
I5
sS'freq'
p5034
I5
sS'type'
p5035
S'np'
p5036
sS'display'
p5037
S'love for'
p5038
sS'prob'
p5039
F1.0
ssS'<subj> learned paralysis'
p5040
(dp5041
g589
g590
sg591
I9
sg592
I9
sg593
S'learned paralysis'
p5042
sg595
F1.0
ssS'<subj> have carbon'
p5043
(dp5044
S'type'
p5045
S'subj'
p5046
sS'freq'
p5047
I9
sS'subj_freq'
p5048
I0
sS'display'
p5049
S'have carbon'
p5050
sS'prob'
p5051
F0.0
ssS'<subj> bringing makers'
p5052
(dp5053
g558
g559
sg560
I2
sg561
I2
sg562
S'bringing makers'
p5054
sg564
F1.0
ssS'<subj> spot Bear'
p5055
(dp5056
g3169
g3574
sg3171
I1
sg3172
I1
sg3173
S'spot Bear'
p5057
sg3175
F1.0
ssS'<subj> saw talk'
p5058
(dp5059
g1803
I7
sg1804
I7
sg1805
g1806
sg1807
S'saw talk'
p5060
sg1809
F1.0
ssS'restored <dobj>'
p5061
(dp5062
g2777
I2
sg2778
I2
sg2779
S'dobj'
p5063
sg2781
S'restored'
p5064
sg2783
F1.0
ssS'to cut <dobj>'
p5065
(dp5066
g209
I4
sg210
I4
sg211
g212
sg213
S'to cut'
p5067
sg215
F1.0
ssS'<subj> have pain'
p5068
(dp5069
g4312
g4313
sg4314
I7
sg4315
I7
sg4316
S'have pain'
p5070
sg4318
F1.0
ssS'<subj> celebrate'
p5071
(dp5072
g357
I5
sg358
I5
sg359
S'subj'
p5073
sg361
S'celebrate'
p5074
sg363
F1.0
ssS'<subj> think'
p5075
(dp5076
g348
I75
sg349
I75
sg350
g3570
sg352
S'think'
p5077
sg354
F1.0
ssS'work <dobj>'
p5078
(dp5079
g2286
g4716
sg2288
I1
sg2289
I0
sg2290
S'work'
p5080
sg2292
F0.0
ssS'<subj> means everybody'
p5081
(dp5082
g1977
I9
sg1978
I9
sg1979
g1980
sg1981
S'means everybody'
p5083
sg1983
F1.0
ssS'seem to understand <dobj>'
p5084
(dp5085
g3727
g3728
sg3729
I8
sg3730
I8
sg3731
S'seem to understand'
p5086
sg3733
F1.0
ssS'<subj> gives glimpse'
p5087
(dp5088
g2407
g2408
sg2409
I2
sg2410
I2
sg2411
S'gives glimpse'
p5089
sg2413
F1.0
ssS'<subj> had arthritis'
p5090
(dp5091
g164
I7
sg165
I7
sg166
g167
sg168
S'had arthritis'
p5092
sg170
F1.0
ssS'<subj> get life'
p5093
(dp5094
g2419
S'subj'
p5095
sg2421
I13
sg2422
I13
sg2423
S'get life'
p5096
sg2425
F1.0
ssS'Thanks for <np>'
p5097
(dp5098
g396
I7
sg397
I7
sg398
S'np'
p5099
sg400
S'Thanks for'
p5100
sg402
F1.0
ssS'<subj> explained'
p5101
(dp5102
g254
g255
sg256
I9
sg257
I9
sg258
S'explained'
p5103
sg260
F1.0
ssS'<subj> have search'
p5104
(dp5105
g687
I21
sg688
I21
sg689
g690
sg691
S'have search'
p5106
sg693
F1.0
ssS'<subj> lost powers'
p5107
(dp5108
g1166
g3999
sg1168
I55
sg1169
I55
sg1170
S'lost powers'
p5109
sg1172
F1.0
ssS'elaborate <dobj>'
p5110
(dp5111
g1939
g1940
sg1941
I2
sg1942
I2
sg1943
S'elaborate'
p5112
sg1945
F1.0
ssS'brings <dobj>'
p5113
(dp5114
g3232
S'dobj'
p5115
sg3234
I1
sg3235
I1
sg3236
S'brings'
p5116
sg3238
F1.0
ssS"<subj> 'm Japan"
p5117
(dp5118
g1677
g1678
sg1679
I22
sg1680
I22
sg1681
S"'m Japan"
p5119
sg1683
F1.0
ssS'<subj> come'
p5120
(dp5121
g57
g1573
sg59
I15
sg60
I15
sg61
S'come'
p5122
sg63
F1.0
ssS'to keep <dobj>'
p5123
(dp5124
g537
I9
sg538
I9
sg539
g2014
sg541
S'to keep'
p5125
sg543
F1.0
ssS'<subj> imposing'
p5126
(dp5127
S'subj_freq'
p5128
I1
sS'freq'
p5129
I1
sS'type'
p5130
S'subj'
p5131
sS'display'
p5132
S'imposing'
p5133
sS'prob'
p5134
F1.0
ssS'to deliver <dobj>'
p5135
(dp5136
g4526
S'dobj'
p5137
sg4528
I4
sg4529
I4
sg4530
S'to deliver'
p5138
sg4532
F1.0
ssS'designed <dobj>'
p5139
(dp5140
g3555
I2
sg3556
I2
sg3557
S'dobj'
p5141
sg3559
S'designed'
p5142
sg3561
F1.0
ssS'<subj> tapping feet'
p5143
(dp5144
g3521
I0
sg3522
I1
sg3523
g3662
sg3525
S'tapping feet'
p5145
sg3527
F0.0
ssS'spend time in <np>'
p5146
(dp5147
g2777
I2
sg2778
I2
sg2779
S'np'
p5148
sg2781
S'spend time in'
p5149
sg2783
F1.0
ssS'<subj> beginning festival'
p5150
(dp5151
g972
I0
sg973
I1
sg974
g1473
sg976
S'beginning festival'
p5152
sg978
F0.0
ssS'influence of <np>'
p5153
(dp5154
S'subj_freq'
p5155
I2
sS'freq'
p5156
I2
sS'type'
p5157
S'np'
p5158
sS'display'
p5159
S'influence of'
p5160
sS'prob'
p5161
F1.0
ssS'<subj> surrounded'
p5162
(dp5163
g1053
g2053
sg1055
I2
sg1056
I2
sg1057
S'surrounded'
p5164
sg1059
F1.0
ssS'<subj> hidden'
p5165
(dp5166
g1038
I5
sg1039
I5
sg1040
g3290
sg1042
S'hidden'
p5167
sg1044
F1.0
ssS'<subj> portraying'
p5168
(dp5169
g1741
I0
sg1742
I1
sg1743
g1744
sg1745
S'portraying'
p5170
sg1747
F0.0
ssS'give <dobj>'
p5171
(dp5172
S'type'
p5173
S'dobj'
p5174
sS'freq'
p5175
I11
sS'subj_freq'
p5176
I11
sS'display'
p5177
S'give'
p5178
sS'prob'
p5179
F1.0
ssS'affected <dobj>'
p5180
(dp5181
g4828
I2
sg4829
I2
sg4830
S'dobj'
p5182
sg4832
S'affected'
p5183
sg4834
F1.0
ssS'dedicated <dobj>'
p5184
(dp5185
g696
I3
sg697
I3
sg698
S'dobj'
p5186
sg700
S'dedicated'
p5187
sg702
F1.0
ssS'<subj> welcoming'
p5188
(dp5189
g4958
S'subj'
p5190
sg4960
I2
sg4961
I1
sg4962
S'welcoming'
p5191
sg4964
F0.5
ssS'<subj> leave'
p5192
(dp5193
g1397
I1
sg1398
I1
sg1399
g4951
sg1401
S'leave'
p5194
sg1403
F1.0
ssS'to spend <dobj>'
p5195
(dp5196
g1053
g1371
sg1055
I3
sg1056
I2
sg1057
S'to spend'
p5197
sg1059
F0.6666666666666666
ssS'heritage of <np>'
p5198
(dp5199
S'type'
p5200
S'np'
p5201
sS'freq'
p5202
I4
sS'subj_freq'
p5203
I4
sS'display'
p5204
S'heritage of'
p5205
sS'prob'
p5206
F1.0
ssS'to relax <dobj>'
p5207
(dp5208
g1815
g3658
sg1817
I2
sg1818
I2
sg1819
S'to relax'
p5209
sg1821
F1.0
ssS'architecture during <np>'
p5210
(dp5211
S'type'
p5212
S'np'
p5213
sS'freq'
p5214
I1
sS'subj_freq'
p5215
I1
sS'display'
p5216
S'architecture during'
p5217
sS'prob'
p5218
F1.0
ssS'left stuff in <np>'
p5219
(dp5220
g2156
I5
sg2157
I5
sg2158
S'np'
p5221
sg2160
S'left stuff in'
p5222
sg2162
F1.0
ssS'<subj> build'
p5223
(dp5224
g475
I7
sg476
I7
sg477
g497
sg479
S'build'
p5225
sg481
F1.0
ssS'located <dobj>'
p5226
(dp5227
g70
S'dobj'
p5228
sg72
I7
sg73
I4
sg74
S'located'
p5229
sg76
F0.5714285714285714
ssS'<subj> was was'
p5230
(dp5231
g1038
I4
sg1039
I4
sg1040
g3290
sg1042
S'was was'
p5232
sg1044
F1.0
ssS'to making <dobj>'
p5233
(dp5234
g2380
I6
sg2381
I6
sg2382
g3339
sg2384
S'to making'
p5235
sg2386
F1.0
ssS'remind <dobj>'
p5236
(dp5237
g1912
I4
sg1913
I4
sg1914
g3923
sg1916
S'remind'
p5238
sg1918
F1.0
ssS'<subj> do privilege'
p5239
(dp5240
g173
I7
sg174
I7
sg175
g176
sg177
S'do privilege'
p5241
sg179
F1.0
ssS'<subj> says'
p5242
(dp5243
g57
g1573
sg59
I9
sg60
I9
sg61
S'says'
p5244
sg63
F1.0
ssS"'re <dobj>"
p5245
(dp5246
g97
g98
sg99
I55
sg100
I55
sg101
S"'re"
p5247
sg103
F1.0
ssS'<subj> used'
p5248
(dp5249
g501
g1162
sg503
I9
sg504
I7
sg505
S'used'
p5250
sg507
F0.7777777777777778
ssS'<subj> have powers'
p5251
(dp5252
S'subj_freq'
p5253
I1
sS'freq'
p5254
I1
sS'type'
p5255
S'subj'
p5256
sS'display'
p5257
S'have powers'
p5258
sS'prob'
p5259
F1.0
ssS'<subj> fly way'
p5260
(dp5261
g3220
g3221
sg3222
I2
sg3223
I2
sg3224
S'fly way'
p5262
sg3226
F1.0
ssS'<subj> quench'
p5263
(dp5264
S'type'
p5265
S'subj'
p5266
sS'freq'
p5267
I1
sS'subj_freq'
p5268
I1
sS'display'
p5269
S'quench'
p5270
sS'prob'
p5271
F1.0
ssS'<subj> make Beach'
p5272
(dp5273
g1815
g1816
sg1817
I2
sg1818
I2
sg1819
S'make Beach'
p5274
sg1821
F1.0
ssS'<subj> glittering proof'
p5275
(dp5276
g4930
S'subj'
p5277
sg4932
I1
sg4933
I1
sg4934
S'glittering proof'
p5278
sg4936
F1.0
ssS'<subj> do travel'
p5279
(dp5280
S'subj_freq'
p5281
I1
sS'freq'
p5282
I1
sS'type'
p5283
S'subj'
p5284
sS'display'
p5285
S'do travel'
p5286
sS'prob'
p5287
F1.0
ssS'<subj> suggests'
p5288
(dp5289
g2543
I0
sg2544
I17
sg2545
S'subj'
p5290
sg2547
S'suggests'
p5291
sg2549
F0.0
ssS'appreciate <dobj>'
p5292
(dp5293
g3141
S'dobj'
p5294
sg3143
I1
sg3144
I1
sg3145
S'appreciate'
p5295
sg3147
F1.0
ssS'<subj> required happiness'
p5296
(dp5297
g453
g652
sg455
I7
sg456
I7
sg457
S'required happiness'
p5298
sg459
F1.0
ssS'to demonstrate <dobj>'
p5299
(dp5300
g558
g4729
sg560
I2
sg561
I2
sg562
S'to demonstrate'
p5301
sg564
F1.0
ssS"<subj> 's season"
p5302
(dp5303
S'subj_freq'
p5304
I1
sS'freq'
p5305
I1
sS'type'
p5306
S'subj'
p5307
sS'display'
p5308
S"'s season"
p5309
sS'prob'
p5310
F1.0
ssS'probing <dobj>'
p5311
(dp5312
g88
I42
sg89
I42
sg90
g2018
sg92
S'probing'
p5313
sg94
F1.0
ssS'<subj> uses'
p5314
(dp5315
g2466
S'subj'
p5316
sg2468
I17
sg2469
I17
sg2470
S'uses'
p5317
sg2472
F1.0
ssS'<subj> reject'
p5318
(dp5319
g1230
I21
sg1231
I21
sg1232
g1384
sg1234
S'reject'
p5320
sg1236
F1.0
ssS'bless <dobj>'
p5321
(dp5322
g396
I9
sg397
I9
sg398
g399
sg400
S'bless'
p5323
sg402
F1.0
ssS'<subj> discover place'
p5324
(dp5325
g3294
S'subj'
p5326
sg3296
I1
sg3297
I1
sg3298
S'discover place'
p5327
sg3300
F1.0
ssS'deliver <dobj>'
p5328
(dp5329
g4526
g5137
sg4528
I4
sg4529
I4
sg4530
S'deliver'
p5330
sg4532
F1.0
ssS'home with <np>'
p5331
(dp5332
g30
S'np'
p5333
sg32
I2
sg33
I2
sg34
S'home with'
p5334
sg36
F1.0
ssS'<subj> speak'
p5335
(dp5336
g2884
I7
sg2885
I7
sg2886
S'subj'
p5337
sg2888
S'speak'
p5338
sg2890
F1.0
ssS'<subj> become help'
p5339
(dp5340
g2419
g5095
sg2421
I13
sg2422
I13
sg2423
S'become help'
p5341
sg2425
F1.0
ssS'<subj> was converted'
p5342
(dp5343
g910
g911
sg912
I5
sg913
I0
sg914
S'was converted'
p5344
sg916
F0.0
ssS'<subj> exploring'
p5345
(dp5346
g3294
g5326
sg3296
I1
sg3297
I1
sg3298
S'exploring'
p5347
sg3300
F1.0
ssS'delight while <np>'
p5348
(dp5349
S'type'
p5350
S'np'
p5351
sS'freq'
p5352
I1
sS'subj_freq'
p5353
I1
sS'display'
p5354
S'delight while'
p5355
sS'prob'
p5356
F1.0
ssS'<subj> booked'
p5357
(dp5358
g972
I0
sg973
I1
sg974
g1473
sg976
S'booked'
p5359
sg978
F0.0
ssS'bathing <dobj>'
p5360
(dp5361
g1375
g1376
sg1377
I1
sg1378
I0
sg1379
S'bathing'
p5362
sg1381
F0.0
ssS'<subj> started'
p5363
(dp5364
g4030
I0
sg4031
I2
sg4032
S'subj'
p5365
sg4034
S'started'
p5366
sg4036
F0.0
ssS'enjoy <dobj>'
p5367
(dp5368
g3603
g4363
sg3605
I4
sg3606
I4
sg3607
S'enjoy'
p5369
sg3609
F1.0
ssS'<subj> deserts'
p5370
(dp5371
g5024
S'subj'
p5372
sg5026
I1
sg5027
I1
sg5028
S'deserts'
p5373
sg5030
F1.0
ssS'quit <dobj>'
p5374
(dp5375
g779
g1603
sg781
I4
sg782
I4
sg783
S'quit'
p5376
sg785
F1.0
ssS'love <dobj>'
p5377
(dp5378
g4442
I9
sg4443
I9
sg4444
S'dobj'
p5379
sg4446
S'love'
p5380
sg4448
F1.0
ssS'<subj> offers'
p5381
(dp5382
g3530
S'subj'
p5383
sg3532
I6
sg3533
I5
sg3534
S'offers'
p5384
sg3536
F0.8333333333333334
ssS'<subj> performing'
p5385
(dp5386
g2265
I1
sg2266
I1
sg2267
S'subj'
p5387
sg2269
S'performing'
p5388
sg2271
F1.0
ssS'<subj> fail'
p5389
(dp5390
g1455
g1884
sg1457
I27
sg1458
I27
sg1459
S'fail'
p5391
sg1461
F1.0
ssS'<subj> blessed'
p5392
(dp5393
g4743
S'subj'
p5394
sg4745
I1
sg4746
I1
sg4747
S'blessed'
p5395
sg4749
F1.0
ssS'need to try <dobj>'
p5396
(dp5397
g4670
S'dobj'
p5398
sg4672
I23
sg4673
I23
sg4674
S'need to try'
p5399
sg4676
F1.0
ssS'<subj> have boats'
p5400
(dp5401
g3141
g3142
sg3143
I1
sg3144
I1
sg3145
S'have boats'
p5402
sg3147
F1.0
ssS'<subj> enchant'
p5403
(dp5404
g3546
I1
sg3547
I1
sg3548
S'subj'
p5405
sg3550
S'enchant'
p5406
sg3552
F1.0
ssS'dominating <dobj>'
p5407
(dp5408
g97
g98
sg99
I21
sg100
I21
sg101
S'dominating'
p5409
sg103
F1.0
ssS'<subj> glittering'
p5410
(dp5411
g4930
g5277
sg4932
I1
sg4933
I1
sg4934
S'glittering'
p5412
sg4936
F1.0
ssS'shown <dobj>'
p5413
(dp5414
g607
g1345
sg609
I42
sg610
I42
sg611
S'shown'
p5415
sg613
F1.0
ssS'<subj> sending army'
p5416
(dp5417
g475
I7
sg476
I7
sg477
g497
sg479
S'sending army'
p5418
sg481
F1.0
ssS'<subj> inaugurated today'
p5419
(dp5420
g339
g340
sg341
I2
sg342
I2
sg343
S'inaugurated today'
p5421
sg345
F1.0
ssS'<subj> set'
p5422
(dp5423
g3603
g3604
sg3605
I2
sg3606
I2
sg3607
S'set'
p5424
sg3609
F1.0
ssS'art of <np>'
p5425
(dp5426
S'type'
p5427
S'np'
p5428
sS'freq'
p5429
I4
sS'subj_freq'
p5430
I0
sS'display'
p5431
S'art of'
p5432
sS'prob'
p5433
F0.0
ssS'<subj> denied'
p5434
(dp5435
g1230
I21
sg1231
I21
sg1232
g1384
sg1234
S'denied'
p5436
sg1236
F1.0
ssS'created <dobj>'
p5437
(dp5438
g549
I1
sg550
I5
sg551
S'dobj'
p5439
sg553
S'created'
p5440
sg555
F0.2
ssS'<subj> need search'
p5441
(dp5442
g687
I21
sg688
I21
sg689
g690
sg691
S'need search'
p5443
sg693
F1.0
ssS'<subj> incurred'
p5444
(dp5445
g2875
I0
sg2876
I2
sg2877
g2878
sg2879
S'incurred'
p5446
sg2881
F0.0
ssS'<subj> inaugurated'
p5447
(dp5448
g1542
I3
sg1543
I6
sg1544
S'subj'
p5449
sg1546
S'inaugurated'
p5450
sg1548
F0.5
ssS'interview on <np>'
p5451
(dp5452
g1989
I21
sg1990
I21
sg1991
S'np'
p5453
sg1993
S'interview on'
p5454
sg1995
F1.0
ssS'celebrate <dobj>'
p5455
(dp5456
g357
I5
sg358
I5
sg359
g360
sg361
S'celebrate'
p5457
sg363
F1.0
ssS'<subj> celebrating'
p5458
(dp5459
g1175
I2
sg1176
I2
sg1177
S'subj'
p5460
sg1179
S'celebrating'
p5461
sg1181
F1.0
ssS'<subj> providing way'
p5462
(dp5463
g348
I21
sg349
I21
sg350
g3570
sg352
S'providing way'
p5464
sg354
F1.0
ssS'<subj> have fish'
p5465
(dp5466
g1011
g1012
sg1013
I3
sg1014
I3
sg1015
S'have fish'
p5467
sg1017
F1.0
ssS'talking <dobj>'
p5468
(dp5469
g1989
I21
sg1990
I21
sg1991
S'dobj'
p5470
sg1993
S'talking'
p5471
sg1995
F1.0
ssS'<subj> produces euphoria'
p5472
(dp5473
g1641
g4597
sg1643
I7
sg1644
I7
sg1645
S'produces euphoria'
p5474
sg1647
F1.0
ssS'recommend <dobj>'
p5475
(dp5476
g2202
g2203
sg2204
I2
sg2205
I2
sg2206
S'recommend'
p5477
sg2208
F1.0
ssS'<subj> is was'
p5478
(dp5479
g57
g1573
sg59
I9
sg60
I9
sg61
S'is was'
p5480
sg63
F1.0
ssS'<subj> seeing clutter'
p5481
(dp5482
g1126
g1127
sg1128
I7
sg1129
I7
sg1130
S'seeing clutter'
p5483
sg1132
F1.0
ssS'<subj> according to required'
p5484
(dp5485
g453
g652
sg455
I7
sg456
I7
sg457
S'according to required'
p5486
sg459
F1.0
ssS'<subj> go'
p5487
(dp5488
g4342
I2
sg4343
I2
sg4344
S'subj'
p5489
sg4346
S'go'
p5490
sg4348
F1.0
ssS'say <dobj>'
p5491
(dp5492
g1989
I68
sg1990
I68
sg1991
g5470
sg1993
S'say'
p5493
sg1995
F1.0
ssS'<subj> heed'
p5494
(dp5495
g990
I7
sg991
I7
sg992
g1069
sg994
S'heed'
p5496
sg996
F1.0
ssS'to creating <dobj>'
p5497
(dp5498
g2057
g3486
sg2059
I9
sg2060
I9
sg2061
S'to creating'
p5499
sg2063
F1.0
ssS'<subj> leads'
p5500
(dp5501
g625
g626
sg627
I22
sg628
I21
sg629
S'leads'
p5502
sg631
F0.9545454545454546
ssS'<subj> state'
p5503
(dp5504
g3031
I23
sg3032
I23
sg3033
S'subj'
p5505
sg3035
S'state'
p5506
sg3037
F1.0
ssS'<subj> explore'
p5507
(dp5508
g405
S'subj'
p5509
sg407
I2
sg408
I2
sg409
S'explore'
p5510
sg411
F1.0
ssS'<subj> uses Europe'
p5511
(dp5512
g2466
g5316
sg2468
I17
sg2469
I17
sg2470
S'uses Europe'
p5513
sg2472
F1.0
ssS'<subj> selling'
p5514
(dp5515
g4157
g4158
sg4159
I16
sg4160
I16
sg4161
S'selling'
p5516
sg4163
F1.0
ssS'to claim <dobj>'
p5517
(dp5518
g97
g98
sg99
I21
sg100
I21
sg101
S'to claim'
p5519
sg103
F1.0
ssS'<subj> claim'
p5520
(dp5521
g97
g1329
sg99
I28
sg100
I28
sg101
S'claim'
p5522
sg103
F1.0
ssS'<subj> transforms'
p5523
(dp5524
g1964
I1
sg1965
I1
sg1966
S'subj'
p5525
sg1968
S'transforms'
p5526
sg1970
F1.0
ssS'<subj> began'
p5527
(dp5528
g2249
I1
sg2250
I3
sg2251
S'subj'
p5529
sg2253
S'began'
p5530
sg2255
F0.3333333333333333
ssS'lead by <np>'
p5531
(dp5532
g2419
g2420
sg2421
I13
sg2422
I13
sg2423
S'lead by'
p5533
sg2425
F1.0
ssS'<subj> makes beach'
p5534
(dp5535
g2494
g2647
sg2496
I1
sg2497
I1
sg2498
S'makes beach'
p5536
sg2500
F1.0
ssS'attend <dobj>'
p5537
(dp5538
g1153
I2
sg1154
I2
sg1155
S'dobj'
p5539
sg1157
S'attend'
p5540
sg1159
F1.0
ssS'<subj> saw Education'
p5541
(dp5542
g1803
I7
sg1804
I7
sg1805
g1806
sg1807
S'saw Education'
p5543
sg1809
F1.0
ssS'<subj> witnessed'
p5544
(dp5545
g57
g1573
sg59
I9
sg60
I9
sg61
S'witnessed'
p5546
sg63
F1.0
ssS'made <dobj>'
p5547
(dp5548
g1632
g2630
sg1634
I32
sg1635
I32
sg1636
S'made'
p5549
sg1638
F1.0
ssS'<subj> become incomprehensible'
p5550
(dp5551
g88
I42
sg89
I42
sg90
g1184
sg92
S'become incomprehensible'
p5552
sg94
F1.0
ssS'<subj> was inaugurated'
p5553
(dp5554
g1542
I0
sg1543
I2
sg1544
g5449
sg1546
S'was inaugurated'
p5555
sg1548
F0.0
ssS'announce <dobj>'
p5556
(dp5557
g3070
I2
sg3071
I2
sg3072
g3384
sg3074
S'announce'
p5558
sg3076
F1.0
ssS'<subj> offers Great'
p5559
(dp5560
g5024
g5372
sg5026
I1
sg5027
I1
sg5028
S'offers Great'
p5561
sg5030
F1.0
ssS'<subj> held'
p5562
(dp5563
g2728
g4872
sg2730
I2
sg2731
I1
sg2732
S'held'
p5564
sg2734
F0.5
ssS'<subj> sounds'
p5565
(dp5566
g281
I22
sg282
I22
sg283
g284
sg285
S'sounds'
p5567
sg287
F1.0
ssS'<subj> taken'
p5568
(dp5569
g2457
g2458
sg2459
I1
sg2460
I1
sg2461
S'taken'
p5570
sg2463
F1.0
ssS'visiting <dobj>'
p5571
(dp5572
g3193
I6
sg3194
I6
sg3195
S'dobj'
p5573
sg3197
S'visiting'
p5574
sg3199
F1.0
ssS'<subj> has stuff'
p5575
(dp5576
g2156
I5
sg2157
I5
sg2158
g2159
sg2160
S'has stuff'
p5577
sg2162
F1.0
ssS'<subj> give'
p5578
(dp5579
g5173
S'subj'
p5580
sg5175
I11
sg5176
I11
sg5177
S'give'
p5581
sg5179
F1.0
ssS'<subj> bring'
p5582
(dp5583
g1409
g1410
sg1411
I3
sg1412
I3
sg1413
S'bring'
p5584
sg1415
F1.0
ssS'<subj> announce judges'
p5585
(dp5586
g3070
I2
sg3071
I2
sg3072
g3073
sg3074
S'announce judges'
p5587
sg3076
F1.0
ssS'gearing <dobj>'
p5588
(dp5589
g1248
I0
sg1249
I1
sg1250
S'dobj'
p5590
sg1252
S'gearing'
p5591
sg1254
F0.0
ssS'<subj> spend holidays'
p5592
(dp5593
g1053
g2053
sg1055
I2
sg1056
I2
sg1057
S'spend holidays'
p5594
sg1059
F1.0
ssS'<subj> gets'
p5595
(dp5596
g1020
I1
sg1021
I1
sg1022
S'subj'
p5597
sg1024
S'gets'
p5598
sg1026
F1.0
ssS'fall <dobj>'
p5599
(dp5600
g919
I1
sg920
I1
sg921
S'dobj'
p5601
sg923
S'fall'
p5602
sg925
F1.0
ssS'giving <dobj>'
p5603
(dp5604
g3169
g3170
sg3171
I2
sg3172
I2
sg3173
S'giving'
p5605
sg3175
F1.0
ssS'made fun of <np>'
p5606
(dp5607
g1209
I7
sg1210
I7
sg1211
S'np'
p5608
sg1213
S'made fun of'
p5609
sg1215
F1.0
ssS'maintained <dobj>'
p5610
(dp5611
g880
S'dobj'
p5612
sg882
I4
sg883
I0
sg884
S'maintained'
p5613
sg886
F0.0
ssS'look <dobj>'
p5614
(dp5615
g3012
S'dobj'
p5616
sg3014
I4
sg3015
I4
sg3016
S'look'
p5617
sg3018
F1.0
ssS'<subj> help'
p5618
(dp5619
g779
g780
sg781
I7
sg782
I7
sg783
S'help'
p5620
sg785
F1.0
ssS'to do <dobj>'
p5621
(dp5622
g1104
I49
sg1105
I49
sg1106
g4193
sg1108
S'to do'
p5623
sg1110
F1.0
ssS'<subj> told'
p5624
(dp5625
g892
g893
sg894
I19
sg895
I19
sg896
S'told'
p5626
sg898
F1.0
ssS'<subj> providing'
p5627
(dp5628
g348
I21
sg349
I21
sg350
g3570
sg352
S'providing'
p5629
sg354
F1.0
ssS'did <dobj>'
p5630
(dp5631
g714
g2307
sg716
I16
sg717
I16
sg718
S'did'
p5632
sg720
F1.0
ssV<subj> posted people
p5633
(dp5634
g375
I2
sg376
I2
sg377
g378
sg379
Vposted people
p5635
sg381
F1.0
ssS'converted <dobj>'
p5636
(dp5637
g910
S'dobj'
p5638
sg912
I9
sg913
I4
sg914
S'converted'
p5639
sg916
F0.4444444444444444
ssS'<subj> has ocean'
p5640
(dp5641
g218
I7
sg219
I7
sg220
g4404
sg222
S'has ocean'
p5642
sg224
F1.0
ssS'<subj> takes'
p5643
(dp5644
g1307
S'subj'
p5645
sg1309
I2
sg1310
I0
sg1311
S'takes'
p5646
sg1313
F0.0
ssS'<subj> deserts world'
p5647
(dp5648
g5024
g5372
sg5026
I1
sg5027
I1
sg5028
S'deserts world'
p5649
sg5030
F1.0
ssS'taking <dobj>'
p5650
(dp5651
g2419
S'dobj'
p5652
sg2421
I17
sg2422
I17
sg2423
S'taking'
p5653
sg2425
F1.0
ssS'<subj> has India'
p5654
(dp5655
g809
I4
sg810
I4
sg811
g812
sg813
S'has India'
p5656
sg815
F1.0
ssS'exhibiting <dobj>'
p5657
(dp5658
g110
I0
sg111
I1
sg112
S'dobj'
p5659
sg114
S'exhibiting'
p5660
sg116
F0.0
ssS'<subj> call heart'
p5661
(dp5662
g4245
g4246
sg4247
I2
sg4248
I2
sg4249
S'call heart'
p5663
sg4251
F1.0
ssS'<subj> standing'
p5664
(dp5665
g3422
g3423
sg3424
I2
sg3425
I2
sg3426
S'standing'
p5666
sg3428
F1.0
ssS'<subj> stand respect'
p5667
(dp5668
g576
I1
sg577
I1
sg578
g579
sg580
S'stand respect'
p5669
sg582
F1.0
ssS'stop <dobj>'
p5670
(dp5671
g1632
g2630
sg1634
I21
sg1635
I21
sg1636
S'stop'
p5672
sg1638
F1.0
ssS'imposing <dobj>'
p5673
(dp5674
g5128
I1
sg5129
I1
sg5130
S'dobj'
p5675
sg5132
S'imposing'
p5676
sg5134
F1.0
ssS'called <dobj>'
p5677
(dp5678
g1316
S'dobj'
p5679
sg1318
I3
sg1319
I3
sg1320
S'called'
p5680
sg1322
F1.0
ssS'Fair at <np>'
p5681
(dp5682
g5281
I1
sg5282
I1
sg5283
S'np'
p5683
sg5285
S'Fair at'
p5684
sg5287
F1.0
ssS'<subj> awaits past'
p5685
(dp5686
g2605
S'subj'
p5687
sg2607
I1
sg2608
I1
sg2609
S'awaits past'
p5688
sg2611
F1.0
ssS'leave <dobj>'
p5689
(dp5690
g1397
I1
sg1398
I1
sg1399
g1400
sg1401
S'leave'
p5691
sg1403
F1.0
ssS'<subj> sending'
p5692
(dp5693
g475
I7
sg476
I7
sg477
g497
sg479
S'sending'
p5694
sg481
F1.0
ssS'<subj> carved'
p5695
(dp5696
g3839
g3840
sg3841
I1
sg3842
I0
sg3843
S'carved'
p5697
sg3845
F0.0
ssS'<subj> done to reduced'
p5698
(dp5699
g1011
g1012
sg1013
I3
sg1014
I3
sg1015
S'done to reduced'
p5700
sg1017
F1.0
ssS'<subj> awaits'
p5701
(dp5702
g2605
g5687
sg2607
I1
sg2608
I1
sg2609
S'awaits'
p5703
sg2611
F1.0
ssS'to added <dobj>'
p5704
(dp5705
g128
g3744
sg130
I4
sg131
I4
sg132
S'to added'
p5706
sg134
F1.0
ssS'<subj> pays'
p5707
(dp5708
g128
g129
sg130
I4
sg131
I4
sg132
S'pays'
p5709
sg134
F1.0
ssS'<subj> have ruling'
p5710
(dp5711
g263
g264
sg265
I21
sg266
I21
sg267
S'have ruling'
p5712
sg269
F1.0
ssS'<subj> got'
p5713
(dp5714
g57
g1573
sg59
I9
sg60
I9
sg61
S'got'
p5715
sg63
F1.0
ssS'<subj> sees'
p5716
(dp5717
g88
I42
sg89
I42
sg90
g1184
sg92
S'sees'
p5718
sg94
F1.0
ssS'explains <dobj>'
p5719
(dp5720
g88
I42
sg89
I42
sg90
g2018
sg92
S'explains'
p5721
sg94
F1.0
ssS'lit <dobj>'
p5722
(dp5723
g1464
S'dobj'
p5724
sg1466
I1
sg1467
I1
sg1468
S'lit'
p5725
sg1470
F1.0
ssS'<subj> quit years'
p5726
(dp5727
g779
g780
sg781
I4
sg782
I4
sg783
S'quit years'
p5728
sg785
F1.0
ssS'<subj> lies heart'
p5729
(dp5730
S'type'
p5731
S'subj'
p5732
sS'freq'
p5733
I1
sS'subj_freq'
p5734
I1
sS'display'
p5735
S'lies heart'
p5736
sS'prob'
p5737
F1.0
ssS'<subj> moved'
p5738
(dp5739
g501
g1162
sg503
I7
sg504
I7
sg505
S'moved'
p5740
sg507
F1.0
ssS'<subj> making'
p5741
(dp5742
g1477
I34
sg1478
I34
sg1479
g1581
sg1481
S'making'
p5743
sg1483
F1.0
ssS'gave <dobj>'
p5744
(dp5745
g1126
g3702
sg1128
I7
sg1129
I7
sg1130
S'gave'
p5746
sg1132
F1.0
ssS'unveiled <dobj>'
p5747
(dp5748
g656
g2049
sg658
I10
sg659
I10
sg660
S'unveiled'
p5749
sg662
F1.0
ssS'written <dobj>'
p5750
(dp5751
g2380
I6
sg2381
I6
sg2382
g3339
sg2384
S'written'
p5752
sg2386
F1.0
ssS'<subj> governing ruling'
p5753
(dp5754
g263
g264
sg265
I21
sg266
I21
sg267
S'governing ruling'
p5755
sg269
F1.0
ssS'please <dobj>'
p5756
(dp5757
g3178
I6
sg3179
I6
sg3180
S'dobj'
p5758
sg3182
S'please'
p5759
sg3184
F1.0
ssS'bothered <dobj>'
p5760
(dp5761
g959
I6
sg960
I6
sg961
g2741
sg963
S'bothered'
p5762
sg965
F1.0
ssS"<subj> 's moment"
p5763
(dp5764
S'type'
p5765
S'subj'
p5766
sS'freq'
p5767
I3
sS'subj_freq'
p5768
I3
sS'display'
p5769
S"'s moment"
p5770
sS'prob'
p5771
F1.0
ssS'conceded <dobj>'
p5772
(dp5773
g200
I7
sg201
I7
sg202
g585
sg204
S'conceded'
p5774
sg206
F1.0
ssS'<subj> are articulated'
p5775
(dp5776
g950
I9
sg951
I9
sg952
g2552
sg954
S'are articulated'
p5777
sg956
F1.0
ssS'making <dobj>'
p5778
(dp5779
g1477
I34
sg1478
I34
sg1479
S'dobj'
p5780
sg1481
S'making'
p5781
sg1483
F1.0
ssS'<subj> added'
p5782
(dp5783
g128
g129
sg130
I6
sg131
I5
sg132
S'added'
p5784
sg134
F0.8333333333333334
ssS'<subj> has love'
p5785
(dp5786
g57
g1573
sg59
I9
sg60
I9
sg61
S'has love'
p5787
sg63
F1.0
ssS'bringing <dobj>'
p5788
(dp5789
g2654
I26
sg2655
I26
sg2656
S'dobj'
p5790
sg2658
S'bringing'
p5791
sg2660
F1.0
ssS'<subj> given image'
p5792
(dp5793
g3622
g3623
sg3624
I2
sg3625
I2
sg3626
S'given image'
p5794
sg3628
F1.0
ssS'watching <dobj>'
p5795
(dp5796
g97
g98
sg99
I29
sg100
I29
sg101
S'watching'
p5797
sg103
F1.0
ssS'<subj> came'
p5798
(dp5799
g1803
I7
sg1804
I7
sg1805
g1806
sg1807
S'came'
p5800
sg1809
F1.0
ssS'<subj> taking'
p5801
(dp5802
g2419
g5095
sg2421
I17
sg2422
I17
sg2423
S'taking'
p5803
sg2425
F1.0
ssS'was held between <np>'
p5804
(dp5805
g2728
S'np'
p5806
sg2730
I1
sg2731
I0
sg2732
S'was held between'
p5807
sg2734
F0.0
ssS'<subj> conceded'
p5808
(dp5809
g200
I7
sg201
I7
sg202
g203
sg204
S'conceded'
p5810
sg206
F1.0
ssS'<subj> are used'
p5811
(dp5812
g3839
g3840
sg3841
I1
sg3842
I0
sg3843
S'are used'
p5813
sg3845
F0.0
ssS'<subj> have form'
p5814
(dp5815
g1641
g4597
sg1643
I7
sg1644
I7
sg1645
S'have form'
p5816
sg1647
F1.0
ssS'<subj> involves thrill'
p5817
(dp5818
g1623
g3888
sg1625
I1
sg1626
I1
sg1627
S'involves thrill'
p5819
sg1629
F1.0
ssS'<subj> operate'
p5820
(dp5821
g414
g415
sg416
I4
sg417
I4
sg418
S'operate'
p5822
sg420
F1.0
ssS'quench <dobj>'
p5823
(dp5824
g5265
S'dobj'
p5825
sg5267
I1
sg5268
I1
sg5269
S'quench'
p5826
sg5271
F1.0
ssS'<subj> escape'
p5827
(dp5828
g290
S'subj'
p5829
sg292
I1
sg293
I1
sg294
S'escape'
p5830
sg296
F1.0
ssS'<subj> restored years'
p5831
(dp5832
g2777
I2
sg2778
I2
sg2779
g2780
sg2781
S'restored years'
p5833
sg2783
F1.0
ssS'rate of <np>'
p5834
(dp5835
g3821
S'np'
p5836
sg3823
I21
sg3824
I21
sg3825
S'rate of'
p5837
sg3827
F1.0
ssS'<subj> created capital'
p5838
(dp5839
g549
I0
sg550
I4
sg551
g552
sg553
S'created capital'
p5840
sg555
F0.0
ssS'cost <dobj>'
p5841
(dp5842
g4627
I1
sg4628
I1
sg4629
S'dobj'
p5843
sg4631
S'cost'
p5844
sg4633
F1.0
ssS'<subj> is used'
p5845
(dp5846
S'subj_freq'
p5847
I0
sS'freq'
p5848
I1
sS'type'
p5849
S'subj'
p5850
sS'display'
p5851
S'is used'
p5852
sS'prob'
p5853
F0.0
ssS'<subj> was fell'
p5854
(dp5855
g748
I1
sg749
I1
sg750
g751
sg752
S'was fell'
p5856
sg754
F1.0
ssS'<subj> have been misled'
p5857
(dp5858
g1230
I21
sg1231
I21
sg1232
g1384
sg1234
S'have been misled'
p5859
sg1236
F1.0
ssS'portraying characters from <np>'
p5860
(dp5861
g1741
I0
sg1742
I1
sg1743
S'np'
p5862
sg1745
S'portraying characters from'
p5863
sg1747
F0.0
ssS'<subj> want hall'
p5864
(dp5865
S'subj_freq'
p5866
I7
sS'freq'
p5867
I7
sS'type'
p5868
S'subj'
p5869
sS'display'
p5870
S'want hall'
p5871
sS'prob'
p5872
F1.0
ssS'food in <np>'
p5873
(dp5874
S'subj_freq'
p5875
I2
sS'freq'
p5876
I2
sS'type'
p5877
S'np'
p5878
sS'display'
p5879
S'food in'
p5880
sS'prob'
p5881
F1.0
ssS'loved <dobj>'
p5882
(dp5883
g1912
I6
sg1913
I6
sg1914
g3923
sg1916
S'loved'
p5884
sg1918
F1.0
ssS'<subj> be surprised'
p5885
(dp5886
g3
I1
sg4
I1
sg5
g6
sg7
S'be surprised'
p5887
sg9
F1.0
ssS'<subj> doing network'
p5888
(dp5889
g97
g1329
sg99
I21
sg100
I21
sg101
S'doing network'
p5890
sg103
F1.0
ss.