(dp0
S"'ve <dobj>"
p1
(dp2
S'type'
p3
S'dobj'
p4
sS'freq'
p5
I22
sS'subj_freq'
p6
I22
sS'display'
p7
S"'ve"
p8
sS'prob'
p9
F1.0
ssS'changing <dobj>'
p10
(dp11
S'type'
p12
S'dobj'
p13
sS'freq'
p14
I9
sS'subj_freq'
p15
I9
sS'display'
p16
S'changing'
p17
sS'prob'
p18
F1.0
ssS'assertion that <np>'
p19
(dp20
S'subj_freq'
p21
I7
sS'freq'
p22
I7
sS'type'
p23
S'np'
p24
sS'display'
p25
S'assertion that'
p26
sS'prob'
p27
F1.0
ssS'cause <dobj>'
p28
(dp29
S'type'
p30
S'dobj'
p31
sS'freq'
p32
I9
sS'subj_freq'
p33
I9
sS'display'
p34
S'cause'
p35
sS'prob'
p36
F1.0
ssS'thinks sister of <np>'
p37
(dp38
g30
S'np'
p39
sg32
I9
sg33
I9
sg34
S'thinks sister of'
p40
sg36
F1.0
ssS'put focus on <np>'
p41
(dp42
S'subj_freq'
p43
I42
sS'freq'
p44
I42
sS'type'
p45
S'np'
p46
sS'display'
p47
S'put focus on'
p48
sS'prob'
p49
F1.0
ssS'claim <dobj>'
p50
(dp51
S'type'
p52
S'dobj'
p53
sS'freq'
p54
I28
sS'subj_freq'
p55
I28
sS'display'
p56
S'claim'
p57
sS'prob'
p58
F1.0
ssS"<subj> 've"
p59
(dp60
g3
S'subj'
p61
sg5
I22
sg6
I22
sg7
S"'ve"
p62
sg9
F1.0
ssS'<subj> hate world'
p63
(dp64
S'subj_freq'
p65
I9
sS'freq'
p66
I9
sS'type'
p67
S'subj'
p68
sS'display'
p69
S'hate world'
p70
sS'prob'
p71
F1.0
ssS'<subj> hold'
p72
(dp73
S'type'
p74
S'subj'
p75
sS'freq'
p76
I7
sS'subj_freq'
p77
I7
sS'display'
p78
S'hold'
p79
sS'prob'
p80
F1.0
ssS'<subj> belongs'
p81
(dp82
S'subj_freq'
p83
I7
sS'freq'
p84
I7
sS'type'
p85
S'subj'
p86
sS'display'
p87
S'belongs'
p88
sS'prob'
p89
F1.0
ssS'gives <dobj>'
p90
(dp91
S'subj_freq'
p92
I7
sS'freq'
p93
I7
sS'type'
p94
S'dobj'
p95
sS'display'
p96
S'gives'
p97
sS'prob'
p98
F1.0
ssS'<subj> knew Beijing'
p99
(dp100
S'subj_freq'
p101
I7
sS'freq'
p102
I7
sS'type'
p103
S'subj'
p104
sS'display'
p105
S'knew Beijing'
p106
sS'prob'
p107
F1.0
ssS'cut <dobj>'
p108
(dp109
S'subj_freq'
p110
I4
sS'freq'
p111
I4
sS'type'
p112
S'dobj'
p113
sS'display'
p114
S'cut'
p115
sS'prob'
p116
F1.0
ssS'deserved <dobj>'
p117
(dp118
S'subj_freq'
p119
I7
sS'freq'
p120
I7
sS'type'
p121
S'dobj'
p122
sS'display'
p123
S'deserved'
p124
sS'prob'
p125
F1.0
ssS'thinking <dobj>'
p126
(dp127
S'subj_freq'
p128
I21
sS'freq'
p129
I21
sS'type'
p130
S'dobj'
p131
sS'display'
p132
S'thinking'
p133
sS'prob'
p134
F1.0
ssS'according to required <dobj>'
p135
(dp136
S'type'
p137
S'dobj'
p138
sS'freq'
p139
I7
sS'subj_freq'
p140
I7
sS'display'
p141
S'according to required'
p142
sS'prob'
p143
F1.0
ssS'<subj> undo powers'
p144
(dp145
S'type'
p146
S'subj'
p147
sS'freq'
p148
I21
sS'subj_freq'
p149
I21
sS'display'
p150
S'undo powers'
p151
sS'prob'
p152
F1.0
ssS'<subj> excited topic'
p153
(dp154
S'type'
p155
S'subj'
p156
sS'freq'
p157
I21
sS'subj_freq'
p158
I21
sS'display'
p159
S'excited topic'
p160
sS'prob'
p161
F1.0
ssS'<subj> needed arthritis'
p162
(dp163
S'subj_freq'
p164
I7
sS'freq'
p165
I7
sS'type'
p166
S'subj'
p167
sS'display'
p168
S'needed arthritis'
p169
sS'prob'
p170
F1.0
ssS'produces <dobj>'
p171
(dp172
S'type'
p173
S'dobj'
p174
sS'freq'
p175
I7
sS'subj_freq'
p176
I7
sS'display'
p177
S'produces'
p178
sS'prob'
p179
F1.0
ssS'<subj> discussed'
p180
(dp181
S'subj_freq'
p182
I21
sS'freq'
p183
I21
sS'type'
p184
S'subj'
p185
sS'display'
p186
S'discussed'
p187
sS'prob'
p188
F1.0
ssS'<subj> complain'
p189
(dp190
S'type'
p191
S'subj'
p192
sS'freq'
p193
I21
sS'subj_freq'
p194
I21
sS'display'
p195
S'complain'
p196
sS'prob'
p197
F1.0
ssS'<subj> cut syndrome'
p198
(dp199
g110
I4
sg111
I4
sg112
S'subj'
p200
sg114
S'cut syndrome'
p201
sg116
F1.0
ssS'think <dobj>'
p202
(dp203
S'subj_freq'
p204
I74
sS'freq'
p205
I74
sS'type'
p206
S'dobj'
p207
sS'display'
p208
S'think'
p209
sS'prob'
p210
F1.0
ssS'<subj> belongs community'
p211
(dp212
g83
I7
sg84
I7
sg85
g86
sg87
S'belongs community'
p213
sg89
F1.0
ssS'sharing <dobj>'
p214
(dp215
S'subj_freq'
p216
I7
sS'freq'
p217
I7
sS'type'
p218
S'dobj'
p219
sS'display'
p220
S'sharing'
p221
sS'prob'
p222
F1.0
ssS'<subj> creating universe'
p223
(dp224
S'type'
p225
S'subj'
p226
sS'freq'
p227
I4
sS'subj_freq'
p228
I4
sS'display'
p229
S'creating universe'
p230
sS'prob'
p231
F1.0
ssS'<subj> seems'
p232
(dp233
S'subj_freq'
p234
I28
sS'freq'
p235
I28
sS'type'
p236
S'subj'
p237
sS'display'
p238
S'seems'
p239
sS'prob'
p240
F1.0
ssS'attributed <dobj>'
p241
(dp242
S'subj_freq'
p243
I10
sS'freq'
p244
I10
sS'type'
p245
S'dobj'
p246
sS'display'
p247
S'attributed'
p248
sS'prob'
p249
F1.0
ssS'according <dobj>'
p250
(dp251
g137
g138
sg139
I7
sg140
I7
sg141
S'according'
p252
sg143
F1.0
ssS'hate <dobj>'
p253
(dp254
g65
I9
sg66
I9
sg67
S'dobj'
p255
sg69
S'hate'
p256
sg71
F1.0
ssS'came <dobj>'
p257
(dp258
S'subj_freq'
p259
I7
sS'freq'
p260
I7
sS'type'
p261
S'dobj'
p262
sS'display'
p263
S'came'
p264
sS'prob'
p265
F1.0
ssS'to fight <dobj>'
p266
(dp267
S'subj_freq'
p268
I7
sS'freq'
p269
I7
sS'type'
p270
S'dobj'
p271
sS'display'
p272
S'to fight'
p273
sS'prob'
p274
F1.0
ssS'<subj> changing education'
p275
(dp276
g12
S'subj'
p277
sg14
I9
sg15
I9
sg16
S'changing education'
p278
sg18
F1.0
ssS'hold <dobj>'
p279
(dp280
g74
S'dobj'
p281
sg76
I7
sg77
I7
sg78
S'hold'
p282
sg80
F1.0
ssS'to accepted <dobj>'
p283
(dp284
S'type'
p285
S'dobj'
p286
sS'freq'
p287
I7
sS'subj_freq'
p288
I7
sS'display'
p289
S'to accepted'
p290
sS'prob'
p291
F1.0
ssS'<subj> needed'
p292
(dp293
S'subj_freq'
p294
I28
sS'freq'
p295
I28
sS'type'
p296
S'subj'
p297
sS'display'
p298
S'needed'
p299
sS'prob'
p300
F1.0
ssS'<subj> needed to teach'
p301
(dp302
g294
I21
sg295
I21
sg296
g297
sg298
S'needed to teach'
p303
sg300
F1.0
ssS'knew <dobj>'
p304
(dp305
g101
I7
sg102
I7
sg103
S'dobj'
p306
sg105
S'knew'
p307
sg107
F1.0
ssS'<subj> get input'
p308
(dp309
S'type'
p310
S'subj'
p311
sS'freq'
p312
I9
sS'subj_freq'
p313
I9
sS'display'
p314
S'get input'
p315
sS'prob'
p316
F1.0
ssS'<subj> attributed'
p317
(dp318
g243
I10
sg244
I10
sg245
S'subj'
p319
sg247
S'attributed'
p320
sg249
F1.0
ssS'<subj> solving'
p321
(dp322
S'type'
p323
S'subj'
p324
sS'freq'
p325
I21
sS'subj_freq'
p326
I21
sS'display'
p327
S'solving'
p328
sS'prob'
p329
F1.0
ssS'<subj> does'
p330
(dp331
S'type'
p332
S'subj'
p333
sS'freq'
p334
I47
sS'subj_freq'
p335
I47
sS'display'
p336
S'does'
p337
sS'prob'
p338
F1.0
ssS"'s <dobj>"
p339
(dp340
S'type'
p341
S'dobj'
p342
sS'freq'
p343
I176
sS'subj_freq'
p344
I176
sS'display'
p345
S"'s"
p346
sS'prob'
p347
F1.0
ssS'<subj> according'
p348
(dp349
g137
S'subj'
p350
sg139
I7
sg140
I7
sg141
S'according'
p351
sg143
F1.0
ssS'<subj> be unveiled'
p352
(dp353
S'type'
p354
S'subj'
p355
sS'freq'
p356
I9
sS'subj_freq'
p357
I9
sS'display'
p358
S'be unveiled'
p359
sS'prob'
p360
F1.0
ssS'sounds <dobj>'
p361
(dp362
S'subj_freq'
p363
I22
sS'freq'
p364
I22
sS'type'
p365
S'dobj'
p366
sS'display'
p367
S'sounds'
p368
sS'prob'
p369
F1.0
ssS'<subj> learn'
p370
(dp371
S'subj_freq'
p372
I7
sS'freq'
p373
I7
sS'type'
p374
S'subj'
p375
sS'display'
p376
S'learn'
p377
sS'prob'
p378
F1.0
ssS'<subj> needed education'
p379
(dp380
g294
I21
sg295
I21
sg296
g297
sg298
S'needed education'
p381
sg300
F1.0
ssS'<subj> going'
p382
(dp383
S'subj_freq'
p384
I7
sS'freq'
p385
I7
sS'type'
p386
S'subj'
p387
sS'display'
p388
S'going'
p389
sS'prob'
p390
F1.0
ssS'<subj> like'
p391
(dp392
S'type'
p393
S'subj'
p394
sS'freq'
p395
I9
sS'subj_freq'
p396
I9
sS'display'
p397
S'like'
p398
sS'prob'
p399
F1.0
ssS'<subj> gives'
p400
(dp401
g92
I7
sg93
I7
sg94
S'subj'
p402
sg96
S'gives'
p403
sg98
F1.0
ssS'presented <dobj>'
p404
(dp405
S'subj_freq'
p406
I9
sS'freq'
p407
I9
sS'type'
p408
S'dobj'
p409
sS'display'
p410
S'presented'
p411
sS'prob'
p412
F1.0
ssS'<subj> quit'
p413
(dp414
S'type'
p415
S'subj'
p416
sS'freq'
p417
I4
sS'subj_freq'
p418
I4
sS'display'
p419
S'quit'
p420
sS'prob'
p421
F1.0
ssS'<subj> given'
p422
(dp423
S'subj_freq'
p424
I7
sS'freq'
p425
I7
sS'type'
p426
S'subj'
p427
sS'display'
p428
S'given'
p429
sS'prob'
p430
F1.0
ssS'<subj> solving energy'
p431
(dp432
g323
g324
sg325
I21
sg326
I21
sg327
S'solving energy'
p433
sg329
F1.0
ssS'<subj> understand'
p434
(dp435
S'subj_freq'
p436
I7
sS'freq'
p437
I7
sS'type'
p438
S'subj'
p439
sS'display'
p440
S'understand'
p441
sS'prob'
p442
F1.0
ssS'<subj> defends'
p443
(dp444
S'type'
p445
S'subj'
p446
sS'freq'
p447
I9
sS'subj_freq'
p448
I9
sS'display'
p449
S'defends'
p450
sS'prob'
p451
F1.0
ssS'means <dobj>'
p452
(dp453
S'type'
p454
S'dobj'
p455
sS'freq'
p456
I41
sS'subj_freq'
p457
I41
sS'display'
p458
S'means'
p459
sS'prob'
p460
F1.0
ssS'<subj> poses'
p461
(dp462
S'type'
p463
S'subj'
p464
sS'freq'
p465
I9
sS'subj_freq'
p466
I9
sS'display'
p467
S'poses'
p468
sS'prob'
p469
F1.0
ssS'poses <dobj>'
p470
(dp471
g463
S'dobj'
p472
sg465
I9
sg466
I9
sg467
S'poses'
p473
sg469
F1.0
ssS'<subj> buy assertion'
p474
(dp475
g21
I7
sg22
I7
sg23
S'subj'
p476
sg25
S'buy assertion'
p477
sg27
F1.0
ssS'<subj> learn development'
p478
(dp479
g372
I7
sg373
I7
sg374
g375
sg376
S'learn development'
p480
sg378
F1.0
ssS'<subj> has years'
p481
(dp482
S'type'
p483
S'subj'
p484
sS'freq'
p485
I19
sS'subj_freq'
p486
I19
sS'display'
p487
S'has years'
p488
sS'prob'
p489
F1.0
ssS'prevent <dobj>'
p490
(dp491
S'subj_freq'
p492
I21
sS'freq'
p493
I21
sS'type'
p494
S'dobj'
p495
sS'display'
p496
S'prevent'
p497
sS'prob'
p498
F1.0
ssS'<subj> copied'
p499
(dp500
S'type'
p501
S'subj'
p502
sS'freq'
p503
I21
sS'subj_freq'
p504
I21
sS'display'
p505
S'copied'
p506
sS'prob'
p507
F1.0
ssS'belongs to do <dobj>'
p508
(dp509
g83
I7
sg84
I7
sg85
S'dobj'
p510
sg87
S'belongs to do'
p511
sg89
F1.0
ssS'to think <dobj>'
p512
(dp513
S'subj_freq'
p514
I9
sS'freq'
p515
I9
sS'type'
p516
S'dobj'
p517
sS'display'
p518
S'to think'
p519
sS'prob'
p520
F1.0
ssS'<subj> waste reason'
p521
(dp522
S'subj_freq'
p523
I6
sS'freq'
p524
I6
sS'type'
p525
S'subj'
p526
sS'display'
p527
S'waste reason'
p528
sS'prob'
p529
F1.0
ssS'complain <dobj>'
p530
(dp531
g191
S'dobj'
p532
sg193
I21
sg194
I21
sg195
S'complain'
p533
sg197
F1.0
ssS'take <dobj>'
p534
(dp535
S'subj_freq'
p536
I7
sS'freq'
p537
I7
sS'type'
p538
S'dobj'
p539
sS'display'
p540
S'take'
p541
sS'prob'
p542
F1.0
ssS'<subj> be undone'
p543
(dp544
g146
g147
sg148
I21
sg149
I21
sg150
S'be undone'
p545
sg152
F1.0
ssS'<subj> done environment'
p546
(dp547
S'type'
p548
S'subj'
p549
sS'freq'
p550
I3
sS'subj_freq'
p551
I3
sS'display'
p552
S'done environment'
p553
sS'prob'
p554
F1.0
ssS'walking <dobj>'
p555
(dp556
S'subj_freq'
p557
I4
sS'freq'
p558
I4
sS'type'
p559
S'dobj'
p560
sS'display'
p561
S'walking'
p562
sS'prob'
p563
F1.0
ssS'found <dobj>'
p564
(dp565
g285
g286
sg287
I7
sg288
I7
sg289
S'found'
p566
sg291
F1.0
ssS'<subj> need'
p567
(dp568
g234
I95
sg235
I95
sg236
g237
sg238
S'need'
p569
sg240
F1.0
ssS'<subj> waste'
p570
(dp571
g523
I6
sg524
I6
sg525
g526
sg527
S'waste'
p572
sg529
F1.0
ssS'<subj> do things'
p573
(dp574
S'subj_freq'
p575
I21
sS'freq'
p576
I21
sS'type'
p577
S'subj'
p578
sS'display'
p579
S'do things'
p580
sS'prob'
p581
F1.0
ssS'<subj> state'
p582
(dp583
S'subj_freq'
p584
I23
sS'freq'
p585
I23
sS'type'
p586
S'subj'
p587
sS'display'
p588
S'state'
p589
sS'prob'
p590
F1.0
ssS'<subj> been attributed'
p591
(dp592
g548
g549
sg550
I3
sg551
I3
sg552
S'been attributed'
p593
sg554
F1.0
ssS'<subj> led'
p594
(dp595
g445
g446
sg447
I9
sg448
I9
sg449
S'led'
p596
sg451
F1.0
ssS'<subj> do'
p597
(dp598
S'subj_freq'
p599
I249
sS'freq'
p600
I249
sS'type'
p601
S'subj'
p602
sS'display'
p603
S'do'
p604
sS'prob'
p605
F1.0
ssS'<subj> poses absence'
p606
(dp607
g463
g464
sg465
I9
sg466
I9
sg467
S'poses absence'
p608
sg469
F1.0
ssS'<subj> used Daniel'
p609
(dp610
g285
S'subj'
p611
sg287
I7
sg288
I7
sg289
S'used Daniel'
p612
sg291
F1.0
ssS'lost <dobj>'
p613
(dp614
S'type'
p615
S'dobj'
p616
sS'freq'
p617
I55
sS'subj_freq'
p618
I55
sS'display'
p619
S'lost'
p620
sS'prob'
p621
F1.0
ssS'<subj> become'
p622
(dp623
g43
I64
sg44
I64
sg45
S'subj'
p624
sg47
S'become'
p625
sg49
F1.0
ssS'<subj> threw'
p626
(dp627
S'subj_freq'
p628
I7
sS'freq'
p629
I7
sS'type'
p630
S'subj'
p631
sS'display'
p632
S'threw'
p633
sS'prob'
p634
F1.0
ssS'<subj> helps paralysis'
p635
(dp636
g310
g311
sg312
I9
sg313
I9
sg314
S'helps paralysis'
p637
sg316
F1.0
ssS'to misled <dobj>'
p638
(dp639
S'subj_freq'
p640
I21
sS'freq'
p641
I21
sS'type'
p642
S'dobj'
p643
sS'display'
p644
S'to misled'
p645
sS'prob'
p646
F1.0
ssS'belongs <dobj>'
p647
(dp648
g83
I7
sg84
I7
sg85
g510
sg87
S'belongs'
p649
sg89
F1.0
ssS'<subj> be interpreted'
p650
(dp651
S'subj_freq'
p652
I7
sS'freq'
p653
I7
sS'type'
p654
S'subj'
p655
sS'display'
p656
S'be interpreted'
p657
sS'prob'
p658
F1.0
ssS'excited <dobj>'
p659
(dp660
g155
S'dobj'
p661
sg157
I21
sg158
I21
sg159
S'excited'
p662
sg161
F1.0
ssS'analyze <dobj>'
p663
(dp664
S'subj_freq'
p665
I19
sS'freq'
p666
I19
sS'type'
p667
S'dobj'
p668
sS'display'
p669
S'analyze'
p670
sS'prob'
p671
F1.0
ssS'<subj> need to make'
p672
(dp673
g665
I19
sg666
I19
sg667
S'subj'
p674
sg669
S'need to make'
p675
sg671
F1.0
ssS'<subj> wait'
p676
(dp677
S'subj_freq'
p678
I4
sS'freq'
p679
I7
sS'type'
p680
S'subj'
p681
sS'display'
p682
S'wait'
p683
sS'prob'
p684
F0.5714285714285714
ssS'<subj> buy'
p685
(dp686
g21
I7
sg22
I7
sg23
g476
sg25
S'buy'
p687
sg27
F1.0
ssS'<subj> watching'
p688
(dp689
g52
S'subj'
p690
sg54
I27
sg55
I27
sg56
S'watching'
p691
sg58
F1.0
ssS'solving <dobj>'
p692
(dp693
g323
S'dobj'
p694
sg325
I21
sg326
I21
sg327
S'solving'
p695
sg329
F1.0
ssS'<subj> saves'
p696
(dp697
S'type'
p698
S'subj'
p699
sS'freq'
p700
I7
sS'subj_freq'
p701
I7
sS'display'
p702
S'saves'
p703
sS'prob'
p704
F1.0
ssS'<subj> have claim'
p705
(dp706
g640
I21
sg641
I21
sg642
S'subj'
p707
sg644
S'have claim'
p708
sg646
F1.0
ssS'get <dobj>'
p709
(dp710
g310
S'dobj'
p711
sg312
I26
sg313
I26
sg314
S'get'
p712
sg316
F1.0
ssS'live <dobj>'
p713
(dp714
g83
I16
sg84
I16
sg85
g510
sg87
S'live'
p715
sg89
F1.0
ssS'says <dobj>'
p716
(dp717
g30
g31
sg32
I9
sg33
I9
sg34
S'says'
p718
sg36
F1.0
ssS'stand <dobj>'
p719
(dp720
g204
I21
sg205
I21
sg206
g207
sg208
S'stand'
p721
sg210
F1.0
ssS'depressed <dobj>'
p722
(dp723
g191
g532
sg193
I21
sg194
I21
sg195
S'depressed'
p724
sg197
F1.0
ssS'<subj> hate'
p725
(dp726
g65
I9
sg66
I9
sg67
g68
sg69
S'hate'
p727
sg71
F1.0
ssS'fail to realize <dobj>'
p728
(dp729
g454
g455
sg456
I27
sg457
I27
sg458
S'fail to realize'
p730
sg460
F1.0
ssS'making war on <np>'
p731
(dp732
S'subj_freq'
p733
I21
sS'freq'
p734
I21
sS'type'
p735
S'np'
p736
sS'display'
p737
S'making war on'
p738
sS'prob'
p739
F1.0
ssS'getting <dobj>'
p740
(dp741
S'subj_freq'
p742
I7
sS'freq'
p743
I7
sS'type'
p744
S'dobj'
p745
sS'display'
p746
S'getting'
p747
sS'prob'
p748
F1.0
ssS'<subj> lies middle'
p749
(dp750
S'type'
p751
S'subj'
p752
sS'freq'
p753
I7
sS'subj_freq'
p754
I7
sS'display'
p755
S'lies middle'
p756
sS'prob'
p757
F1.0
ssS"<subj> 're triumph"
p758
(dp759
S'type'
p760
S'subj'
p761
sS'freq'
p762
I7
sS'subj_freq'
p763
I7
sS'display'
p764
S"'re triumph"
p765
sS'prob'
p766
F1.0
ssS'done <dobj>'
p767
(dp768
g760
S'dobj'
p769
sg762
I10
sg763
I10
sg764
S'done'
p770
sg766
F1.0
ssS'<subj> claim increase'
p771
(dp772
S'subj_freq'
p773
I7
sS'freq'
p774
I7
sS'type'
p775
S'subj'
p776
sS'display'
p777
S'claim increase'
p778
sS'prob'
p779
F1.0
ssS'<subj> changed'
p780
(dp781
S'type'
p782
S'subj'
p783
sS'freq'
p784
I7
sS'subj_freq'
p785
I7
sS'display'
p786
S'changed'
p787
sS'prob'
p788
F1.0
ssS'<subj> was happened'
p789
(dp790
g30
S'subj'
p791
sg32
I9
sg33
I9
sg34
S'was happened'
p792
sg36
F1.0
ssS'does <dobj>'
p793
(dp794
g332
S'dobj'
p795
sg334
I47
sg335
I47
sg336
S'does'
p796
sg338
F1.0
ssS'<subj> making war'
p797
(dp798
g733
I21
sg734
I21
sg735
S'subj'
p799
sg737
S'making war'
p800
sg739
F1.0
ssS'being <dobj>'
p801
(dp802
S'subj_freq'
p803
I21
sS'freq'
p804
I21
sS'type'
p805
S'dobj'
p806
sS'display'
p807
S'being'
p808
sS'prob'
p809
F1.0
ssS'help <dobj>'
p810
(dp811
g415
S'dobj'
p812
sg417
I4
sg418
I4
sg419
S'help'
p813
sg421
F1.0
ssS'rise in <np>'
p814
(dp815
g751
S'np'
p816
sg753
I7
sg754
I7
sg755
S'rise in'
p817
sg757
F1.0
ssS'<subj> fight terrorism'
p818
(dp819
g268
I7
sg269
I7
sg270
S'subj'
p820
sg272
S'fight terrorism'
p821
sg274
F1.0
ssS'<subj> contribute'
p822
(dp823
S'subj_freq'
p824
I9
sS'freq'
p825
I9
sS'type'
p826
S'subj'
p827
sS'display'
p828
S'contribute'
p829
sS'prob'
p830
F1.0
ssS'<subj> made conscience'
p831
(dp832
S'type'
p833
S'subj'
p834
sS'freq'
p835
I21
sS'subj_freq'
p836
I21
sS'display'
p837
S'made conscience'
p838
sS'prob'
p839
F1.0
ssS'want to hold <dobj>'
p840
(dp841
g74
g281
sg76
I7
sg77
I7
sg78
S'want to hold'
p842
sg80
F1.0
ssS'wait <dobj>'
p843
(dp844
g678
I4
sg679
I7
sg680
S'dobj'
p845
sg682
S'wait'
p846
sg684
F0.5714285714285714
ssS'<subj> did'
p847
(dp848
g393
g394
sg395
I14
sg396
I14
sg397
S'did'
p849
sg399
F1.0
ssS'wants <dobj>'
p850
(dp851
S'subj_freq'
p852
I7
sS'freq'
p853
I7
sS'type'
p854
S'dobj'
p855
sS'display'
p856
S'wants'
p857
sS'prob'
p858
F1.0
ssS'<subj> appears'
p859
(dp860
S'type'
p861
S'subj'
p862
sS'freq'
p863
I21
sS'subj_freq'
p864
I21
sS'display'
p865
S'appears'
p866
sS'prob'
p867
F1.0
ssS'<subj> want evolution'
p868
(dp869
S'type'
p870
S'subj'
p871
sS'freq'
p872
I23
sS'subj_freq'
p873
I23
sS'display'
p874
S'want evolution'
p875
sS'prob'
p876
F1.0
ssS'<subj> belongs opinion'
p877
(dp878
g83
I7
sg84
I7
sg85
g86
sg87
S'belongs opinion'
p879
sg89
F1.0
ssS'<subj> offer communities'
p880
(dp881
S'type'
p882
S'subj'
p883
sS'freq'
p884
I9
sS'subj_freq'
p885
I9
sS'display'
p886
S'offer communities'
p887
sS'prob'
p888
F1.0
ssS'<subj> fight'
p889
(dp890
g268
I7
sg269
I7
sg270
g820
sg272
S'fight'
p891
sg274
F1.0
ssS'wanted <dobj>'
p892
(dp893
S'type'
p894
S'dobj'
p895
sS'freq'
p896
I7
sS'subj_freq'
p897
I7
sS'display'
p898
S'wanted'
p899
sS'prob'
p900
F1.0
ssS'to hit <dobj>'
p901
(dp902
S'subj_freq'
p903
I21
sS'freq'
p904
I21
sS'type'
p905
S'dobj'
p906
sS'display'
p907
S'to hit'
p908
sS'prob'
p909
F1.0
ssS'defends <dobj>'
p910
(dp911
g445
S'dobj'
p912
sg447
I9
sg448
I9
sg449
S'defends'
p913
sg451
F1.0
ssS'suggests <dobj>'
p914
(dp915
S'subj_freq'
p916
I0
sS'freq'
p917
I17
sS'type'
p918
S'dobj'
p919
sS'display'
p920
S'suggests'
p921
sS'prob'
p922
F0.0
ssS'<subj> saw Sir'
p923
(dp924
g259
I7
sg260
I7
sg261
S'subj'
p925
sg263
S'saw Sir'
p926
sg265
F1.0
ssS'<subj> have be touched'
p927
(dp928
g782
g783
sg784
I7
sg785
I7
sg786
S'have be touched'
p929
sg788
F1.0
ssS'knows <dobj>'
p930
(dp931
g852
I7
sg853
I7
sg854
g855
sg856
S'knows'
p932
sg858
F1.0
ssS'<subj> learning'
p933
(dp934
S'type'
p935
S'subj'
p936
sS'freq'
p937
I7
sS'subj_freq'
p938
I7
sS'display'
p939
S'learning'
p940
sS'prob'
p941
F1.0
ssS'seems to evolved <dobj>'
p942
(dp943
g234
I21
sg235
I21
sg236
S'dobj'
p944
sg238
S'seems to evolved'
p945
sg240
F1.0
ssS'thinks <dobj>'
p946
(dp947
g30
g31
sg32
I9
sg33
I9
sg34
S'thinks'
p948
sg36
F1.0
ssS'denied <dobj>'
p949
(dp950
g640
I21
sg641
I21
sg642
g643
sg644
S'denied'
p951
sg646
F1.0
ssS'<subj> bothered'
p952
(dp953
g523
I6
sg524
I6
sg525
g526
sg527
S'bothered'
p954
sg529
F1.0
ssS'<subj> thought'
p955
(dp956
g575
I46
sg576
I46
sg577
g578
sg579
S'thought'
p957
sg581
F1.0
ssS'develop <dobj>'
p958
(dp959
g12
g13
sg14
I9
sg15
I9
sg16
S'develop'
p960
sg18
F1.0
ssS'<subj> devoted politicians'
p961
(dp962
g354
g355
sg356
I9
sg357
I9
sg358
S'devoted politicians'
p963
sg360
F1.0
ssS'<subj> witnessed fact'
p964
(dp965
g30
g791
sg32
I9
sg33
I9
sg34
S'witnessed fact'
p966
sg36
F1.0
ssS'<subj> believe debate'
p967
(dp968
g323
g324
sg325
I21
sg326
I21
sg327
S'believe debate'
p969
sg329
F1.0
ssS'come <dobj>'
p970
(dp971
g30
g31
sg32
I9
sg33
I9
sg34
S'come'
p972
sg36
F1.0
ssS'<subj> gave'
p973
(dp974
g751
g752
sg753
I7
sg754
I7
sg755
S'gave'
p975
sg757
F1.0
ssS'<subj> preserve'
p976
(dp977
S'subj_freq'
p978
I9
sS'freq'
p979
I9
sS'type'
p980
S'subj'
p981
sS'display'
p982
S'preserve'
p983
sS'prob'
p984
F1.0
ssS'<subj> eliminated'
p985
(dp986
g52
g690
sg54
I21
sg55
I21
sg56
S'eliminated'
p987
sg58
F1.0
ssS'<subj> be shown'
p988
(dp989
S'subj_freq'
p990
I21
sS'freq'
p991
I21
sS'type'
p992
S'subj'
p993
sS'display'
p994
S'be shown'
p995
sS'prob'
p996
F1.0
ssS'do <dobj>'
p997
(dp998
g599
I249
sg600
I249
sg601
S'dobj'
p999
sg603
S'do'
p1000
sg605
F1.0
ssS'keep <dobj>'
p1001
(dp1002
S'subj_freq'
p1003
I9
sS'freq'
p1004
I9
sS'type'
p1005
S'dobj'
p1006
sS'display'
p1007
S'keep'
p1008
sS'prob'
p1009
F1.0
ssS'become <dobj>'
p1010
(dp1011
g43
I64
sg44
I64
sg45
S'dobj'
p1012
sg47
S'become'
p1013
sg49
F1.0
ssS'providing <dobj>'
p1014
(dp1015
g204
I21
sg205
I21
sg206
g207
sg208
S'providing'
p1016
sg210
F1.0
ssS'<subj> lie'
p1017
(dp1018
g1003
I9
sg1004
I9
sg1005
S'subj'
p1019
sg1007
S'lie'
p1020
sg1009
F1.0
ssS'lies <dobj>'
p1021
(dp1022
g354
S'dobj'
p1023
sg356
I16
sg357
I16
sg358
S'lies'
p1024
sg360
F1.0
ssS'<subj> offer'
p1025
(dp1026
g882
g883
sg884
I9
sg885
I9
sg886
S'offer'
p1027
sg888
F1.0
ssS'sounds control over <np>'
p1028
(dp1029
g363
I10
sg364
I10
sg365
S'np'
p1030
sg367
S'sounds control over'
p1031
sg369
F1.0
ssS'saw <dobj>'
p1032
(dp1033
g259
I7
sg260
I7
sg261
g262
sg263
S'saw'
p1034
sg265
F1.0
ssS'hidden <dobj>'
p1035
(dp1036
g557
I4
sg558
I4
sg559
g560
sg561
S'hidden'
p1037
sg563
F1.0
ssS'<subj> sounds sort'
p1038
(dp1039
g363
I22
sg364
I22
sg365
S'subj'
p1040
sg367
S'sounds sort'
p1041
sg369
F1.0
ssS'<subj> get'
p1042
(dp1043
g310
g311
sg312
I26
sg313
I26
sg314
S'get'
p1044
sg316
F1.0
ssS'<subj> creating'
p1045
(dp1046
g882
g883
sg884
I13
sg885
I13
sg886
S'creating'
p1047
sg888
F1.0
ssS"<subj> 's technology"
p1048
(dp1049
S'subj_freq'
p1050
I9
sS'freq'
p1051
I9
sS'type'
p1052
S'subj'
p1053
sS'display'
p1054
S"'s technology"
p1055
sS'prob'
p1056
F1.0
ssS'<subj> suppose'
p1057
(dp1058
S'type'
p1059
S'subj'
p1060
sS'freq'
p1061
I7
sS'subj_freq'
p1062
I7
sS'display'
p1063
S'suppose'
p1064
sS'prob'
p1065
F1.0
ssS'continue <dobj>'
p1066
(dp1067
g536
I7
sg537
I7
sg538
g539
sg540
S'continue'
p1068
sg542
F1.0
ssS'see <dobj>'
p1069
(dp1070
g204
I51
sg205
I51
sg206
g207
sg208
S'see'
p1071
sg210
F1.0
ssS'<subj> left'
p1072
(dp1073
S'subj_freq'
p1074
I5
sS'freq'
p1075
I5
sS'type'
p1076
S'subj'
p1077
sS'display'
p1078
S'left'
p1079
sS'prob'
p1080
F1.0
ssS'touched <dobj>'
p1081
(dp1082
g782
S'dobj'
p1083
sg784
I7
sg785
I7
sg786
S'touched'
p1084
sg788
F1.0
ssS'<subj> prevent'
p1085
(dp1086
g492
I21
sg493
I21
sg494
S'subj'
p1087
sg496
S'prevent'
p1088
sg498
F1.0
ssS'<subj> saves someone'
p1089
(dp1090
g698
g699
sg700
I7
sg701
I7
sg702
S'saves someone'
p1091
sg704
F1.0
ssS'believe <dobj>'
p1092
(dp1093
g323
g694
sg325
I30
sg326
I30
sg327
S'believe'
p1094
sg329
F1.0
ssS'<subj> knows'
p1095
(dp1096
g852
I7
sg853
I7
sg854
S'subj'
p1097
sg856
S'knows'
p1098
sg858
F1.0
ssS'<subj> managing work'
p1099
(dp1100
S'subj_freq'
p1101
I4
sS'freq'
p1102
I4
sS'type'
p1103
S'subj'
p1104
sS'display'
p1105
S'managing work'
p1106
sS'prob'
p1107
F1.0
ssS'to develop <dobj>'
p1108
(dp1109
g12
g13
sg14
I9
sg15
I9
sg16
S'to develop'
p1110
sg18
F1.0
ssS'going <dobj>'
p1111
(dp1112
g384
I7
sg385
I7
sg386
S'dobj'
p1113
sg388
S'going'
p1114
sg390
F1.0
ssS'undo <dobj>'
p1115
(dp1116
g146
S'dobj'
p1117
sg148
I21
sg149
I21
sg150
S'undo'
p1118
sg152
F1.0
ssS'<subj> exercise'
p1119
(dp1120
g514
I9
sg515
I9
sg516
S'subj'
p1121
sg518
S'exercise'
p1122
sg520
F1.0
ssS'<subj> creating eternity'
p1123
(dp1124
g225
g226
sg227
I4
sg228
I4
sg229
S'creating eternity'
p1125
sg231
F1.0
ssS'<subj> have time'
p1126
(dp1127
g523
I6
sg524
I6
sg525
g526
sg527
S'have time'
p1128
sg529
F1.0
ssS'doing <dobj>'
p1129
(dp1130
g52
g53
sg54
I21
sg55
I21
sg56
S'doing'
p1131
sg58
F1.0
ssS'<subj> confirm'
p1132
(dp1133
S'type'
p1134
S'subj'
p1135
sS'freq'
p1136
I7
sS'subj_freq'
p1137
I7
sS'display'
p1138
S'confirm'
p1139
sS'prob'
p1140
F1.0
ssS'<subj> have been attributed'
p1141
(dp1142
g548
g549
sg550
I3
sg551
I3
sg552
S'have been attributed'
p1143
sg554
F1.0
ssS'<subj> say experience'
p1144
(dp1145
g483
g484
sg485
I19
sg486
I19
sg487
S'say experience'
p1146
sg489
F1.0
ssS'like <dobj>'
p1147
(dp1148
g393
S'dobj'
p1149
sg395
I9
sg396
I9
sg397
S'like'
p1150
sg399
F1.0
ssS'to prevent <dobj>'
p1151
(dp1152
g492
I21
sg493
I21
sg494
g495
sg496
S'to prevent'
p1153
sg498
F1.0
ssS'<subj> construct'
p1154
(dp1155
S'type'
p1156
S'subj'
p1157
sS'freq'
p1158
I21
sS'subj_freq'
p1159
I0
sS'display'
p1160
S'construct'
p1161
sS'prob'
p1162
F0.0
ssS'<subj> managing'
p1163
(dp1164
g1101
I4
sg1102
I4
sg1103
g1104
sg1105
S'managing'
p1165
sg1107
F1.0
ssS'<subj> means'
p1166
(dp1167
g454
S'subj'
p1168
sg456
I41
sg457
I41
sg458
S'means'
p1169
sg460
F1.0
ssS'<subj> got problem'
p1170
(dp1171
g30
g791
sg32
I9
sg33
I9
sg34
S'got problem'
p1172
sg36
F1.0
ssS'sees <dobj>'
p1173
(dp1174
g43
I42
sg44
I42
sg45
g1012
sg47
S'sees'
p1175
sg49
F1.0
ssS'to reach <dobj>'
p1176
(dp1177
g52
g53
sg54
I21
sg55
I21
sg56
S'to reach'
p1178
sg58
F1.0
ssS'apply <dobj>'
p1179
(dp1180
g393
g1149
sg395
I9
sg396
I9
sg397
S'apply'
p1181
sg399
F1.0
ssS'<subj> are connected'
p1182
(dp1183
g52
g690
sg54
I21
sg55
I21
sg56
S'are connected'
p1184
sg58
F1.0
ssS'<subj> wanted to express'
p1185
(dp1186
g894
S'subj'
p1187
sg896
I7
sg897
I7
sg898
S'wanted to express'
p1188
sg900
F1.0
ssS'<subj> continue'
p1189
(dp1190
g536
I7
sg537
I7
sg538
S'subj'
p1191
sg540
S'continue'
p1192
sg542
F1.0
ssS'<subj> written'
p1193
(dp1194
S'subj_freq'
p1195
I6
sS'freq'
p1196
I6
sS'type'
p1197
S'subj'
p1198
sS'display'
p1199
S'written'
p1200
sS'prob'
p1201
F1.0
ssS'governing <dobj>'
p1202
(dp1203
g146
g1117
sg148
I21
sg149
I21
sg150
S'governing'
p1204
sg152
F1.0
ssS'<subj> get life'
p1205
(dp1206
S'type'
p1207
S'subj'
p1208
sS'freq'
p1209
I13
sS'subj_freq'
p1210
I13
sS'display'
p1211
S'get life'
p1212
sS'prob'
p1213
F1.0
ssS'become work on <np>'
p1214
(dp1215
g1207
S'np'
p1216
sg1209
I13
sg1210
I13
sg1211
S'become work on'
p1217
sg1213
F1.0
ssS"'m <dobj>"
p1218
(dp1219
g861
S'dobj'
p1220
sg863
I72
sg864
I72
sg865
S"'m"
p1221
sg867
F1.0
ssS'got <dobj>'
p1222
(dp1223
g30
g31
sg32
I9
sg33
I9
sg34
S'got'
p1224
sg36
F1.0
ssS'shows <dobj>'
p1225
(dp1226
g760
g769
sg762
I7
sg763
I7
sg764
S'shows'
p1227
sg766
F1.0
ssS'<subj> thinking'
p1228
(dp1229
g128
I21
sg129
I21
sg130
S'subj'
p1230
sg132
S'thinking'
p1231
sg134
F1.0
ssS'<subj> cut'
p1232
(dp1233
g110
I4
sg111
I4
sg112
g200
sg114
S'cut'
p1234
sg116
F1.0
ssS'focused <dobj>'
p1235
(dp1236
g384
I7
sg385
I7
sg386
g1113
sg388
S'focused'
p1237
sg390
F1.0
ssS'<subj> wrecked'
p1238
(dp1239
g548
g549
sg550
I3
sg551
I3
sg552
S'wrecked'
p1240
sg554
F1.0
ssS'uses <dobj>'
p1241
(dp1242
S'type'
p1243
S'dobj'
p1244
sS'freq'
p1245
I17
sS'subj_freq'
p1246
I17
sS'display'
p1247
S'uses'
p1248
sS'prob'
p1249
F1.0
ssS'having <dobj>'
p1250
(dp1251
S'subj_freq'
p1252
I7
sS'freq'
p1253
I7
sS'type'
p1254
S'dobj'
p1255
sS'display'
p1256
S'having'
p1257
sS'prob'
p1258
F1.0
ssS'<subj> know'
p1259
(dp1260
g234
I39
sg235
I39
sg236
g237
sg238
S'know'
p1261
sg240
F1.0
ssS'<subj> being'
p1262
(dp1263
g803
I21
sg804
I21
sg805
S'subj'
p1264
sg807
S'being'
p1265
sg809
F1.0
ssS'<subj> shown'
p1266
(dp1267
g323
g324
sg325
I42
sg326
I42
sg327
S'shown'
p1268
sg329
F1.0
ssS'<subj> was began'
p1269
(dp1270
g30
g791
sg32
I9
sg33
I9
sg34
S'was began'
p1271
sg36
F1.0
ssS'appears <dobj>'
p1272
(dp1273
g861
g1220
sg863
I21
sg864
I21
sg865
S'appears'
p1274
sg867
F1.0
ssS'<subj> shows'
p1275
(dp1276
g760
g761
sg762
I7
sg763
I7
sg764
S'shows'
p1277
sg766
F1.0
ssS'<subj> cheat sister'
p1278
(dp1279
g30
g791
sg32
I9
sg33
I9
sg34
S'cheat sister'
p1280
sg36
F1.0
ssS'<subj> wants'
p1281
(dp1282
g852
I7
sg853
I7
sg854
g1097
sg856
S'wants'
p1283
sg858
F1.0
ssS'<subj> think to think'
p1284
(dp1285
g514
I9
sg515
I9
sg516
g1121
sg518
S'think to think'
p1286
sg520
F1.0
ssS'<subj> hit gallon'
p1287
(dp1288
g903
I21
sg904
I21
sg905
S'subj'
p1289
sg907
S'hit gallon'
p1290
sg909
F1.0
ssS'<subj> are presented'
p1291
(dp1292
g406
I9
sg407
I9
sg408
S'subj'
p1293
sg410
S'are presented'
p1294
sg412
F1.0
ssS'<subj> was conceded'
p1295
(dp1296
g101
I7
sg102
I7
sg103
g104
sg105
S'was conceded'
p1297
sg107
F1.0
ssS'reject <dobj>'
p1298
(dp1299
g640
I21
sg641
I21
sg642
g643
sg644
S'reject'
p1300
sg646
F1.0
ssS'misled <dobj>'
p1301
(dp1302
g640
I21
sg641
I21
sg642
g643
sg644
S'misled'
p1303
sg646
F1.0
ssS'wanted to express <dobj>'
p1304
(dp1305
g894
g895
sg896
I7
sg897
I7
sg898
S'wanted to express'
p1306
sg900
F1.0
ssS'lie <dobj>'
p1307
(dp1308
g1003
I9
sg1004
I9
sg1005
g1006
sg1007
S'lie'
p1309
sg1009
F1.0
ssS'to stop <dobj>'
p1310
(dp1311
g833
S'dobj'
p1312
sg835
I21
sg836
I21
sg837
S'to stop'
p1313
sg839
F1.0
ssS'<subj> think genius'
p1314
(dp1315
S'subj_freq'
p1316
I7
sS'freq'
p1317
I7
sS'type'
p1318
S'subj'
p1319
sS'display'
p1320
S'think genius'
p1321
sS'prob'
p1322
F1.0
ssS'heed <dobj>'
p1323
(dp1324
g536
I7
sg537
I7
sg538
g539
sg540
S'heed'
p1325
sg542
F1.0
ssS'<subj> has be spent'
p1326
(dp1327
g483
g484
sg485
I19
sg486
I19
sg487
S'has be spent'
p1328
sg489
F1.0
ssS'<subj> think room'
p1329
(dp1330
g514
I9
sg515
I9
sg516
g1121
sg518
S'think room'
p1331
sg520
F1.0
ssS'<subj> make fluctuations'
p1332
(dp1333
g665
I19
sg666
I19
sg667
g674
sg669
S'make fluctuations'
p1334
sg671
F1.0
ssS'<subj> spent'
p1335
(dp1336
g483
g484
sg485
I19
sg486
I19
sg487
S'spent'
p1337
sg489
F1.0
ssS'needed <dobj>'
p1338
(dp1339
g294
I28
sg295
I28
sg296
S'dobj'
p1340
sg298
S'needed'
p1341
sg300
F1.0
ssS'<subj> seems to evolved'
p1342
(dp1343
g234
I21
sg235
I21
sg236
g237
sg238
S'seems to evolved'
p1344
sg240
F1.0
ssS'making <dobj>'
p1345
(dp1346
g733
I34
sg734
I34
sg735
S'dobj'
p1347
sg737
S'making'
p1348
sg739
F1.0
ssS'ensure <dobj>'
p1349
(dp1350
g665
I19
sg666
I19
sg667
g668
sg669
S'ensure'
p1351
sg671
F1.0
ssS'waste <dobj>'
p1352
(dp1353
g523
I6
sg524
I6
sg525
S'dobj'
p1354
sg527
S'waste'
p1355
sg529
F1.0
ssS'learned <dobj>'
p1356
(dp1357
g310
g711
sg312
I13
sg313
I13
sg314
S'learned'
p1358
sg316
F1.0
ssS'helps <dobj>'
p1359
(dp1360
g310
g711
sg312
I9
sg313
I9
sg314
S'helps'
p1361
sg316
F1.0
ssS'<subj> keep'
p1362
(dp1363
g1003
I9
sg1004
I9
sg1005
g1019
sg1007
S'keep'
p1364
sg1009
F1.0
ssS'atoms in <np>'
p1365
(dp1366
g1252
I7
sg1253
I7
sg1254
S'np'
p1367
sg1256
S'atoms in'
p1368
sg1258
F1.0
ssS'copied <dobj>'
p1369
(dp1370
g501
S'dobj'
p1371
sg503
I21
sg504
I21
sg505
S'copied'
p1372
sg507
F1.0
ssS'<subj> making senses'
p1373
(dp1374
g1195
I6
sg1196
I6
sg1197
g1198
sg1199
S'making senses'
p1375
sg1201
F1.0
ssS'hit <dobj>'
p1376
(dp1377
g903
I21
sg904
I21
sg905
g906
sg907
S'hit'
p1378
sg909
F1.0
ssS'<subj> explained Ted'
p1379
(dp1380
S'type'
p1381
S'subj'
p1382
sS'freq'
p1383
I9
sS'subj_freq'
p1384
I9
sS'display'
p1385
S'explained Ted'
p1386
sS'prob'
p1387
F1.0
ssS'need to remember <dobj>'
p1388
(dp1389
S'subj_freq'
p1390
I6
sS'freq'
p1391
I6
sS'type'
p1392
S'dobj'
p1393
sS'display'
p1394
S'need to remember'
p1395
sS'prob'
p1396
F1.0
ssS'fight <dobj>'
p1397
(dp1398
g268
I7
sg269
I7
sg270
g271
sg272
S'fight'
p1399
sg274
F1.0
ssS'<subj> lies'
p1400
(dp1401
g354
g355
sg356
I16
sg357
I16
sg358
S'lies'
p1402
sg360
F1.0
ssS'forget <dobj>'
p1403
(dp1404
S'type'
p1405
S'dobj'
p1406
sS'freq'
p1407
I7
sS'subj_freq'
p1408
I7
sS'display'
p1409
S'forget'
p1410
sS'prob'
p1411
F1.0
ssS'theory of <np>'
p1412
(dp1413
g310
S'np'
p1414
sg312
I9
sg313
I9
sg314
S'theory of'
p1415
sg316
F1.0
ssS'speak <dobj>'
p1416
(dp1417
S'subj_freq'
p1418
I7
sS'freq'
p1419
I7
sS'type'
p1420
S'dobj'
p1421
sS'display'
p1422
S'speak'
p1423
sS'prob'
p1424
F1.0
ssS'to make <dobj>'
p1425
(dp1426
S'subj_freq'
p1427
I16
sS'freq'
p1428
I16
sS'type'
p1429
S'dobj'
p1430
sS'display'
p1431
S'to make'
p1432
sS'prob'
p1433
F1.0
ssS'seems <dobj>'
p1434
(dp1435
g234
I28
sg235
I28
sg236
g944
sg238
S'seems'
p1436
sg240
F1.0
ssS'waves with <np>'
p1437
(dp1438
g557
I4
sg558
I4
sg559
S'np'
p1439
sg561
S'waves with'
p1440
sg563
F1.0
ssS'<subj> fail to realize'
p1441
(dp1442
g454
g1168
sg456
I27
sg457
I27
sg458
S'fail to realize'
p1443
sg460
F1.0
ssS'arrive <dobj>'
p1444
(dp1445
S'subj_freq'
p1446
I7
sS'freq'
p1447
I7
sS'type'
p1448
S'dobj'
p1449
sS'display'
p1450
S'arrive'
p1451
sS'prob'
p1452
F1.0
ssS'to wait <dobj>'
p1453
(dp1454
g678
I4
sg679
I7
sg680
g845
sg682
S'to wait'
p1455
sg684
F0.5714285714285714
ssS'operate <dobj>'
p1456
(dp1457
g225
S'dobj'
p1458
sg227
I4
sg228
I4
sg229
S'operate'
p1459
sg231
F1.0
ssS'<subj> is cut'
p1460
(dp1461
g110
I4
sg111
I4
sg112
g200
sg114
S'is cut'
p1462
sg116
F1.0
ssS'<subj> reached'
p1463
(dp1464
S'subj_freq'
p1465
I25
sS'freq'
p1466
I25
sS'type'
p1467
S'subj'
p1468
sS'display'
p1469
S'reached'
p1470
sS'prob'
p1471
F1.0
ssS'<subj> shows things'
p1472
(dp1473
g760
g761
sg762
I7
sg763
I7
sg764
S'shows things'
p1474
sg766
F1.0
ssS'changed <dobj>'
p1475
(dp1476
g782
g1083
sg784
I7
sg785
I7
sg786
S'changed'
p1477
sg788
F1.0
ssS'<subj> sharing God'
p1478
(dp1479
g216
I7
sg217
I7
sg218
S'subj'
p1480
sg220
S'sharing God'
p1481
sg222
F1.0
ssS'<subj> unveiled'
p1482
(dp1483
g354
g355
sg356
I9
sg357
I9
sg358
S'unveiled'
p1484
sg360
F1.0
ssS'<subj> make'
p1485
(dp1486
g665
I35
sg666
I35
sg667
g674
sg669
S'make'
p1487
sg671
F1.0
ssS'state <dobj>'
p1488
(dp1489
g584
I23
sg585
I23
sg586
S'dobj'
p1490
sg588
S'state'
p1491
sg590
F1.0
ssS'cheat <dobj>'
p1492
(dp1493
g30
g31
sg32
I18
sg33
I18
sg34
S'cheat'
p1494
sg36
F1.0
ssS'to build <dobj>'
p1495
(dp1496
g268
I7
sg269
I7
sg270
g271
sg272
S'to build'
p1497
sg274
F1.0
ssS'<subj> find discord'
p1498
(dp1499
g751
g752
sg753
I7
sg754
I7
sg755
S'find discord'
p1500
sg757
F1.0
ssS'devoted <dobj>'
p1501
(dp1502
g354
g1023
sg356
I9
sg357
I9
sg358
S'devoted'
p1503
sg360
F1.0
ssS'<subj> deserves to fill'
p1504
(dp1505
g119
I7
sg120
I7
sg121
S'subj'
p1506
sg123
S'deserves to fill'
p1507
sg125
F1.0
ssS'<subj> was explained'
p1508
(dp1509
g1381
g1382
sg1383
I9
sg1384
I9
sg1385
S'was explained'
p1510
sg1387
F1.0
ssS'required <dobj>'
p1511
(dp1512
g137
g138
sg139
I7
sg140
I7
sg141
S'required'
p1513
sg143
F1.0
ssS'to define <dobj>'
p1514
(dp1515
g436
I7
sg437
I7
sg438
S'dobj'
p1516
sg440
S'to define'
p1517
sg442
F1.0
ssS'<subj> focused Ted'
p1518
(dp1519
g384
I7
sg385
I7
sg386
g387
sg388
S'focused Ted'
p1520
sg390
F1.0
ssS'<subj> excited'
p1521
(dp1522
g155
g156
sg157
I21
sg158
I21
sg159
S'excited'
p1523
sg161
F1.0
ssS'explain <dobj>'
p1524
(dp1525
g1405
g1406
sg1407
I7
sg1408
I7
sg1409
S'explain'
p1526
sg1411
F1.0
ssS'<subj> find'
p1527
(dp1528
g74
g75
sg76
I18
sg77
I18
sg78
S'find'
p1529
sg80
F1.0
ssS'<subj> belongs to do'
p1530
(dp1531
g83
I7
sg84
I7
sg85
g86
sg87
S'belongs to do'
p1532
sg89
F1.0
ssS'used <dobj>'
p1533
(dp1534
g285
g286
sg287
I7
sg288
I7
sg289
S'used'
p1535
sg291
F1.0
ssS'<subj> helps people'
p1536
(dp1537
g310
g311
sg312
I9
sg313
I9
sg314
S'helps people'
p1538
sg316
F1.0
ssS'<subj> was reached'
p1539
(dp1540
g1465
I25
sg1466
I25
sg1467
g1468
sg1469
S'was reached'
p1541
sg1471
F1.0
ssS'deserves <dobj>'
p1542
(dp1543
g119
I7
sg120
I7
sg121
g122
sg123
S'deserves'
p1544
sg125
F1.0
ssS'buy <dobj>'
p1545
(dp1546
g21
I7
sg22
I7
sg23
S'dobj'
p1547
sg25
S'buy'
p1548
sg27
F1.0
ssS'<subj> probing'
p1549
(dp1550
g43
I42
sg44
I42
sg45
g624
sg47
S'probing'
p1551
sg49
F1.0
ssS'suppose <dobj>'
p1552
(dp1553
g1059
S'dobj'
p1554
sg1061
I7
sg1062
I7
sg1063
S'suppose'
p1555
sg1065
F1.0
ssS'exercise <dobj>'
p1556
(dp1557
g514
I9
sg515
I9
sg516
g517
sg518
S'exercise'
p1558
sg520
F1.0
ssS'<subj> decides'
p1559
(dp1560
S'subj_freq'
p1561
I9
sS'freq'
p1562
I9
sS'type'
p1563
S'subj'
p1564
sS'display'
p1565
S'decides'
p1566
sS'prob'
p1567
F1.0
ssS'told <dobj>'
p1568
(dp1569
g483
S'dobj'
p1570
sg485
I19
sg486
I19
sg487
S'told'
p1571
sg489
F1.0
ssS'<subj> walking Cuba'
p1572
(dp1573
g557
I4
sg558
I4
sg559
S'subj'
p1574
sg561
S'walking Cuba'
p1575
sg563
F1.0
ssS'done to reduced <dobj>'
p1576
(dp1577
g548
S'dobj'
p1578
sg550
I3
sg551
I3
sg552
S'done to reduced'
p1579
sg554
F1.0
ssS'<subj> creating structures'
p1580
(dp1581
g882
g883
sg884
I9
sg885
I9
sg886
S'creating structures'
p1582
sg888
F1.0
ssS'<subj> be explored'
p1583
(dp1584
g12
g277
sg14
I9
sg15
I9
sg16
S'be explored'
p1585
sg18
F1.0
ssS'needed to teach <dobj>'
p1586
(dp1587
g294
I21
sg295
I21
sg296
g1340
sg298
S'needed to teach'
p1588
sg300
F1.0
ssS'reduced <dobj>'
p1589
(dp1590
g548
g1578
sg550
I3
sg551
I3
sg552
S'reduced'
p1591
sg554
F1.0
ssS'<subj> see lot'
p1592
(dp1593
g191
g192
sg193
I21
sg194
I21
sg195
S'see lot'
p1594
sg197
F1.0
ssS'<subj> explains'
p1595
(dp1596
g43
I42
sg44
I42
sg45
g624
sg47
S'explains'
p1597
sg49
F1.0
ssS'<subj> bless'
p1598
(dp1599
g216
I7
sg217
I7
sg218
g1480
sg220
S'bless'
p1600
sg222
F1.0
ssS'attached <dobj>'
p1601
(dp1602
g1195
I6
sg1196
I6
sg1197
S'dobj'
p1603
sg1199
S'attached'
p1604
sg1201
F1.0
ssS'saw education by <np>'
p1605
(dp1606
g259
I7
sg260
I7
sg261
S'np'
p1607
sg263
S'saw education by'
p1608
sg265
F1.0
ssS'<subj> was knew'
p1609
(dp1610
g101
I7
sg102
I7
sg103
g104
sg105
S'was knew'
p1611
sg107
F1.0
ssS'<subj> ensure'
p1612
(dp1613
g665
I19
sg666
I19
sg667
g674
sg669
S'ensure'
p1614
sg671
F1.0
ssS'learn <dobj>'
p1615
(dp1616
g372
I7
sg373
I7
sg374
S'dobj'
p1617
sg376
S'learn'
p1618
sg378
F1.0
ssS'<subj> realize'
p1619
(dp1620
g557
I4
sg558
I4
sg559
g1574
sg561
S'realize'
p1621
sg563
F1.0
ssS'<subj> do concept'
p1622
(dp1623
g599
I23
sg600
I23
sg601
g602
sg603
S'do concept'
p1624
sg605
F1.0
ssS'<subj> connected'
p1625
(dp1626
g52
g690
sg54
I25
sg55
I25
sg56
S'connected'
p1627
sg58
F1.0
ssS'<subj> feel'
p1628
(dp1629
g1465
I32
sg1466
I32
sg1467
g1468
sg1469
S'feel'
p1630
sg1471
F1.0
ssS'<subj> has be solving'
p1631
(dp1632
g323
g324
sg325
I21
sg326
I21
sg327
S'has be solving'
p1633
sg329
F1.0
ssS'<subj> is attached'
p1634
(dp1635
g1195
I6
sg1196
I6
sg1197
g1198
sg1199
S'is attached'
p1636
sg1201
F1.0
ssS'eliminated <dobj>'
p1637
(dp1638
g52
g53
sg54
I21
sg55
I21
sg56
S'eliminated'
p1639
sg58
F1.0
ssS'<subj> listening to stop'
p1640
(dp1641
g833
g834
sg835
I21
sg836
I21
sg837
S'listening to stop'
p1642
sg839
F1.0
ssS'<subj> think opportunity'
p1643
(dp1644
g751
g752
sg753
I7
sg754
I7
sg755
S'think opportunity'
p1645
sg757
F1.0
ssS'passion by <np>'
p1646
(dp1647
g833
S'np'
p1648
sg835
I21
sg836
I21
sg837
S'passion by'
p1649
sg839
F1.0
ssS"<subj> 're part"
p1650
(dp1651
g52
g690
sg54
I21
sg55
I21
sg56
S"'re part"
p1652
sg58
F1.0
ssS'think to think <dobj>'
p1653
(dp1654
g514
I9
sg515
I9
sg516
g517
sg518
S'think to think'
p1655
sg520
F1.0
ssS'start <dobj>'
p1656
(dp1657
S'subj_freq'
p1658
I6
sS'freq'
p1659
I6
sS'type'
p1660
S'dobj'
p1661
sS'display'
p1662
S'start'
p1663
sS'prob'
p1664
F1.0
ssS'fly <dobj>'
p1665
(dp1666
g1381
S'dobj'
p1667
sg1383
I9
sg1384
I9
sg1385
S'fly'
p1668
sg1387
F1.0
ssS'<subj> governing'
p1669
(dp1670
g146
g147
sg148
I21
sg149
I21
sg150
S'governing'
p1671
sg152
F1.0
ssS'creating <dobj>'
p1672
(dp1673
g882
S'dobj'
p1674
sg884
I13
sg885
I13
sg886
S'creating'
p1675
sg888
F1.0
ssS'<subj> prevent terrorism'
p1676
(dp1677
g492
I21
sg493
I21
sg494
g1087
sg496
S'prevent terrorism'
p1678
sg498
F1.0
ssS'<subj> speak'
p1679
(dp1680
g1418
I7
sg1419
I7
sg1420
S'subj'
p1681
sg1422
S'speak'
p1682
sg1424
F1.0
ssS'<subj> have reason'
p1683
(dp1684
g523
I6
sg524
I6
sg525
g526
sg527
S'have reason'
p1685
sg529
F1.0
ssS'<subj> hit'
p1686
(dp1687
g903
I21
sg904
I21
sg905
g1289
sg907
S'hit'
p1688
sg909
F1.0
ssS'<subj> was hidden'
p1689
(dp1690
g557
I4
sg558
I4
sg559
g1574
sg561
S'was hidden'
p1691
sg563
F1.0
ssS'led book that <np>'
p1692
(dp1693
g445
S'np'
p1694
sg447
I9
sg448
I9
sg449
S'led book that'
p1695
sg451
F1.0
ssS'<subj> helps'
p1696
(dp1697
g310
g311
sg312
I9
sg313
I9
sg314
S'helps'
p1698
sg316
F1.0
ssS'<subj> stand'
p1699
(dp1700
g204
I21
sg205
I21
sg206
S'subj'
p1701
sg208
S'stand'
p1702
sg210
F1.0
ssS'<subj> thinks'
p1703
(dp1704
g30
g791
sg32
I9
sg33
I9
sg34
S'thinks'
p1705
sg36
F1.0
ssS'<subj> have problem'
p1706
(dp1707
g225
g226
sg227
I4
sg228
I4
sg229
S'have problem'
p1708
sg231
F1.0
ssS'<subj> explain'
p1709
(dp1710
g1405
S'subj'
p1711
sg1407
I7
sg1408
I7
sg1409
S'explain'
p1712
sg1411
F1.0
ssS'<subj> attached'
p1713
(dp1714
g1195
I6
sg1196
I6
sg1197
g1198
sg1199
S'attached'
p1715
sg1201
F1.0
ssS'<subj> required wealth'
p1716
(dp1717
g137
g350
sg139
I7
sg140
I7
sg141
S'required wealth'
p1718
sg143
F1.0
ssS'<subj> be attributed'
p1719
(dp1720
g243
I7
sg244
I7
sg245
g319
sg247
S'be attributed'
p1721
sg249
F1.0
ssS'<subj> analyze'
p1722
(dp1723
g665
I19
sg666
I19
sg667
g674
sg669
S'analyze'
p1724
sg671
F1.0
ssS'<subj> reduced'
p1725
(dp1726
g548
g549
sg550
I3
sg551
I3
sg552
S'reduced'
p1727
sg554
F1.0
ssS'<subj> hidden sort'
p1728
(dp1729
g557
I4
sg558
I4
sg559
g1574
sg561
S'hidden sort'
p1730
sg563
F1.0
ssS'wish <dobj>'
p1731
(dp1732
S'type'
p1733
S'dobj'
p1734
sS'freq'
p1735
I28
sS'subj_freq'
p1736
I28
sS'display'
p1737
S'wish'
p1738
sS'prob'
p1739
F1.0
ssS'<subj> wish'
p1740
(dp1741
g1733
S'subj'
p1742
sg1735
I28
sg1736
I28
sg1737
S'wish'
p1743
sg1739
F1.0
ssS'<subj> start b'
p1744
(dp1745
g1658
I6
sg1659
I6
sg1660
S'subj'
p1746
sg1662
S'start b'
p1747
sg1664
F1.0
ssS'<subj> need to told'
p1748
(dp1749
g483
g484
sg485
I19
sg486
I19
sg487
S'need to told'
p1750
sg489
F1.0
ssS'preserve <dobj>'
p1751
(dp1752
g978
I9
sg979
I9
sg980
S'dobj'
p1753
sg982
S'preserve'
p1754
sg984
F1.0
ssS'seeing <dobj>'
p1755
(dp1756
g751
S'dobj'
p1757
sg753
I7
sg754
I7
sg755
S'seeing'
p1758
sg757
F1.0
ssS'<subj> having'
p1759
(dp1760
g1252
I7
sg1253
I7
sg1254
S'subj'
p1761
sg1256
S'having'
p1762
sg1258
F1.0
ssS'<subj> according studies'
p1763
(dp1764
g137
g350
sg139
I7
sg140
I7
sg141
S'according studies'
p1765
sg143
F1.0
ssS'construct <dobj>'
p1766
(dp1767
g1156
S'dobj'
p1768
sg1158
I21
sg1159
I0
sg1160
S'construct'
p1769
sg1162
F0.0
ssS'<subj> saw'
p1770
(dp1771
g259
I7
sg260
I7
sg261
g925
sg263
S'saw'
p1772
sg265
F1.0
ssS'gave <dobj>'
p1773
(dp1774
g751
g1757
sg753
I7
sg754
I7
sg755
S'gave'
p1775
sg757
F1.0
ssS'seem <dobj>'
p1776
(dp1777
S'type'
p1778
S'dobj'
p1779
sS'freq'
p1780
I7
sS'subj_freq'
p1781
I7
sS'display'
p1782
S'seem'
p1783
sS'prob'
p1784
F1.0
ssS'<subj> bringing power'
p1785
(dp1786
S'subj_freq'
p1787
I23
sS'freq'
p1788
I23
sS'type'
p1789
S'subj'
p1790
sS'display'
p1791
S'bringing power'
p1792
sS'prob'
p1793
F1.0
ssS'<subj> say'
p1794
(dp1795
g990
I68
sg991
I68
sg992
g993
sg994
S'say'
p1796
sg996
F1.0
ssS'<subj> is shown'
p1797
(dp1798
g990
I21
sg991
I21
sg992
g993
sg994
S'is shown'
p1799
sg996
F1.0
ssS'<subj> had sort'
p1800
(dp1801
g557
I4
sg558
I4
sg559
g1574
sg561
S'had sort'
p1802
sg563
F1.0
ssS'<subj> is written'
p1803
(dp1804
g1195
I6
sg1196
I6
sg1197
g1198
sg1199
S'is written'
p1805
sg1201
F1.0
ssS'<subj> want'
p1806
(dp1807
g870
g871
sg872
I41
sg873
I41
sg874
S'want'
p1808
sg876
F1.0
ssS'given <dobj>'
p1809
(dp1810
g424
I7
sg425
I7
sg426
S'dobj'
p1811
sg428
S'given'
p1812
sg430
F1.0
ssS'<subj> learned'
p1813
(dp1814
g310
g311
sg312
I13
sg313
I13
sg314
S'learned'
p1815
sg316
F1.0
ssS'realize <dobj>'
p1816
(dp1817
g557
I4
sg558
I4
sg559
g560
sg561
S'realize'
p1818
sg563
F1.0
ssS'feel <dobj>'
p1819
(dp1820
g1465
I32
sg1466
I32
sg1467
S'dobj'
p1821
sg1469
S'feel'
p1822
sg1471
F1.0
ssS'<subj> struck'
p1823
(dp1824
S'type'
p1825
S'subj'
p1826
sS'freq'
p1827
I21
sS'subj_freq'
p1828
I21
sS'display'
p1829
S'struck'
p1830
sS'prob'
p1831
F1.0
ssS'explained <dobj>'
p1832
(dp1833
g1381
g1667
sg1383
I9
sg1384
I9
sg1385
S'explained'
p1834
sg1387
F1.0
ssS'need to told <dobj>'
p1835
(dp1836
g483
g1570
sg485
I19
sg486
I19
sg487
S'need to told'
p1837
sg489
F1.0
ssS'led <dobj>'
p1838
(dp1839
g445
g912
sg447
I9
sg448
I9
sg449
S'led'
p1840
sg451
F1.0
ssS'<subj> need to remember'
p1841
(dp1842
g1390
I6
sg1391
I6
sg1392
S'subj'
p1843
sg1394
S'need to remember'
p1844
sg1396
F1.0
ssS'left <dobj>'
p1845
(dp1846
g1074
I5
sg1075
I5
sg1076
S'dobj'
p1847
sg1078
S'left'
p1848
sg1080
F1.0
ssS'<subj> is gave'
p1849
(dp1850
g751
g752
sg753
I7
sg754
I7
sg755
S'is gave'
p1851
sg757
F1.0
ssS'decides <dobj>'
p1852
(dp1853
g1561
I9
sg1562
I9
sg1563
S'dobj'
p1854
sg1565
S'decides'
p1855
sg1567
F1.0
ssS'<subj> changing'
p1856
(dp1857
g12
g277
sg14
I9
sg15
I9
sg16
S'changing'
p1858
sg18
F1.0
ssS'<subj> stop'
p1859
(dp1860
g833
g834
sg835
I21
sg836
I21
sg837
S'stop'
p1861
sg839
F1.0
ssS'<subj> done'
p1862
(dp1863
g760
g761
sg762
I10
sg763
I10
sg764
S'done'
p1864
sg766
F1.0
ssS'<subj> wanted'
p1865
(dp1866
g894
g1187
sg896
I7
sg897
I7
sg898
S'wanted'
p1867
sg900
F1.0
ssS'<subj> see things'
p1868
(dp1869
g204
I21
sg205
I21
sg206
g1701
sg208
S'see things'
p1870
sg210
F1.0
ssS'<subj> walking'
p1871
(dp1872
g557
I4
sg558
I4
sg559
g1574
sg561
S'walking'
p1873
sg563
F1.0
ssS'connected <dobj>'
p1874
(dp1875
g52
g53
sg54
I25
sg55
I25
sg56
S'connected'
p1876
sg58
F1.0
ssS'<subj> are depressed'
p1877
(dp1878
g191
g192
sg193
I21
sg194
I21
sg195
S'are depressed'
p1879
sg197
F1.0
ssS'<subj> getting proportion'
p1880
(dp1881
g742
I7
sg743
I7
sg744
S'subj'
p1882
sg746
S'getting proportion'
p1883
sg748
F1.0
ssS'listening to stop <dobj>'
p1884
(dp1885
g833
g1312
sg835
I21
sg836
I21
sg837
S'listening to stop'
p1886
sg839
F1.0
ssS'to arrive <dobj>'
p1887
(dp1888
g1446
I7
sg1447
I7
sg1448
g1449
sg1450
S'to arrive'
p1889
sg1452
F1.0
ssS'<subj> feel conclusion'
p1890
(dp1891
g1465
I25
sg1466
I25
sg1467
g1468
sg1469
S'feel conclusion'
p1892
sg1471
F1.0
ssS'<subj> lost'
p1893
(dp1894
g615
S'subj'
p1895
sg617
I55
sg618
I55
sg619
S'lost'
p1896
sg621
F1.0
ssS'<subj> depressed youngsters'
p1897
(dp1898
g191
g192
sg193
I21
sg194
I21
sg195
S'depressed youngsters'
p1899
sg197
F1.0
ssS'to ensure <dobj>'
p1900
(dp1901
g665
I19
sg666
I19
sg667
g668
sg669
S'to ensure'
p1902
sg671
F1.0
ssS'learning <dobj>'
p1903
(dp1904
g935
S'dobj'
p1905
sg937
I7
sg938
I7
sg939
S'learning'
p1906
sg941
F1.0
ssS'<subj> have are waste'
p1907
(dp1908
g523
I6
sg524
I6
sg525
g526
sg527
S'have are waste'
p1909
sg529
F1.0
ssS'<subj> cheat'
p1910
(dp1911
g30
g791
sg32
I18
sg33
I18
sg34
S'cheat'
p1912
sg36
F1.0
ssS'deserves to fill <dobj>'
p1913
(dp1914
g119
I7
sg120
I7
sg121
g122
sg123
S'deserves to fill'
p1915
sg125
F1.0
ssS'<subj> learned to play'
p1916
(dp1917
g557
I4
sg558
I4
sg559
g1574
sg561
S'learned to play'
p1918
sg563
F1.0
ssS'<subj> know crops'
p1919
(dp1920
g463
g464
sg465
I9
sg466
I9
sg467
S'know crops'
p1921
sg469
F1.0
ssS'to see <dobj>'
p1922
(dp1923
g363
I43
sg364
I43
sg365
g366
sg367
S'to see'
p1924
sg369
F1.0
ssS'leads <dobj>'
p1925
(dp1926
g332
g795
sg334
I21
sg335
I21
sg336
S'leads'
p1927
sg338
F1.0
ssS'<subj> apply'
p1928
(dp1929
g393
g394
sg395
I9
sg396
I9
sg397
S'apply'
p1930
sg399
F1.0
ssS'<subj> want to hold'
p1931
(dp1932
g74
g75
sg76
I7
sg77
I7
sg78
S'want to hold'
p1933
sg80
F1.0
ssS'spent <dobj>'
p1934
(dp1935
g483
g1570
sg485
I19
sg486
I19
sg487
S'spent'
p1936
sg489
F1.0
ssS'<subj> describe'
p1937
(dp1938
S'type'
p1939
S'subj'
p1940
sS'freq'
p1941
I7
sS'subj_freq'
p1942
I7
sS'display'
p1943
S'describe'
p1944
sS'prob'
p1945
F1.0
ssS'sending <dobj>'
p1946
(dp1947
g268
I7
sg269
I7
sg270
g271
sg272
S'sending'
p1948
sg274
F1.0
ssS'<subj> says'
p1949
(dp1950
g30
g791
sg32
I9
sg33
I9
sg34
S'says'
p1951
sg36
F1.0
ssS'wrecked <dobj>'
p1952
(dp1953
g548
g1578
sg550
I3
sg551
I3
sg552
S'wrecked'
p1954
sg554
F1.0
ssS'to offer <dobj>'
p1955
(dp1956
g882
g1674
sg884
I9
sg885
I9
sg886
S'to offer'
p1957
sg888
F1.0
ssS"<subj> 've age"
p1958
(dp1959
S'type'
p1960
S'subj'
p1961
sS'freq'
p1962
I9
sS'subj_freq'
p1963
I9
sS'display'
p1964
S"'ve age"
p1965
sS'prob'
p1966
F1.0
ssS'<subj> fight term'
p1967
(dp1968
g268
I7
sg269
I7
sg270
g820
sg272
S'fight term'
p1969
sg274
F1.0
ssS'<subj> devoted'
p1970
(dp1971
g354
g355
sg356
I9
sg357
I9
sg358
S'devoted'
p1972
sg360
F1.0
ssS'thought <dobj>'
p1973
(dp1974
g575
I46
sg576
I46
sg577
S'dobj'
p1975
sg579
S'thought'
p1976
sg581
F1.0
ssS'is required for <np>'
p1977
(dp1978
g137
S'np'
p1979
sg139
I7
sg140
I7
sg141
S'is required for'
p1980
sg143
F1.0
ssS'<subj> continue to maintain'
p1981
(dp1982
g536
I7
sg537
I7
sg538
g1191
sg540
S'continue to maintain'
p1983
sg542
F1.0
ssS'to hold <dobj>'
p1984
(dp1985
g74
g281
sg76
I7
sg77
I7
sg78
S'to hold'
p1986
sg80
F1.0
ssS'discussed <dobj>'
p1987
(dp1988
g182
I21
sg183
I21
sg184
S'dobj'
p1989
sg186
S'discussed'
p1990
sg188
F1.0
ssS'<subj> doing network'
p1991
(dp1992
g52
g690
sg54
I21
sg55
I21
sg56
S'doing network'
p1993
sg58
F1.0
ssS'<subj> reach'
p1994
(dp1995
g52
g690
sg54
I21
sg55
I21
sg56
S'reach'
p1996
sg58
F1.0
ssS'<subj> knew'
p1997
(dp1998
g101
I7
sg102
I7
sg103
g104
sg105
S'knew'
p1999
sg107
F1.0
ssS'<subj> according classes'
p2000
(dp2001
g137
g350
sg139
I7
sg140
I7
sg141
S'according classes'
p2002
sg143
F1.0
ssS'<subj> are given'
p2003
(dp2004
g424
I7
sg425
I7
sg426
g427
sg428
S'are given'
p2005
sg430
F1.0
ssS'to exercise <dobj>'
p2006
(dp2007
g514
I9
sg515
I9
sg516
g517
sg518
S'to exercise'
p2008
sg520
F1.0
ssS'find <dobj>'
p2009
(dp2010
g74
g281
sg76
I18
sg77
I18
sg78
S'find'
p2011
sg80
F1.0
ssS'<subj> belongs life'
p2012
(dp2013
g83
I7
sg84
I7
sg85
g86
sg87
S'belongs life'
p2014
sg89
F1.0
ssS'thinking process of <np>'
p2015
(dp2016
g128
I21
sg129
I21
sg130
S'np'
p2017
sg132
S'thinking process of'
p2018
sg134
F1.0
ssS'<subj> has life'
p2019
(dp2020
g1074
I5
sg1075
I5
sg1076
g1077
sg1078
S'has life'
p2021
sg1080
F1.0
ssS'<subj> be done'
p2022
(dp2023
g760
g761
sg762
I7
sg763
I7
sg764
S'be done'
p2024
sg766
F1.0
ssS'<subj> lived'
p2025
(dp2026
S'type'
p2027
S'subj'
p2028
sS'freq'
p2029
I7
sS'subj_freq'
p2030
I7
sS'display'
p2031
S'lived'
p2032
sS'prob'
p2033
F1.0
ssS'know <dobj>'
p2034
(dp2035
g234
I39
sg235
I39
sg236
g944
sg238
S'know'
p2036
sg240
F1.0
ssS'need to make <dobj>'
p2037
(dp2038
g665
I19
sg666
I19
sg667
g668
sg669
S'need to make'
p2039
sg671
F1.0
ssS'<subj> have Ted'
p2040
(dp2041
g384
I7
sg385
I7
sg386
g387
sg388
S'have Ted'
p2042
sg390
F1.0
ssS'<subj> fly cloud'
p2043
(dp2044
g1381
g1382
sg1383
I9
sg1384
I9
sg1385
S'fly cloud'
p2045
sg1387
F1.0
ssS'<subj> develop'
p2046
(dp2047
g12
g277
sg14
I9
sg15
I9
sg16
S'develop'
p2048
sg18
F1.0
ssS'<subj> depressed'
p2049
(dp2050
g191
g192
sg193
I21
sg194
I21
sg195
S'depressed'
p2051
sg197
F1.0
ssS'<subj> deserves'
p2052
(dp2053
g119
I7
sg120
I7
sg121
g1506
sg123
S'deserves'
p2054
sg125
F1.0
ssS'<subj> touched'
p2055
(dp2056
g782
g783
sg784
I7
sg785
I7
sg786
S'touched'
p2057
sg788
F1.0
ssS'<subj> is required'
p2058
(dp2059
g137
g350
sg139
I7
sg140
I7
sg141
S'is required'
p2060
sg143
F1.0
ssS'<subj> quit years'
p2061
(dp2062
g415
g416
sg417
I4
sg418
I4
sg419
S'quit years'
p2063
sg421
F1.0
ssS'<subj> doing ones'
p2064
(dp2065
g52
g690
sg54
I21
sg55
I21
sg56
S'doing ones'
p2066
sg58
F1.0
ssS'<subj> love'
p2067
(dp2068
S'subj_freq'
p2069
I9
sS'freq'
p2070
I9
sS'type'
p2071
S'subj'
p2072
sS'display'
p2073
S'love'
p2074
sS'prob'
p2075
F1.0
ssS'confirm <dobj>'
p2076
(dp2077
g1134
S'dobj'
p2078
sg1136
I7
sg1137
I7
sg1138
S'confirm'
p2079
sg1140
F1.0
ssS'<subj> creating God'
p2080
(dp2081
g225
g226
sg227
I4
sg228
I4
sg229
S'creating God'
p2082
sg231
F1.0
ssS'<subj> deserved'
p2083
(dp2084
g119
I7
sg120
I7
sg121
g1506
sg123
S'deserved'
p2085
sg125
F1.0
ssS'<subj> live'
p2086
(dp2087
g83
I16
sg84
I16
sg85
g86
sg87
S'live'
p2088
sg89
F1.0
ssS'are presented in <np>'
p2089
(dp2090
g406
I9
sg407
I9
sg408
S'np'
p2091
sg410
S'are presented in'
p2092
sg412
F1.0
ssS'<subj> doing'
p2093
(dp2094
g52
g690
sg54
I21
sg55
I21
sg56
S'doing'
p2095
sg58
F1.0
ssS'<subj> sharing'
p2096
(dp2097
g216
I7
sg217
I7
sg218
g1480
sg220
S'sharing'
p2098
sg222
F1.0
ssS'<subj> are discussed'
p2099
(dp2100
g182
I21
sg183
I21
sg184
g185
sg186
S'are discussed'
p2101
sg188
F1.0
ssS'describe <dobj>'
p2102
(dp2103
g1939
S'dobj'
p2104
sg1941
I7
sg1942
I7
sg1943
S'describe'
p2105
sg1945
F1.0
ssS'<subj> deliver'
p2106
(dp2107
S'type'
p2108
S'subj'
p2109
sS'freq'
p2110
I4
sS'subj_freq'
p2111
I4
sS'display'
p2112
S'deliver'
p2113
sS'prob'
p2114
F1.0
ssS'<subj> is eliminated'
p2115
(dp2116
g52
g690
sg54
I21
sg55
I21
sg56
S'is eliminated'
p2117
sg58
F1.0
ssS'continue to maintain <dobj>'
p2118
(dp2119
g536
I7
sg537
I7
sg538
g539
sg540
S'continue to maintain'
p2120
sg542
F1.0
ssS'<subj> bringing responsibility'
p2121
(dp2122
g1787
I23
sg1788
I23
sg1789
g1790
sg1791
S'bringing responsibility'
p2123
sg1793
F1.0
ssS'understand <dobj>'
p2124
(dp2125
g436
I7
sg437
I7
sg438
g1516
sg440
S'understand'
p2126
sg442
F1.0
ssS'<subj> getting'
p2127
(dp2128
g742
I7
sg743
I7
sg744
g1882
sg746
S'getting'
p2129
sg748
F1.0
ssS'<subj> be told'
p2130
(dp2131
g483
g484
sg485
I19
sg486
I19
sg487
S'be told'
p2132
sg489
F1.0
ssS'use of <np>'
p2133
(dp2134
g916
I0
sg917
I17
sg918
S'np'
p2135
sg920
S'use of'
p2136
sg922
F0.0
ssS'build <dobj>'
p2137
(dp2138
g268
I7
sg269
I7
sg270
g271
sg272
S'build'
p2139
sg274
F1.0
ssS'<subj> produces'
p2140
(dp2141
g173
S'subj'
p2142
sg175
I7
sg176
I7
sg177
S'produces'
p2143
sg179
F1.0
ssS'<subj> dominating'
p2144
(dp2145
g52
g690
sg54
I21
sg55
I21
sg56
S'dominating'
p2146
sg58
F1.0
ssS'<subj> presented'
p2147
(dp2148
g406
I9
sg407
I9
sg408
g1293
sg410
S'presented'
p2149
sg412
F1.0
ssS'<subj> required'
p2150
(dp2151
g137
g350
sg139
I7
sg140
I7
sg141
S'required'
p2152
sg143
F1.0
ssS'<subj> was connected'
p2153
(dp2154
g52
g690
sg54
I21
sg55
I21
sg56
S'was connected'
p2155
sg58
F1.0
ssS'spread across <np>'
p2156
(dp2157
g492
I21
sg493
I21
sg494
S'np'
p2158
sg496
S'spread across'
p2159
sg498
F1.0
ssS'<subj> taking'
p2160
(dp2161
g1207
g1208
sg1209
I13
sg1210
I13
sg1211
S'taking'
p2162
sg1213
F1.0
ssS'reach <dobj>'
p2163
(dp2164
g52
g53
sg54
I21
sg55
I21
sg56
S'reach'
p2165
sg58
F1.0
ssS'<subj> gave reports'
p2166
(dp2167
g751
g752
sg753
I7
sg754
I7
sg755
S'gave reports'
p2168
sg757
F1.0
ssS'<subj> moved Ohio'
p2169
(dp2170
g285
g611
sg287
I7
sg288
I7
sg289
S'moved Ohio'
p2171
sg291
F1.0
ssS"<subj> 'm"
p2172
(dp2173
g861
g862
sg863
I72
sg864
I72
sg865
S"'m"
p2174
sg867
F1.0
ssS'<subj> need to try'
p2175
(dp2176
S'type'
p2177
S'subj'
p2178
sS'freq'
p2179
I23
sS'subj_freq'
p2180
I23
sS'display'
p2181
S'need to try'
p2182
sS'prob'
p2183
F1.0
ssS'watching <dobj>'
p2184
(dp2185
g52
g53
sg54
I27
sg55
I27
sg56
S'watching'
p2186
sg58
F1.0
ssS'contribute <dobj>'
p2187
(dp2188
g824
I9
sg825
I9
sg826
S'dobj'
p2189
sg828
S'contribute'
p2190
sg830
F1.0
ssS'watching years ago <np>'
p2191
(dp2192
g52
S'np'
p2193
sg54
I21
sg55
I21
sg56
S'watching years ago'
p2194
sg58
F1.0
ssS'wants idea of <np>'
p2195
(dp2196
g852
I7
sg853
I7
sg854
S'np'
p2197
sg856
S'wants idea of'
p2198
sg858
F1.0
ssS'<subj> undo'
p2199
(dp2200
g146
g147
sg148
I21
sg149
I21
sg150
S'undo'
p2201
sg152
F1.0
ssS'need <dobj>'
p2202
(dp2203
g234
I95
sg235
I95
sg236
g944
sg238
S'need'
p2204
sg240
F1.0
ssS'<subj> bringing'
p2205
(dp2206
g1787
I23
sg1788
I23
sg1789
g1790
sg1791
S'bringing'
p2207
sg1793
F1.0
ssS'<subj> be changed'
p2208
(dp2209
g782
g783
sg784
I7
sg785
I7
sg786
S'be changed'
p2210
sg788
F1.0
ssS'<subj> forget'
p2211
(dp2212
g1405
g1711
sg1407
I7
sg1408
I7
sg1409
S'forget'
p2213
sg1411
F1.0
ssS'<subj> is was'
p2214
(dp2215
g30
g791
sg32
I9
sg33
I9
sg34
S'is was'
p2216
sg36
F1.0
ssS"<subj> 's"
p2217
(dp2218
g341
S'subj'
p2219
sg343
I176
sg344
I176
sg345
S"'s"
p2220
sg347
F1.0
ssS'<subj> found'
p2221
(dp2222
g285
g611
sg287
I7
sg288
I7
sg289
S'found'
p2223
sg291
F1.0
ssS'<subj> sounds'
p2224
(dp2225
g363
I22
sg364
I22
sg365
g1040
sg367
S'sounds'
p2226
sg369
F1.0
ssS'want <dobj>'
p2227
(dp2228
g870
S'dobj'
p2229
sg872
I41
sg873
I41
sg874
S'want'
p2230
sg876
F1.0
ssS'<subj> listening'
p2231
(dp2232
g833
g834
sg835
I21
sg836
I21
sg837
S'listening'
p2233
sg839
F1.0
ssS'<subj> seem to understand'
p2234
(dp2235
g1778
S'subj'
p2236
sg1780
I7
sg1781
I7
sg1782
S'seem to understand'
p2237
sg1784
F1.0
ssS'threw <dobj>'
p2238
(dp2239
g628
I7
sg629
I7
sg630
S'dobj'
p2240
sg632
S'threw'
p2241
sg634
F1.0
ssS'<subj> need discipline'
p2242
(dp2243
g483
g484
sg485
I19
sg486
I19
sg487
S'need discipline'
p2244
sg489
F1.0
ssS'<subj> seeing'
p2245
(dp2246
g751
g752
sg753
I7
sg754
I7
sg755
S'seeing'
p2247
sg757
F1.0
ssS'struck <dobj>'
p2248
(dp2249
g1825
S'dobj'
p2250
sg1827
I21
sg1828
I21
sg1829
S'struck'
p2251
sg1831
F1.0
ssS'<subj> exercise right'
p2252
(dp2253
g514
I9
sg515
I9
sg516
g1121
sg518
S'exercise right'
p2254
sg520
F1.0
ssS'lived <dobj>'
p2255
(dp2256
g2027
S'dobj'
p2257
sg2029
I7
sg2030
I7
sg2031
S'lived'
p2258
sg2033
F1.0
ssS'managing <dobj>'
p2259
(dp2260
g1101
I4
sg1102
I4
sg1103
S'dobj'
p2261
sg1105
S'managing'
p2262
sg1107
F1.0
ssS'<subj> give'
p2263
(dp2264
S'type'
p2265
S'subj'
p2266
sS'freq'
p2267
I7
sS'subj_freq'
p2268
I7
sS'display'
p2269
S'give'
p2270
sS'prob'
p2271
F1.0
ssS'moved <dobj>'
p2272
(dp2273
g285
g286
sg287
I7
sg288
I7
sg289
S'moved'
p2274
sg291
F1.0
ssS'<subj> reduced fish'
p2275
(dp2276
g548
g549
sg550
I3
sg551
I3
sg552
S'reduced fish'
p2277
sg554
F1.0
ssS'<subj> misled'
p2278
(dp2279
g640
I21
sg641
I21
sg642
g707
sg644
S'misled'
p2280
sg646
F1.0
ssS'<subj> made'
p2281
(dp2282
g833
g834
sg835
I28
sg836
I28
sg837
S'made'
p2283
sg839
F1.0
ssS'<subj> cause'
p2284
(dp2285
g30
g791
sg32
I9
sg33
I9
sg34
S'cause'
p2286
sg36
F1.0
ssS'selling <dobj>'
p2287
(dp2288
g1960
S'dobj'
p2289
sg1962
I16
sg1963
I16
sg1964
S'selling'
p2290
sg1966
F1.0
ssS"<subj> 're"
p2291
(dp2292
g52
g690
sg54
I41
sg55
I41
sg56
S"'re"
p2293
sg58
F1.0
ssS'<subj> arrive'
p2294
(dp2295
g1446
I7
sg1447
I7
sg1448
S'subj'
p2296
sg1450
S'arrive'
p2297
sg1452
F1.0
ssS'<subj> focused'
p2298
(dp2299
g384
I7
sg385
I7
sg386
g387
sg388
S'focused'
p2300
sg390
F1.0
ssS'<subj> see'
p2301
(dp2302
g204
I51
sg205
I51
sg206
g1701
sg208
S'see'
p2303
sg210
F1.0
ssS'to operate <dobj>'
p2304
(dp2305
g225
g1458
sg227
I4
sg228
I4
sg229
S'to operate'
p2306
sg231
F1.0
ssS'<subj> knows idea'
p2307
(dp2308
g852
I7
sg853
I7
sg854
g1097
sg856
S'knows idea'
p2309
sg858
F1.0
ssS'<subj> seeing things'
p2310
(dp2311
g751
g752
sg753
I7
sg754
I7
sg755
S'seeing things'
p2312
sg757
F1.0
ssS'offer <dobj>'
p2313
(dp2314
g882
g1674
sg884
I9
sg885
I9
sg886
S'offer'
p2315
sg888
F1.0
ssS'make <dobj>'
p2316
(dp2317
g665
I35
sg666
I35
sg667
g668
sg669
S'make'
p2318
sg671
F1.0
ssS'fail <dobj>'
p2319
(dp2320
g454
g455
sg456
I27
sg457
I27
sg458
S'fail'
p2321
sg460
F1.0
ssS'<subj> seem'
p2322
(dp2323
g1778
g2236
sg1780
I7
sg1781
I7
sg1782
S'seem'
p2324
sg1784
F1.0
ssS'<subj> having properties'
p2325
(dp2326
g1252
I7
sg1253
I7
sg1254
g1761
sg1256
S'having properties'
p2327
sg1258
F1.0
ssS'<subj> talking'
p2328
(dp2329
g990
I21
sg991
I21
sg992
g993
sg994
S'talking'
p2330
sg996
F1.0
ssS'<subj> start'
p2331
(dp2332
g1658
I6
sg1659
I6
sg1660
g1746
sg1662
S'start'
p2333
sg1664
F1.0
ssS'<subj> heed'
p2334
(dp2335
g536
I7
sg537
I7
sg538
g1191
sg540
S'heed'
p2336
sg542
F1.0
ssS'<subj> learned paralysis'
p2337
(dp2338
g310
g311
sg312
I9
sg313
I9
sg314
S'learned paralysis'
p2339
sg316
F1.0
ssS'<subj> have carbon'
p2340
(dp2341
S'type'
p2342
S'subj'
p2343
sS'freq'
p2344
I9
sS'subj_freq'
p2345
I0
sS'display'
p2346
S'have carbon'
p2347
sS'prob'
p2348
F0.0
ssS'did <dobj>'
p2349
(dp2350
g393
g1149
sg395
I14
sg396
I14
sg397
S'did'
p2351
sg399
F1.0
ssS'<subj> saw talk'
p2352
(dp2353
g259
I7
sg260
I7
sg261
g925
sg263
S'saw talk'
p2354
sg265
F1.0
ssS'to cut <dobj>'
p2355
(dp2356
g110
I4
sg111
I4
sg112
g113
sg114
S'to cut'
p2357
sg116
F1.0
ssS'<subj> wants technology'
p2358
(dp2359
g852
I7
sg853
I7
sg854
g1097
sg856
S'wants technology'
p2360
sg858
F1.0
ssS'<subj> connected privacy'
p2361
(dp2362
g52
g690
sg54
I21
sg55
I21
sg56
S'connected privacy'
p2363
sg58
F1.0
ssS'<subj> means everybody'
p2364
(dp2365
g978
I9
sg979
I9
sg980
g981
sg982
S'means everybody'
p2366
sg984
F1.0
ssS'seem to understand <dobj>'
p2367
(dp2368
g1778
g1779
sg1780
I7
sg1781
I7
sg1782
S'seem to understand'
p2369
sg1784
F1.0
ssS'<subj> had arthritis'
p2370
(dp2371
g164
I7
sg165
I7
sg166
g167
sg168
S'had arthritis'
p2372
sg170
F1.0
ssS'Thanks for <np>'
p2373
(dp2374
g216
I7
sg217
I7
sg218
S'np'
p2375
sg220
S'Thanks for'
p2376
sg222
F1.0
ssS'<subj> explained'
p2377
(dp2378
g1381
g1382
sg1383
I9
sg1384
I9
sg1385
S'explained'
p2379
sg1387
F1.0
ssS'<subj> have search'
p2380
(dp2381
g234
I21
sg235
I21
sg236
g237
sg238
S'have search'
p2382
sg240
F1.0
ssS'<subj> lost powers'
p2383
(dp2384
g615
g1895
sg617
I55
sg618
I55
sg619
S'lost powers'
p2385
sg621
F1.0
ssS"<subj> 'm Japan"
p2386
(dp2387
g861
g862
sg863
I21
sg864
I21
sg865
S"'m Japan"
p2388
sg867
F1.0
ssS'<subj> come'
p2389
(dp2390
g30
g791
sg32
I9
sg33
I9
sg34
S'come'
p2391
sg36
F1.0
ssS'to keep <dobj>'
p2392
(dp2393
g1003
I9
sg1004
I9
sg1005
g1006
sg1007
S'to keep'
p2394
sg1009
F1.0
ssS'<subj> seeing clutter'
p2395
(dp2396
g751
g752
sg753
I7
sg754
I7
sg755
S'seeing clutter'
p2397
sg757
F1.0
ssS'to deliver <dobj>'
p2398
(dp2399
g2108
S'dobj'
p2400
sg2110
I4
sg2111
I4
sg2112
S'to deliver'
p2401
sg2114
F1.0
ssS'<subj> hidden'
p2402
(dp2403
g557
I4
sg558
I4
sg559
g1574
sg561
S'hidden'
p2404
sg563
F1.0
ssS'give <dobj>'
p2405
(dp2406
g2265
S'dobj'
p2407
sg2267
I7
sg2268
I7
sg2269
S'give'
p2408
sg2271
F1.0
ssS'saves <dobj>'
p2409
(dp2410
g698
S'dobj'
p2411
sg700
I7
sg701
I7
sg702
S'saves'
p2412
sg704
F1.0
ssS'<subj> decides journalist'
p2413
(dp2414
g1561
I9
sg1562
I9
sg1563
g1564
sg1565
S'decides journalist'
p2415
sg1567
F1.0
ssS'left stuff in <np>'
p2416
(dp2417
g1074
I5
sg1075
I5
sg1076
S'np'
p2418
sg1078
S'left stuff in'
p2419
sg1080
F1.0
ssS'<subj> build'
p2420
(dp2421
g268
I7
sg269
I7
sg270
g820
sg272
S'build'
p2422
sg274
F1.0
ssS'<subj> put'
p2423
(dp2424
g43
I42
sg44
I42
sg45
g624
sg47
S'put'
p2425
sg49
F1.0
ssS'<subj> was was'
p2426
(dp2427
g557
I4
sg558
I4
sg559
g1574
sg561
S'was was'
p2428
sg563
F1.0
ssS'to making <dobj>'
p2429
(dp2430
g1195
I6
sg1196
I6
sg1197
g1603
sg1199
S'to making'
p2431
sg1201
F1.0
ssS'<subj> do privilege'
p2432
(dp2433
g83
I7
sg84
I7
sg85
g86
sg87
S'do privilege'
p2434
sg89
F1.0
ssS"'re <dobj>"
p2435
(dp2436
g52
g53
sg54
I41
sg55
I41
sg56
S"'re"
p2437
sg58
F1.0
ssS'<subj> used'
p2438
(dp2439
g285
g611
sg287
I7
sg288
I7
sg289
S'used'
p2440
sg291
F1.0
ssS'<subj> suggests'
p2441
(dp2442
g916
I0
sg917
I17
sg918
S'subj'
p2443
sg920
S'suggests'
p2444
sg922
F0.0
ssS'<subj> required happiness'
p2445
(dp2446
g137
g350
sg139
I7
sg140
I7
sg141
S'required happiness'
p2447
sg143
F1.0
ssS'probing <dobj>'
p2448
(dp2449
g43
I42
sg44
I42
sg45
g1012
sg47
S'probing'
p2450
sg49
F1.0
ssS'<subj> uses'
p2451
(dp2452
g1243
S'subj'
p2453
sg1245
I17
sg1246
I17
sg1247
S'uses'
p2454
sg1249
F1.0
ssS'<subj> reject'
p2455
(dp2456
g640
I21
sg641
I21
sg642
g707
sg644
S'reject'
p2457
sg646
F1.0
ssS'bless <dobj>'
p2458
(dp2459
g216
I7
sg217
I7
sg218
g219
sg220
S'bless'
p2460
sg222
F1.0
ssS'<subj> become help'
p2461
(dp2462
g1207
g1208
sg1209
I13
sg1210
I13
sg1211
S'become help'
p2463
sg1213
F1.0
ssS'reached <dobj>'
p2464
(dp2465
g1465
I25
sg1466
I25
sg1467
g1821
sg1469
S'reached'
p2466
sg1471
F1.0
ssS'cup from <np>'
p2467
(dp2468
g119
I7
sg120
I7
sg121
S'np'
p2469
sg123
S'cup from'
p2470
sg125
F1.0
ssS'stop <dobj>'
p2471
(dp2472
g833
g1312
sg835
I21
sg836
I21
sg837
S'stop'
p2473
sg839
F1.0
ssS'quit <dobj>'
p2474
(dp2475
g415
g812
sg417
I4
sg418
I4
sg419
S'quit'
p2476
sg421
F1.0
ssS'love <dobj>'
p2477
(dp2478
g2069
I9
sg2070
I9
sg2071
S'dobj'
p2479
sg2073
S'love'
p2480
sg2075
F1.0
ssS'<subj> fail'
p2481
(dp2482
g454
g1168
sg456
I27
sg457
I27
sg458
S'fail'
p2483
sg460
F1.0
ssS'<subj> believe'
p2484
(dp2485
g323
g324
sg325
I30
sg326
I30
sg327
S'believe'
p2486
sg329
F1.0
ssS'dominating <dobj>'
p2487
(dp2488
g52
g53
sg54
I21
sg55
I21
sg56
S'dominating'
p2489
sg58
F1.0
ssS'shown <dobj>'
p2490
(dp2491
g323
g694
sg325
I42
sg326
I42
sg327
S'shown'
p2492
sg329
F1.0
ssS'<subj> sending army'
p2493
(dp2494
g268
I7
sg269
I7
sg270
g820
sg272
S'sending army'
p2495
sg274
F1.0
ssS'promise for <np>'
p2496
(dp2497
S'type'
p2498
S'np'
p2499
sS'freq'
p2500
I21
sS'subj_freq'
p2501
I21
sS'display'
p2502
S'promise for'
p2503
sS'prob'
p2504
F1.0
ssS'<subj> denied'
p2505
(dp2506
g640
I21
sg641
I21
sg642
g707
sg644
S'denied'
p2507
sg646
F1.0
ssS'<subj> came'
p2508
(dp2509
g259
I7
sg260
I7
sg261
g925
sg263
S'came'
p2510
sg265
F1.0
ssS'<subj> need search'
p2511
(dp2512
g234
I21
sg235
I21
sg236
g237
sg238
S'need search'
p2513
sg240
F1.0
ssS'interview on <np>'
p2514
(dp2515
g990
I21
sg991
I21
sg992
S'np'
p2516
sg994
S'interview on'
p2517
sg996
F1.0
ssS'<subj> providing way'
p2518
(dp2519
g204
I21
sg205
I21
sg206
g1701
sg208
S'providing way'
p2520
sg210
F1.0
ssS'<subj> have fish'
p2521
(dp2522
g548
g549
sg550
I3
sg551
I3
sg552
S'have fish'
p2523
sg554
F1.0
ssS'talking <dobj>'
p2524
(dp2525
g990
I21
sg991
I21
sg992
S'dobj'
p2526
sg994
S'talking'
p2527
sg996
F1.0
ssS'<subj> produces euphoria'
p2528
(dp2529
g173
g2142
sg175
I7
sg176
I7
sg177
S'produces euphoria'
p2530
sg179
F1.0
ssS'<subj> according to required'
p2531
(dp2532
g137
g350
sg139
I7
sg140
I7
sg141
S'according to required'
p2533
sg143
F1.0
ssS'say <dobj>'
p2534
(dp2535
g990
I68
sg991
I68
sg992
g2526
sg994
S'say'
p2536
sg996
F1.0
ssS'to creating <dobj>'
p2537
(dp2538
g882
g1674
sg884
I9
sg885
I9
sg886
S'to creating'
p2539
sg888
F1.0
ssS'<subj> leads'
p2540
(dp2541
g332
g333
sg334
I21
sg335
I21
sg336
S'leads'
p2542
sg338
F1.0
ssS'<subj> uses Europe'
p2543
(dp2544
g1243
g2453
sg1245
I17
sg1246
I17
sg1247
S'uses Europe'
p2545
sg1249
F1.0
ssS'<subj> selling'
p2546
(dp2547
g1960
g1961
sg1962
I16
sg1963
I16
sg1964
S'selling'
p2548
sg1966
F1.0
ssS'to claim <dobj>'
p2549
(dp2550
g52
g53
sg54
I21
sg55
I21
sg56
S'to claim'
p2551
sg58
F1.0
ssS'<subj> claim'
p2552
(dp2553
g52
g690
sg54
I28
sg55
I28
sg56
S'claim'
p2554
sg58
F1.0
ssS'lead by <np>'
p2555
(dp2556
g1207
g1216
sg1209
I13
sg1210
I13
sg1211
S'lead by'
p2557
sg1213
F1.0
ssS'<subj> saw Education'
p2558
(dp2559
g259
I7
sg260
I7
sg261
g925
sg263
S'saw Education'
p2560
sg265
F1.0
ssS'<subj> witnessed'
p2561
(dp2562
g30
g791
sg32
I9
sg33
I9
sg34
S'witnessed'
p2563
sg36
F1.0
ssS'made <dobj>'
p2564
(dp2565
g833
g1312
sg835
I28
sg836
I28
sg837
S'made'
p2566
sg839
F1.0
ssS'<subj> become incomprehensible'
p2567
(dp2568
g43
I42
sg44
I42
sg45
g624
sg47
S'become incomprehensible'
p2569
sg49
F1.0
ssS'<subj> have years'
p2570
(dp2571
g523
I6
sg524
I6
sg525
g526
sg527
S'have years'
p2572
sg529
F1.0
ssS'<subj> take'
p2573
(dp2574
g536
I7
sg537
I7
sg538
g1191
sg540
S'take'
p2575
sg542
F1.0
ssS'<subj> has stuff'
p2576
(dp2577
g1074
I5
sg1075
I5
sg1076
g1077
sg1078
S'has stuff'
p2578
sg1080
F1.0
ssS'listening <dobj>'
p2579
(dp2580
g833
g1312
sg835
I21
sg836
I21
sg837
S'listening'
p2581
sg839
F1.0
ssS'witnessed <dobj>'
p2582
(dp2583
g30
g31
sg32
I9
sg33
I9
sg34
S'witnessed'
p2584
sg36
F1.0
ssS'deliver <dobj>'
p2585
(dp2586
g2108
g2400
sg2110
I4
sg2111
I4
sg2112
S'deliver'
p2587
sg2114
F1.0
ssS'made fun of <np>'
p2588
(dp2589
g628
I7
sg629
I7
sg630
S'np'
p2590
sg632
S'made fun of'
p2591
sg634
F1.0
ssS'<subj> help'
p2592
(dp2593
g415
g416
sg417
I4
sg418
I4
sg419
S'help'
p2594
sg421
F1.0
ssS'to do <dobj>'
p2595
(dp2596
g575
I49
sg576
I49
sg577
g1975
sg579
S'to do'
p2597
sg581
F1.0
ssS'<subj> told'
p2598
(dp2599
g483
g484
sg485
I19
sg486
I19
sg487
S'told'
p2600
sg489
F1.0
ssS'<subj> providing'
p2601
(dp2602
g204
I21
sg205
I21
sg206
g1701
sg208
S'providing'
p2603
sg210
F1.0
ssS'<subj> has ocean'
p2604
(dp2605
g119
I7
sg120
I7
sg121
g1506
sg123
S'has ocean'
p2606
sg125
F1.0
ssS'taking <dobj>'
p2607
(dp2608
g1207
S'dobj'
p2609
sg1209
I13
sg1210
I13
sg1211
S'taking'
p2610
sg1213
F1.0
ssS'<subj> sending'
p2611
(dp2612
g268
I7
sg269
I7
sg270
g820
sg272
S'sending'
p2613
sg274
F1.0
ssS"<subj> 's problem"
p2614
(dp2615
g363
I22
sg364
I22
sg365
g1040
sg367
S"'s problem"
p2616
sg369
F1.0
ssS'<subj> done to reduced'
p2617
(dp2618
g548
g549
sg550
I3
sg551
I3
sg552
S'done to reduced'
p2619
sg554
F1.0
ssS'put <dobj>'
p2620
(dp2621
g43
I42
sg44
I42
sg45
g1012
sg47
S'put'
p2622
sg49
F1.0
ssS'<subj> have ruling'
p2623
(dp2624
g146
g147
sg148
I21
sg149
I21
sg150
S'have ruling'
p2625
sg152
F1.0
ssS'<subj> got'
p2626
(dp2627
g30
g791
sg32
I9
sg33
I9
sg34
S'got'
p2628
sg36
F1.0
ssS'<subj> sees'
p2629
(dp2630
g43
I42
sg44
I42
sg45
g624
sg47
S'sees'
p2631
sg49
F1.0
ssS'explains <dobj>'
p2632
(dp2633
g43
I42
sg44
I42
sg45
g1012
sg47
S'explains'
p2634
sg49
F1.0
ssS'<subj> have pain'
p2635
(dp2636
g2027
g2028
sg2029
I7
sg2030
I7
sg2031
S'have pain'
p2637
sg2033
F1.0
ssS'<subj> moved'
p2638
(dp2639
g285
g611
sg287
I7
sg288
I7
sg289
S'moved'
p2640
sg291
F1.0
ssS'<subj> making'
p2641
(dp2642
g733
I34
sg734
I34
sg735
g799
sg737
S'making'
p2643
sg739
F1.0
ssS'<subj> think'
p2644
(dp2645
g204
I74
sg205
I74
sg206
g1701
sg208
S'think'
p2646
sg210
F1.0
ssS'unveiled <dobj>'
p2647
(dp2648
g354
g1023
sg356
I9
sg357
I9
sg358
S'unveiled'
p2649
sg360
F1.0
ssS'written <dobj>'
p2650
(dp2651
g1195
I6
sg1196
I6
sg1197
g1603
sg1199
S'written'
p2652
sg1201
F1.0
ssS'<subj> governing ruling'
p2653
(dp2654
g146
g147
sg148
I21
sg149
I21
sg150
S'governing ruling'
p2655
sg152
F1.0
ssS'bothered <dobj>'
p2656
(dp2657
g523
I6
sg524
I6
sg525
g1354
sg527
S'bothered'
p2658
sg529
F1.0
ssS'conceded <dobj>'
p2659
(dp2660
g101
I7
sg102
I7
sg103
g306
sg105
S'conceded'
p2661
sg107
F1.0
ssS'<subj> are articulated'
p2662
(dp2663
g514
I9
sg515
I9
sg516
g1121
sg518
S'are articulated'
p2664
sg520
F1.0
ssS'<subj> has love'
p2665
(dp2666
g30
g791
sg32
I9
sg33
I9
sg34
S'has love'
p2667
sg36
F1.0
ssS'bringing <dobj>'
p2668
(dp2669
g1787
I23
sg1788
I23
sg1789
S'dobj'
p2670
sg1791
S'bringing'
p2671
sg1793
F1.0
ssS'<subj> left life'
p2672
(dp2673
g1074
I5
sg1075
I5
sg1076
g1077
sg1078
S'left life'
p2674
sg1080
F1.0
ssS'need to try <dobj>'
p2675
(dp2676
g2177
S'dobj'
p2677
sg2179
I23
sg2180
I23
sg2181
S'need to try'
p2678
sg2183
F1.0
ssS'<subj> conceded'
p2679
(dp2680
g101
I7
sg102
I7
sg103
g104
sg105
S'conceded'
p2681
sg107
F1.0
ssS'<subj> have form'
p2682
(dp2683
g173
g2142
sg175
I7
sg176
I7
sg177
S'have form'
p2684
sg179
F1.0
ssS'<subj> operate'
p2685
(dp2686
g225
g226
sg227
I4
sg228
I4
sg229
S'operate'
p2687
sg231
F1.0
ssS'rate of <np>'
p2688
(dp2689
g1825
S'np'
p2690
sg1827
I21
sg1828
I21
sg1829
S'rate of'
p2691
sg1831
F1.0
ssS'<subj> fly'
p2692
(dp2693
g1381
g1382
sg1383
I9
sg1384
I9
sg1385
S'fly'
p2694
sg1387
F1.0
ssS'<subj> have been misled'
p2695
(dp2696
g640
I21
sg641
I21
sg642
g707
sg644
S'have been misled'
p2697
sg646
F1.0
ssS'<subj> want hall'
p2698
(dp2699
S'subj_freq'
p2700
I7
sS'freq'
p2701
I7
sS'type'
p2702
S'subj'
p2703
sS'display'
p2704
S'want hall'
p2705
sS'prob'
p2706
F1.0
ssS'learned to play <dobj>'
p2707
(dp2708
g557
I4
sg558
I4
sg559
g560
sg561
S'learned to play'
p2709
sg563
F1.0
ss.