(dp0
S"'ve <dobj>"
p1
(dp2
S'subj_freq'
p3
I22
sS'freq'
p4
I22
sS'type'
p5
S'dobj'
p6
sS'display'
p7
S"'ve"
p8
sS'prob'
p9
F1.0
ssS'changing <dobj>'
p10
(dp11
S'subj_freq'
p12
I9
sS'freq'
p13
I9
sS'type'
p14
S'dobj'
p15
sS'display'
p16
S'changing'
p17
sS'prob'
p18
F1.0
ssS'assertion that <np>'
p19
(dp20
S'type'
p21
S'np'
p22
sS'freq'
p23
I7
sS'subj_freq'
p24
I7
sS'display'
p25
S'assertion that'
p26
sS'prob'
p27
F1.0
ssS'cause <dobj>'
p28
(dp29
S'subj_freq'
p30
I9
sS'freq'
p31
I9
sS'type'
p32
S'dobj'
p33
sS'display'
p34
S'cause'
p35
sS'prob'
p36
F1.0
ssS'thinks sister of <np>'
p37
(dp38
g30
I9
sg31
I9
sg32
S'np'
p39
sg34
S'thinks sister of'
p40
sg36
F1.0
ssS'put focus on <np>'
p41
(dp42
S'type'
p43
S'np'
p44
sS'freq'
p45
I42
sS'subj_freq'
p46
I42
sS'display'
p47
S'put focus on'
p48
sS'prob'
p49
F1.0
ssS'claim <dobj>'
p50
(dp51
S'subj_freq'
p52
I28
sS'freq'
p53
I28
sS'type'
p54
S'dobj'
p55
sS'display'
p56
S'claim'
p57
sS'prob'
p58
F1.0
ssS"<subj> 've"
p59
(dp60
g3
I22
sg4
I22
sg5
S'subj'
p61
sg7
S"'ve"
p62
sg9
F1.0
ssS'<subj> hate world'
p63
(dp64
S'type'
p65
S'subj'
p66
sS'freq'
p67
I9
sS'subj_freq'
p68
I9
sS'display'
p69
S'hate world'
p70
sS'prob'
p71
F1.0
ssS'<subj> hold'
p72
(dp73
S'subj_freq'
p74
I7
sS'freq'
p75
I7
sS'type'
p76
S'subj'
p77
sS'display'
p78
S'hold'
p79
sS'prob'
p80
F1.0
ssS'<subj> belongs'
p81
(dp82
S'type'
p83
S'subj'
p84
sS'freq'
p85
I7
sS'subj_freq'
p86
I7
sS'display'
p87
S'belongs'
p88
sS'prob'
p89
F1.0
ssS'gives <dobj>'
p90
(dp91
S'type'
p92
S'dobj'
p93
sS'freq'
p94
I7
sS'subj_freq'
p95
I7
sS'display'
p96
S'gives'
p97
sS'prob'
p98
F1.0
ssS'<subj> knew Beijing'
p99
(dp100
S'type'
p101
S'subj'
p102
sS'freq'
p103
I7
sS'subj_freq'
p104
I7
sS'display'
p105
S'knew Beijing'
p106
sS'prob'
p107
F1.0
ssS'cut <dobj>'
p108
(dp109
S'type'
p110
S'dobj'
p111
sS'freq'
p112
I4
sS'subj_freq'
p113
I4
sS'display'
p114
S'cut'
p115
sS'prob'
p116
F1.0
ssS'deserved <dobj>'
p117
(dp118
S'type'
p119
S'dobj'
p120
sS'freq'
p121
I7
sS'subj_freq'
p122
I7
sS'display'
p123
S'deserved'
p124
sS'prob'
p125
F1.0
ssS'thinking <dobj>'
p126
(dp127
S'type'
p128
S'dobj'
p129
sS'freq'
p130
I21
sS'subj_freq'
p131
I21
sS'display'
p132
S'thinking'
p133
sS'prob'
p134
F1.0
ssS'according to required <dobj>'
p135
(dp136
S'subj_freq'
p137
I7
sS'freq'
p138
I7
sS'type'
p139
S'dobj'
p140
sS'display'
p141
S'according to required'
p142
sS'prob'
p143
F1.0
ssS'<subj> undo powers'
p144
(dp145
S'subj_freq'
p146
I21
sS'freq'
p147
I21
sS'type'
p148
S'subj'
p149
sS'display'
p150
S'undo powers'
p151
sS'prob'
p152
F1.0
ssS'<subj> excited topic'
p153
(dp154
S'subj_freq'
p155
I21
sS'freq'
p156
I21
sS'type'
p157
S'subj'
p158
sS'display'
p159
S'excited topic'
p160
sS'prob'
p161
F1.0
ssS"<subj> 's problem"
p162
(dp163
S'type'
p164
S'subj'
p165
sS'freq'
p166
I22
sS'subj_freq'
p167
I22
sS'display'
p168
S"'s problem"
p169
sS'prob'
p170
F1.0
ssS'produces <dobj>'
p171
(dp172
S'subj_freq'
p173
I7
sS'freq'
p174
I7
sS'type'
p175
S'dobj'
p176
sS'display'
p177
S'produces'
p178
sS'prob'
p179
F1.0
ssS'<subj> discussed'
p180
(dp181
S'type'
p182
S'subj'
p183
sS'freq'
p184
I21
sS'subj_freq'
p185
I21
sS'display'
p186
S'discussed'
p187
sS'prob'
p188
F1.0
ssS'<subj> complain'
p189
(dp190
S'subj_freq'
p191
I21
sS'freq'
p192
I21
sS'type'
p193
S'subj'
p194
sS'display'
p195
S'complain'
p196
sS'prob'
p197
F1.0
ssS'<subj> cut syndrome'
p198
(dp199
g110
S'subj'
p200
sg112
I4
sg113
I4
sg114
S'cut syndrome'
p201
sg116
F1.0
ssS'think <dobj>'
p202
(dp203
S'type'
p204
S'dobj'
p205
sS'freq'
p206
I74
sS'subj_freq'
p207
I74
sS'display'
p208
S'think'
p209
sS'prob'
p210
F1.0
ssS'<subj> belongs community'
p211
(dp212
g83
g84
sg85
I7
sg86
I7
sg87
S'belongs community'
p213
sg89
F1.0
ssS'sharing <dobj>'
p214
(dp215
S'type'
p216
S'dobj'
p217
sS'freq'
p218
I7
sS'subj_freq'
p219
I7
sS'display'
p220
S'sharing'
p221
sS'prob'
p222
F1.0
ssS'<subj> creating universe'
p223
(dp224
S'subj_freq'
p225
I4
sS'freq'
p226
I4
sS'type'
p227
S'subj'
p228
sS'display'
p229
S'creating universe'
p230
sS'prob'
p231
F1.0
ssS'<subj> seems'
p232
(dp233
S'type'
p234
S'subj'
p235
sS'freq'
p236
I28
sS'subj_freq'
p237
I28
sS'display'
p238
S'seems'
p239
sS'prob'
p240
F1.0
ssS'attributed <dobj>'
p241
(dp242
S'type'
p243
S'dobj'
p244
sS'freq'
p245
I10
sS'subj_freq'
p246
I10
sS'display'
p247
S'attributed'
p248
sS'prob'
p249
F1.0
ssS'according <dobj>'
p250
(dp251
g137
I7
sg138
I7
sg139
g140
sg141
S'according'
p252
sg143
F1.0
ssS'hate <dobj>'
p253
(dp254
g65
S'dobj'
p255
sg67
I9
sg68
I9
sg69
S'hate'
p256
sg71
F1.0
ssS'came <dobj>'
p257
(dp258
S'type'
p259
S'dobj'
p260
sS'freq'
p261
I7
sS'subj_freq'
p262
I7
sS'display'
p263
S'came'
p264
sS'prob'
p265
F1.0
ssS'to fight <dobj>'
p266
(dp267
S'type'
p268
S'dobj'
p269
sS'freq'
p270
I7
sS'subj_freq'
p271
I7
sS'display'
p272
S'to fight'
p273
sS'prob'
p274
F1.0
ssS'<subj> changing education'
p275
(dp276
g12
I9
sg13
I9
sg14
S'subj'
p277
sg16
S'changing education'
p278
sg18
F1.0
ssS'hold <dobj>'
p279
(dp280
g74
I7
sg75
I7
sg76
S'dobj'
p281
sg78
S'hold'
p282
sg80
F1.0
ssS'<subj> connected'
p283
(dp284
g52
I25
sg53
I25
sg54
S'subj'
p285
sg56
S'connected'
p286
sg58
F1.0
ssS'<subj> needed'
p287
(dp288
S'type'
p289
S'subj'
p290
sS'freq'
p291
I28
sS'subj_freq'
p292
I28
sS'display'
p293
S'needed'
p294
sS'prob'
p295
F1.0
ssS'<subj> needed to teach'
p296
(dp297
g289
g290
sg291
I21
sg292
I21
sg293
S'needed to teach'
p298
sg295
F1.0
ssS'knew <dobj>'
p299
(dp300
g101
S'dobj'
p301
sg103
I7
sg104
I7
sg105
S'knew'
p302
sg107
F1.0
ssS'<subj> get input'
p303
(dp304
S'subj_freq'
p305
I9
sS'freq'
p306
I9
sS'type'
p307
S'subj'
p308
sS'display'
p309
S'get input'
p310
sS'prob'
p311
F1.0
ssS'<subj> attributed'
p312
(dp313
g243
S'subj'
p314
sg245
I10
sg246
I10
sg247
S'attributed'
p315
sg249
F1.0
ssS'<subj> solving'
p316
(dp317
S'subj_freq'
p318
I21
sS'freq'
p319
I21
sS'type'
p320
S'subj'
p321
sS'display'
p322
S'solving'
p323
sS'prob'
p324
F1.0
ssS'<subj> does'
p325
(dp326
S'subj_freq'
p327
I47
sS'freq'
p328
I47
sS'type'
p329
S'subj'
p330
sS'display'
p331
S'does'
p332
sS'prob'
p333
F1.0
ssS"'s <dobj>"
p334
(dp335
S'subj_freq'
p336
I176
sS'freq'
p337
I176
sS'type'
p338
S'dobj'
p339
sS'display'
p340
S"'s"
p341
sS'prob'
p342
F1.0
ssS'<subj> according'
p343
(dp344
g137
I7
sg138
I7
sg139
S'subj'
p345
sg141
S'according'
p346
sg143
F1.0
ssS'<subj> be unveiled'
p347
(dp348
S'subj_freq'
p349
I9
sS'freq'
p350
I9
sS'type'
p351
S'subj'
p352
sS'display'
p353
S'be unveiled'
p354
sS'prob'
p355
F1.0
ssS'sounds <dobj>'
p356
(dp357
g164
S'dobj'
p358
sg166
I22
sg167
I22
sg168
S'sounds'
p359
sg170
F1.0
ssS'<subj> learn'
p360
(dp361
S'type'
p362
S'subj'
p363
sS'freq'
p364
I7
sS'subj_freq'
p365
I7
sS'display'
p366
S'learn'
p367
sS'prob'
p368
F1.0
ssS'<subj> needed education'
p369
(dp370
g289
g290
sg291
I21
sg292
I21
sg293
S'needed education'
p371
sg295
F1.0
ssS'<subj> going'
p372
(dp373
S'type'
p374
S'subj'
p375
sS'freq'
p376
I7
sS'subj_freq'
p377
I7
sS'display'
p378
S'going'
p379
sS'prob'
p380
F1.0
ssS'<subj> like'
p381
(dp382
S'subj_freq'
p383
I9
sS'freq'
p384
I9
sS'type'
p385
S'subj'
p386
sS'display'
p387
S'like'
p388
sS'prob'
p389
F1.0
ssS'<subj> gives'
p390
(dp391
g92
S'subj'
p392
sg94
I7
sg95
I7
sg96
S'gives'
p393
sg98
F1.0
ssS'presented <dobj>'
p394
(dp395
S'type'
p396
S'dobj'
p397
sS'freq'
p398
I9
sS'subj_freq'
p399
I9
sS'display'
p400
S'presented'
p401
sS'prob'
p402
F1.0
ssS'<subj> quit'
p403
(dp404
S'subj_freq'
p405
I4
sS'freq'
p406
I4
sS'type'
p407
S'subj'
p408
sS'display'
p409
S'quit'
p410
sS'prob'
p411
F1.0
ssS'<subj> given'
p412
(dp413
S'type'
p414
S'subj'
p415
sS'freq'
p416
I7
sS'subj_freq'
p417
I7
sS'display'
p418
S'given'
p419
sS'prob'
p420
F1.0
ssS'<subj> solving energy'
p421
(dp422
g318
I21
sg319
I21
sg320
g321
sg322
S'solving energy'
p423
sg324
F1.0
ssS'<subj> understand'
p424
(dp425
S'type'
p426
S'subj'
p427
sS'freq'
p428
I7
sS'subj_freq'
p429
I7
sS'display'
p430
S'understand'
p431
sS'prob'
p432
F1.0
ssS'<subj> defends'
p433
(dp434
S'subj_freq'
p435
I9
sS'freq'
p436
I9
sS'type'
p437
S'subj'
p438
sS'display'
p439
S'defends'
p440
sS'prob'
p441
F1.0
ssS'<subj> be done'
p442
(dp443
S'subj_freq'
p444
I7
sS'freq'
p445
I7
sS'type'
p446
S'subj'
p447
sS'display'
p448
S'be done'
p449
sS'prob'
p450
F1.0
ssS'<subj> poses'
p451
(dp452
S'subj_freq'
p453
I9
sS'freq'
p454
I9
sS'type'
p455
S'subj'
p456
sS'display'
p457
S'poses'
p458
sS'prob'
p459
F1.0
ssS'poses <dobj>'
p460
(dp461
g453
I9
sg454
I9
sg455
S'dobj'
p462
sg457
S'poses'
p463
sg459
F1.0
ssS'<subj> buy assertion'
p464
(dp465
g21
S'subj'
p466
sg23
I7
sg24
I7
sg25
S'buy assertion'
p467
sg27
F1.0
ssS'<subj> learn development'
p468
(dp469
g362
g363
sg364
I7
sg365
I7
sg366
S'learn development'
p470
sg368
F1.0
ssS'<subj> has years'
p471
(dp472
S'subj_freq'
p473
I19
sS'freq'
p474
I19
sS'type'
p475
S'subj'
p476
sS'display'
p477
S'has years'
p478
sS'prob'
p479
F1.0
ssS'prevent <dobj>'
p480
(dp481
S'type'
p482
S'dobj'
p483
sS'freq'
p484
I21
sS'subj_freq'
p485
I21
sS'display'
p486
S'prevent'
p487
sS'prob'
p488
F1.0
ssS'<subj> copied'
p489
(dp490
S'subj_freq'
p491
I21
sS'freq'
p492
I21
sS'type'
p493
S'subj'
p494
sS'display'
p495
S'copied'
p496
sS'prob'
p497
F1.0
ssS"<subj> 'm"
p498
(dp499
S'subj_freq'
p500
I73
sS'freq'
p501
I73
sS'type'
p502
S'subj'
p503
sS'display'
p504
S"'m"
p505
sS'prob'
p506
F1.0
ssS'belongs to do <dobj>'
p507
(dp508
g83
S'dobj'
p509
sg85
I7
sg86
I7
sg87
S'belongs to do'
p510
sg89
F1.0
ssS'<subj> waste reason'
p511
(dp512
S'type'
p513
S'subj'
p514
sS'freq'
p515
I6
sS'subj_freq'
p516
I6
sS'display'
p517
S'waste reason'
p518
sS'prob'
p519
F1.0
ssS'complain <dobj>'
p520
(dp521
g191
I21
sg192
I21
sg193
S'dobj'
p522
sg195
S'complain'
p523
sg197
F1.0
ssS'take <dobj>'
p524
(dp525
S'type'
p526
S'dobj'
p527
sS'freq'
p528
I7
sS'subj_freq'
p529
I7
sS'display'
p530
S'take'
p531
sS'prob'
p532
F1.0
ssS"<subj> 're part"
p533
(dp534
g52
I21
sg53
I21
sg54
g285
sg56
S"'re part"
p535
sg58
F1.0
ssS'<subj> done environment'
p536
(dp537
S'subj_freq'
p538
I3
sS'freq'
p539
I3
sS'type'
p540
S'subj'
p541
sS'display'
p542
S'done environment'
p543
sS'prob'
p544
F1.0
ssS'walking <dobj>'
p545
(dp546
S'type'
p547
S'dobj'
p548
sS'freq'
p549
I4
sS'subj_freq'
p550
I4
sS'display'
p551
S'walking'
p552
sS'prob'
p553
F1.0
ssS'found <dobj>'
p554
(dp555
S'subj_freq'
p556
I7
sS'freq'
p557
I7
sS'type'
p558
S'dobj'
p559
sS'display'
p560
S'found'
p561
sS'prob'
p562
F1.0
ssS'<subj> need'
p563
(dp564
g234
g235
sg236
I95
sg237
I95
sg238
S'need'
p565
sg240
F1.0
ssS'<subj> waste'
p566
(dp567
g513
g514
sg515
I6
sg516
I6
sg517
S'waste'
p568
sg519
F1.0
ssS'<subj> do things'
p569
(dp570
S'type'
p571
S'subj'
p572
sS'freq'
p573
I21
sS'subj_freq'
p574
I21
sS'display'
p575
S'do things'
p576
sS'prob'
p577
F1.0
ssS'<subj> state'
p578
(dp579
S'type'
p580
S'subj'
p581
sS'freq'
p582
I23
sS'subj_freq'
p583
I23
sS'display'
p584
S'state'
p585
sS'prob'
p586
F1.0
ssS'<subj> been attributed'
p587
(dp588
g538
I3
sg539
I3
sg540
g541
sg542
S'been attributed'
p589
sg544
F1.0
ssS'<subj> led'
p590
(dp591
g435
I9
sg436
I9
sg437
g438
sg439
S'led'
p592
sg441
F1.0
ssS'<subj> do'
p593
(dp594
S'type'
p595
S'subj'
p596
sS'freq'
p597
I250
sS'subj_freq'
p598
I250
sS'display'
p599
S'do'
p600
sS'prob'
p601
F1.0
ssS'<subj> poses absence'
p602
(dp603
g453
I9
sg454
I9
sg455
g456
sg457
S'poses absence'
p604
sg459
F1.0
ssS'<subj> used Daniel'
p605
(dp606
g556
I7
sg557
I7
sg558
S'subj'
p607
sg560
S'used Daniel'
p608
sg562
F1.0
ssS'lost <dobj>'
p609
(dp610
S'subj_freq'
p611
I55
sS'freq'
p612
I55
sS'type'
p613
S'dobj'
p614
sS'display'
p615
S'lost'
p616
sS'prob'
p617
F1.0
ssS'<subj> become'
p618
(dp619
g43
S'subj'
p620
sg45
I64
sg46
I64
sg47
S'become'
p621
sg49
F1.0
ssS'<subj> threw'
p622
(dp623
S'type'
p624
S'subj'
p625
sS'freq'
p626
I7
sS'subj_freq'
p627
I7
sS'display'
p628
S'threw'
p629
sS'prob'
p630
F1.0
ssS'<subj> helps paralysis'
p631
(dp632
g305
I9
sg306
I9
sg307
g308
sg309
S'helps paralysis'
p633
sg311
F1.0
ssS'to misled <dobj>'
p634
(dp635
S'type'
p636
S'dobj'
p637
sS'freq'
p638
I21
sS'subj_freq'
p639
I21
sS'display'
p640
S'to misled'
p641
sS'prob'
p642
F1.0
ssS'belongs <dobj>'
p643
(dp644
g83
g509
sg85
I7
sg86
I7
sg87
S'belongs'
p645
sg89
F1.0
ssS'<subj> be interpreted'
p646
(dp647
S'type'
p648
S'subj'
p649
sS'freq'
p650
I7
sS'subj_freq'
p651
I7
sS'display'
p652
S'be interpreted'
p653
sS'prob'
p654
F1.0
ssS'excited <dobj>'
p655
(dp656
g155
I21
sg156
I21
sg157
S'dobj'
p657
sg159
S'excited'
p658
sg161
F1.0
ssS'analyze <dobj>'
p659
(dp660
S'type'
p661
S'dobj'
p662
sS'freq'
p663
I19
sS'subj_freq'
p664
I19
sS'display'
p665
S'analyze'
p666
sS'prob'
p667
F1.0
ssS'<subj> need to make'
p668
(dp669
g661
S'subj'
p670
sg663
I19
sg664
I19
sg665
S'need to make'
p671
sg667
F1.0
ssS'<subj> are presented'
p672
(dp673
g396
S'subj'
p674
sg398
I9
sg399
I9
sg400
S'are presented'
p675
sg402
F1.0
ssS'<subj> buy'
p676
(dp677
g21
g466
sg23
I7
sg24
I7
sg25
S'buy'
p678
sg27
F1.0
ssS'<subj> watching'
p679
(dp680
g52
I27
sg53
I27
sg54
g285
sg56
S'watching'
p681
sg58
F1.0
ssS'solving <dobj>'
p682
(dp683
g318
I21
sg319
I21
sg320
S'dobj'
p684
sg322
S'solving'
p685
sg324
F1.0
ssS'<subj> saves'
p686
(dp687
S'subj_freq'
p688
I7
sS'freq'
p689
I7
sS'type'
p690
S'subj'
p691
sS'display'
p692
S'saves'
p693
sS'prob'
p694
F1.0
ssS'<subj> have claim'
p695
(dp696
g636
S'subj'
p697
sg638
I21
sg639
I21
sg640
S'have claim'
p698
sg642
F1.0
ssS'get <dobj>'
p699
(dp700
g305
I26
sg306
I26
sg307
S'dobj'
p701
sg309
S'get'
p702
sg311
F1.0
ssS'live <dobj>'
p703
(dp704
g83
g509
sg85
I16
sg86
I16
sg87
S'live'
p705
sg89
F1.0
ssS'says <dobj>'
p706
(dp707
g30
I9
sg31
I9
sg32
g33
sg34
S'says'
p708
sg36
F1.0
ssS'stand <dobj>'
p709
(dp710
g204
g205
sg206
I21
sg207
I21
sg208
S'stand'
p711
sg210
F1.0
ssS'depressed <dobj>'
p712
(dp713
g191
I21
sg192
I21
sg193
g522
sg195
S'depressed'
p714
sg197
F1.0
ssS'<subj> hate'
p715
(dp716
g65
g66
sg67
I9
sg68
I9
sg69
S'hate'
p717
sg71
F1.0
ssS'fail to realize <dobj>'
p718
(dp719
S'subj_freq'
p720
I27
sS'freq'
p721
I27
sS'type'
p722
S'dobj'
p723
sS'display'
p724
S'fail to realize'
p725
sS'prob'
p726
F1.0
ssS'making war on <np>'
p727
(dp728
S'type'
p729
S'np'
p730
sS'freq'
p731
I21
sS'subj_freq'
p732
I21
sS'display'
p733
S'making war on'
p734
sS'prob'
p735
F1.0
ssS'getting <dobj>'
p736
(dp737
S'type'
p738
S'dobj'
p739
sS'freq'
p740
I7
sS'subj_freq'
p741
I7
sS'display'
p742
S'getting'
p743
sS'prob'
p744
F1.0
ssS'<subj> lies middle'
p745
(dp746
S'subj_freq'
p747
I7
sS'freq'
p748
I7
sS'type'
p749
S'subj'
p750
sS'display'
p751
S'lies middle'
p752
sS'prob'
p753
F1.0
ssS"<subj> 're triumph"
p754
(dp755
g444
I7
sg445
I7
sg446
g447
sg448
S"'re triumph"
p756
sg450
F1.0
ssS'done <dobj>'
p757
(dp758
g444
I10
sg445
I10
sg446
S'dobj'
p759
sg448
S'done'
p760
sg450
F1.0
ssS'<subj> claim increase'
p761
(dp762
S'type'
p763
S'subj'
p764
sS'freq'
p765
I7
sS'subj_freq'
p766
I7
sS'display'
p767
S'claim increase'
p768
sS'prob'
p769
F1.0
ssS'<subj> changed'
p770
(dp771
S'subj_freq'
p772
I7
sS'freq'
p773
I7
sS'type'
p774
S'subj'
p775
sS'display'
p776
S'changed'
p777
sS'prob'
p778
F1.0
ssS'<subj> was happened'
p779
(dp780
g30
I9
sg31
I9
sg32
S'subj'
p781
sg34
S'was happened'
p782
sg36
F1.0
ssS'does <dobj>'
p783
(dp784
g327
I47
sg328
I47
sg329
S'dobj'
p785
sg331
S'does'
p786
sg333
F1.0
ssS'<subj> making war'
p787
(dp788
g729
S'subj'
p789
sg731
I21
sg732
I21
sg733
S'making war'
p790
sg735
F1.0
ssS'being <dobj>'
p791
(dp792
S'type'
p793
S'dobj'
p794
sS'freq'
p795
I21
sS'subj_freq'
p796
I21
sS'display'
p797
S'being'
p798
sS'prob'
p799
F1.0
ssS'help <dobj>'
p800
(dp801
g405
I4
sg406
I4
sg407
S'dobj'
p802
sg409
S'help'
p803
sg411
F1.0
ssS'rise in <np>'
p804
(dp805
g747
I7
sg748
I7
sg749
S'np'
p806
sg751
S'rise in'
p807
sg753
F1.0
ssS'<subj> fight terrorism'
p808
(dp809
g268
S'subj'
p810
sg270
I7
sg271
I7
sg272
S'fight terrorism'
p811
sg274
F1.0
ssS'heed <dobj>'
p812
(dp813
g526
g527
sg528
I7
sg529
I7
sg530
S'heed'
p814
sg532
F1.0
ssS'<subj> made conscience'
p815
(dp816
S'subj_freq'
p817
I21
sS'freq'
p818
I21
sS'type'
p819
S'subj'
p820
sS'display'
p821
S'made conscience'
p822
sS'prob'
p823
F1.0
ssS'want to hold <dobj>'
p824
(dp825
g74
I7
sg75
I7
sg76
g281
sg78
S'want to hold'
p826
sg80
F1.0
ssS'wait <dobj>'
p827
(dp828
S'type'
p829
S'dobj'
p830
sS'freq'
p831
I7
sS'subj_freq'
p832
I4
sS'display'
p833
S'wait'
p834
sS'prob'
p835
F0.5714285714285714
ssS'<subj> did'
p836
(dp837
g383
I14
sg384
I14
sg385
g386
sg387
S'did'
p838
sg389
F1.0
ssS'wants <dobj>'
p839
(dp840
S'type'
p841
S'dobj'
p842
sS'freq'
p843
I7
sS'subj_freq'
p844
I7
sS'display'
p845
S'wants'
p846
sS'prob'
p847
F1.0
ssS'<subj> appears'
p848
(dp849
g500
I22
sg501
I22
sg502
g503
sg504
S'appears'
p850
sg506
F1.0
ssS'<subj> want evolution'
p851
(dp852
S'subj_freq'
p853
I23
sS'freq'
p854
I23
sS'type'
p855
S'subj'
p856
sS'display'
p857
S'want evolution'
p858
sS'prob'
p859
F1.0
ssS'<subj> left'
p860
(dp861
S'type'
p862
S'subj'
p863
sS'freq'
p864
I5
sS'subj_freq'
p865
I5
sS'display'
p866
S'left'
p867
sS'prob'
p868
F1.0
ssS'<subj> offer communities'
p869
(dp870
S'subj_freq'
p871
I9
sS'freq'
p872
I9
sS'type'
p873
S'subj'
p874
sS'display'
p875
S'offer communities'
p876
sS'prob'
p877
F1.0
ssS'<subj> fight'
p878
(dp879
g268
g810
sg270
I7
sg271
I7
sg272
S'fight'
p880
sg274
F1.0
ssS'wanted <dobj>'
p881
(dp882
S'subj_freq'
p883
I7
sS'freq'
p884
I7
sS'type'
p885
S'dobj'
p886
sS'display'
p887
S'wanted'
p888
sS'prob'
p889
F1.0
ssS'to hit <dobj>'
p890
(dp891
S'type'
p892
S'dobj'
p893
sS'freq'
p894
I21
sS'subj_freq'
p895
I21
sS'display'
p896
S'to hit'
p897
sS'prob'
p898
F1.0
ssS'defends <dobj>'
p899
(dp900
g435
I9
sg436
I9
sg437
S'dobj'
p901
sg439
S'defends'
p902
sg441
F1.0
ssS'<subj> wants'
p903
(dp904
g841
S'subj'
p905
sg843
I7
sg844
I7
sg845
S'wants'
p906
sg847
F1.0
ssS'<subj> saw Sir'
p907
(dp908
g259
S'subj'
p909
sg261
I7
sg262
I7
sg263
S'saw Sir'
p910
sg265
F1.0
ssS'lie <dobj>'
p911
(dp912
S'type'
p913
S'dobj'
p914
sS'freq'
p915
I9
sS'subj_freq'
p916
I9
sS'display'
p917
S'lie'
p918
sS'prob'
p919
F1.0
ssS'knows <dobj>'
p920
(dp921
g841
g842
sg843
I7
sg844
I7
sg845
S'knows'
p922
sg847
F1.0
ssS'<subj> learning'
p923
(dp924
S'subj_freq'
p925
I7
sS'freq'
p926
I7
sS'type'
p927
S'subj'
p928
sS'display'
p929
S'learning'
p930
sS'prob'
p931
F1.0
ssS'seems to evolved <dobj>'
p932
(dp933
g234
S'dobj'
p934
sg236
I21
sg237
I21
sg238
S'seems to evolved'
p935
sg240
F1.0
ssS'thinks <dobj>'
p936
(dp937
g30
I9
sg31
I9
sg32
g33
sg34
S'thinks'
p938
sg36
F1.0
ssS'<subj> fail to realize'
p939
(dp940
g720
I27
sg721
I27
sg722
S'subj'
p941
sg724
S'fail to realize'
p942
sg726
F1.0
ssS'<subj> bothered'
p943
(dp944
g513
g514
sg515
I6
sg516
I6
sg517
S'bothered'
p945
sg519
F1.0
ssS'<subj> thought'
p946
(dp947
g571
g572
sg573
I46
sg574
I46
sg575
S'thought'
p948
sg577
F1.0
ssS'develop <dobj>'
p949
(dp950
g12
I9
sg13
I9
sg14
g15
sg16
S'develop'
p951
sg18
F1.0
ssS'<subj> devoted politicians'
p952
(dp953
g349
I9
sg350
I9
sg351
g352
sg353
S'devoted politicians'
p954
sg355
F1.0
ssS'<subj> witnessed fact'
p955
(dp956
g30
I9
sg31
I9
sg32
g781
sg34
S'witnessed fact'
p957
sg36
F1.0
ssS'<subj> believe debate'
p958
(dp959
g318
I21
sg319
I21
sg320
g321
sg322
S'believe debate'
p960
sg324
F1.0
ssS'come <dobj>'
p961
(dp962
g30
I9
sg31
I9
sg32
g33
sg34
S'come'
p963
sg36
F1.0
ssS'<subj> gave'
p964
(dp965
g747
I7
sg748
I7
sg749
g750
sg751
S'gave'
p966
sg753
F1.0
ssS'<subj> preserve'
p967
(dp968
S'type'
p969
S'subj'
p970
sS'freq'
p971
I9
sS'subj_freq'
p972
I9
sS'display'
p973
S'preserve'
p974
sS'prob'
p975
F1.0
ssS'<subj> eliminated'
p976
(dp977
g52
I21
sg53
I21
sg54
g285
sg56
S'eliminated'
p978
sg58
F1.0
ssS'<subj> be shown'
p979
(dp980
S'type'
p981
S'subj'
p982
sS'freq'
p983
I21
sS'subj_freq'
p984
I21
sS'display'
p985
S'be shown'
p986
sS'prob'
p987
F1.0
ssS'do <dobj>'
p988
(dp989
g595
S'dobj'
p990
sg597
I250
sg598
I250
sg599
S'do'
p991
sg601
F1.0
ssS'keep <dobj>'
p992
(dp993
g913
g914
sg915
I9
sg916
I9
sg917
S'keep'
p994
sg919
F1.0
ssS'become <dobj>'
p995
(dp996
g43
S'dobj'
p997
sg45
I64
sg46
I64
sg47
S'become'
p998
sg49
F1.0
ssS'providing <dobj>'
p999
(dp1000
g204
g205
sg206
I21
sg207
I21
sg208
S'providing'
p1001
sg210
F1.0
ssS'<subj> lie'
p1002
(dp1003
g913
S'subj'
p1004
sg915
I9
sg916
I9
sg917
S'lie'
p1005
sg919
F1.0
ssS'lies <dobj>'
p1006
(dp1007
g349
I16
sg350
I16
sg351
S'dobj'
p1008
sg353
S'lies'
p1009
sg355
F1.0
ssS'<subj> offer'
p1010
(dp1011
g871
I9
sg872
I9
sg873
g874
sg875
S'offer'
p1012
sg877
F1.0
ssS'sounds control over <np>'
p1013
(dp1014
g164
S'np'
p1015
sg166
I10
sg167
I10
sg168
S'sounds control over'
p1016
sg170
F1.0
ssS'saw <dobj>'
p1017
(dp1018
g259
g260
sg261
I7
sg262
I7
sg263
S'saw'
p1019
sg265
F1.0
ssS'hidden <dobj>'
p1020
(dp1021
g547
g548
sg549
I4
sg550
I4
sg551
S'hidden'
p1022
sg553
F1.0
ssS'<subj> sounds sort'
p1023
(dp1024
g164
g165
sg166
I22
sg167
I22
sg168
S'sounds sort'
p1025
sg170
F1.0
ssS'<subj> get'
p1026
(dp1027
g305
I26
sg306
I26
sg307
g308
sg309
S'get'
p1028
sg311
F1.0
ssS'<subj> creating'
p1029
(dp1030
g871
I13
sg872
I13
sg873
g874
sg875
S'creating'
p1031
sg877
F1.0
ssS"<subj> 's technology"
p1032
(dp1033
S'type'
p1034
S'subj'
p1035
sS'freq'
p1036
I9
sS'subj_freq'
p1037
I9
sS'display'
p1038
S"'s technology"
p1039
sS'prob'
p1040
F1.0
ssS'<subj> suppose'
p1041
(dp1042
S'subj_freq'
p1043
I7
sS'freq'
p1044
I7
sS'type'
p1045
S'subj'
p1046
sS'display'
p1047
S'suppose'
p1048
sS'prob'
p1049
F1.0
ssS'continue <dobj>'
p1050
(dp1051
g526
g527
sg528
I7
sg529
I7
sg530
S'continue'
p1052
sg532
F1.0
ssS'see <dobj>'
p1053
(dp1054
g204
g205
sg206
I51
sg207
I51
sg208
S'see'
p1055
sg210
F1.0
ssS'<subj> belongs opinion'
p1056
(dp1057
g83
g84
sg85
I7
sg86
I7
sg87
S'belongs opinion'
p1058
sg89
F1.0
ssS'touched <dobj>'
p1059
(dp1060
g772
I7
sg773
I7
sg774
S'dobj'
p1061
sg776
S'touched'
p1062
sg778
F1.0
ssS'<subj> prevent'
p1063
(dp1064
g482
S'subj'
p1065
sg484
I21
sg485
I21
sg486
S'prevent'
p1066
sg488
F1.0
ssS'<subj> saves someone'
p1067
(dp1068
g688
I7
sg689
I7
sg690
g691
sg692
S'saves someone'
p1069
sg694
F1.0
ssS'believe <dobj>'
p1070
(dp1071
g318
I30
sg319
I30
sg320
g684
sg322
S'believe'
p1072
sg324
F1.0
ssS'<subj> knows'
p1073
(dp1074
g841
g905
sg843
I7
sg844
I7
sg845
S'knows'
p1075
sg847
F1.0
ssS'<subj> managing work'
p1076
(dp1077
S'type'
p1078
S'subj'
p1079
sS'freq'
p1080
I4
sS'subj_freq'
p1081
I4
sS'display'
p1082
S'managing work'
p1083
sS'prob'
p1084
F1.0
ssS'to develop <dobj>'
p1085
(dp1086
g12
I9
sg13
I9
sg14
g15
sg16
S'to develop'
p1087
sg18
F1.0
ssS'going <dobj>'
p1088
(dp1089
g374
S'dobj'
p1090
sg376
I7
sg377
I7
sg378
S'going'
p1091
sg380
F1.0
ssS'undo <dobj>'
p1092
(dp1093
g146
I21
sg147
I21
sg148
S'dobj'
p1094
sg150
S'undo'
p1095
sg152
F1.0
ssS'quit <dobj>'
p1096
(dp1097
g405
I4
sg406
I4
sg407
g802
sg409
S'quit'
p1098
sg411
F1.0
ssS'<subj> creating eternity'
p1099
(dp1100
g225
I4
sg226
I4
sg227
g228
sg229
S'creating eternity'
p1101
sg231
F1.0
ssS'<subj> have time'
p1102
(dp1103
g513
g514
sg515
I6
sg516
I6
sg517
S'have time'
p1104
sg519
F1.0
ssS'<subj> seems to evolved'
p1105
(dp1106
g234
g235
sg236
I21
sg237
I21
sg238
S'seems to evolved'
p1107
sg240
F1.0
ssS'<subj> confirm'
p1108
(dp1109
S'subj_freq'
p1110
I7
sS'freq'
p1111
I7
sS'type'
p1112
S'subj'
p1113
sS'display'
p1114
S'confirm'
p1115
sS'prob'
p1116
F1.0
ssS'<subj> have been attributed'
p1117
(dp1118
g538
I3
sg539
I3
sg540
g541
sg542
S'have been attributed'
p1119
sg544
F1.0
ssS'<subj> say experience'
p1120
(dp1121
g473
I19
sg474
I19
sg475
g476
sg477
S'say experience'
p1122
sg479
F1.0
ssS'like <dobj>'
p1123
(dp1124
g383
I9
sg384
I9
sg385
S'dobj'
p1125
sg387
S'like'
p1126
sg389
F1.0
ssS'to prevent <dobj>'
p1127
(dp1128
g482
g483
sg484
I21
sg485
I21
sg486
S'to prevent'
p1129
sg488
F1.0
ssS'<subj> construct'
p1130
(dp1131
S'subj_freq'
p1132
I0
sS'freq'
p1133
I21
sS'type'
p1134
S'subj'
p1135
sS'display'
p1136
S'construct'
p1137
sS'prob'
p1138
F0.0
ssS'<subj> managing'
p1139
(dp1140
g1078
g1079
sg1080
I4
sg1081
I4
sg1082
S'managing'
p1141
sg1084
F1.0
ssS'<subj> means'
p1142
(dp1143
g720
I41
sg721
I41
sg722
g941
sg724
S'means'
p1144
sg726
F1.0
ssS'<subj> got problem'
p1145
(dp1146
g30
I9
sg31
I9
sg32
g781
sg34
S'got problem'
p1147
sg36
F1.0
ssS'sees <dobj>'
p1148
(dp1149
g43
g997
sg45
I42
sg46
I42
sg47
S'sees'
p1150
sg49
F1.0
ssS'to reach <dobj>'
p1151
(dp1152
g52
I21
sg53
I21
sg54
g55
sg56
S'to reach'
p1153
sg58
F1.0
ssS'apply <dobj>'
p1154
(dp1155
g383
I9
sg384
I9
sg385
g1125
sg387
S'apply'
p1156
sg389
F1.0
ssS'<subj> are connected'
p1157
(dp1158
g52
I21
sg53
I21
sg54
g285
sg56
S'are connected'
p1159
sg58
F1.0
ssS'<subj> wanted to express'
p1160
(dp1161
g883
I7
sg884
I7
sg885
S'subj'
p1162
sg887
S'wanted to express'
p1163
sg889
F1.0
ssS'<subj> continue'
p1164
(dp1165
g526
S'subj'
p1166
sg528
I7
sg529
I7
sg530
S'continue'
p1167
sg532
F1.0
ssS'<subj> are discussed'
p1168
(dp1169
g182
g183
sg184
I21
sg185
I21
sg186
S'are discussed'
p1170
sg188
F1.0
ssS'governing <dobj>'
p1171
(dp1172
g146
I21
sg147
I21
sg148
g1094
sg150
S'governing'
p1173
sg152
F1.0
ssS'<subj> get life'
p1174
(dp1175
S'subj_freq'
p1176
I13
sS'freq'
p1177
I13
sS'type'
p1178
S'subj'
p1179
sS'display'
p1180
S'get life'
p1181
sS'prob'
p1182
F1.0
ssS'become work on <np>'
p1183
(dp1184
g1176
I13
sg1177
I13
sg1178
S'np'
p1185
sg1180
S'become work on'
p1186
sg1182
F1.0
ssS"'m <dobj>"
p1187
(dp1188
g500
I73
sg501
I73
sg502
S'dobj'
p1189
sg504
S"'m"
p1190
sg506
F1.0
ssS'got <dobj>'
p1191
(dp1192
g30
I9
sg31
I9
sg32
g33
sg34
S'got'
p1193
sg36
F1.0
ssS'shows <dobj>'
p1194
(dp1195
g444
I7
sg445
I7
sg446
g759
sg448
S'shows'
p1196
sg450
F1.0
ssS'<subj> thinking'
p1197
(dp1198
g128
S'subj'
p1199
sg130
I21
sg131
I21
sg132
S'thinking'
p1200
sg134
F1.0
ssS'<subj> cut'
p1201
(dp1202
g110
g200
sg112
I4
sg113
I4
sg114
S'cut'
p1203
sg116
F1.0
ssS'focused <dobj>'
p1204
(dp1205
g374
g1090
sg376
I7
sg377
I7
sg378
S'focused'
p1206
sg380
F1.0
ssS'<subj> wrecked'
p1207
(dp1208
g538
I3
sg539
I3
sg540
g541
sg542
S'wrecked'
p1209
sg544
F1.0
ssS'uses <dobj>'
p1210
(dp1211
S'subj_freq'
p1212
I17
sS'freq'
p1213
I17
sS'type'
p1214
S'dobj'
p1215
sS'display'
p1216
S'uses'
p1217
sS'prob'
p1218
F1.0
ssS'having <dobj>'
p1219
(dp1220
S'type'
p1221
S'dobj'
p1222
sS'freq'
p1223
I7
sS'subj_freq'
p1224
I7
sS'display'
p1225
S'having'
p1226
sS'prob'
p1227
F1.0
ssS'<subj> know'
p1228
(dp1229
g234
g235
sg236
I39
sg237
I39
sg238
S'know'
p1230
sg240
F1.0
ssS'wish <dobj>'
p1231
(dp1232
S'subj_freq'
p1233
I28
sS'freq'
p1234
I28
sS'type'
p1235
S'dobj'
p1236
sS'display'
p1237
S'wish'
p1238
sS'prob'
p1239
F1.0
ssS'<subj> shown'
p1240
(dp1241
g318
I42
sg319
I42
sg320
g321
sg322
S'shown'
p1242
sg324
F1.0
ssS'<subj> was began'
p1243
(dp1244
g30
I9
sg31
I9
sg32
g781
sg34
S'was began'
p1245
sg36
F1.0
ssS'appears <dobj>'
p1246
(dp1247
g500
I22
sg501
I22
sg502
g1189
sg504
S'appears'
p1248
sg506
F1.0
ssS'<subj> shows'
p1249
(dp1250
g444
I7
sg445
I7
sg446
g447
sg448
S'shows'
p1251
sg450
F1.0
ssS'<subj> cheat sister'
p1252
(dp1253
g30
I9
sg31
I9
sg32
g781
sg34
S'cheat sister'
p1254
sg36
F1.0
ssS'suggests <dobj>'
p1255
(dp1256
S'type'
p1257
S'dobj'
p1258
sS'freq'
p1259
I17
sS'subj_freq'
p1260
I0
sS'display'
p1261
S'suggests'
p1262
sS'prob'
p1263
F0.0
ssS'<subj> think to think'
p1264
(dp1265
S'type'
p1266
S'subj'
p1267
sS'freq'
p1268
I9
sS'subj_freq'
p1269
I9
sS'display'
p1270
S'think to think'
p1271
sS'prob'
p1272
F1.0
ssS'<subj> hit gallon'
p1273
(dp1274
g892
S'subj'
p1275
sg894
I21
sg895
I21
sg896
S'hit gallon'
p1276
sg898
F1.0
ssS'<subj> wait'
p1277
(dp1278
g829
S'subj'
p1279
sg831
I7
sg832
I4
sg833
S'wait'
p1280
sg835
F0.5714285714285714
ssS'<subj> was conceded'
p1281
(dp1282
g101
g102
sg103
I7
sg104
I7
sg105
S'was conceded'
p1283
sg107
F1.0
ssS'reject <dobj>'
p1284
(dp1285
g636
g637
sg638
I21
sg639
I21
sg640
S'reject'
p1286
sg642
F1.0
ssS'misled <dobj>'
p1287
(dp1288
g636
g637
sg638
I21
sg639
I21
sg640
S'misled'
p1289
sg642
F1.0
ssS'wanted to express <dobj>'
p1290
(dp1291
g883
I7
sg884
I7
sg885
g886
sg887
S'wanted to express'
p1292
sg889
F1.0
ssS'<subj> have be touched'
p1293
(dp1294
g772
I7
sg773
I7
sg774
g775
sg776
S'have be touched'
p1295
sg778
F1.0
ssS'to stop <dobj>'
p1296
(dp1297
g817
I21
sg818
I21
sg819
S'dobj'
p1298
sg821
S'to stop'
p1299
sg823
F1.0
ssS'<subj> think genius'
p1300
(dp1301
S'type'
p1302
S'subj'
p1303
sS'freq'
p1304
I7
sS'subj_freq'
p1305
I7
sS'display'
p1306
S'think genius'
p1307
sS'prob'
p1308
F1.0
ssS'<subj> contribute'
p1309
(dp1310
S'type'
p1311
S'subj'
p1312
sS'freq'
p1313
I9
sS'subj_freq'
p1314
I9
sS'display'
p1315
S'contribute'
p1316
sS'prob'
p1317
F1.0
ssS'<subj> has be spent'
p1318
(dp1319
g473
I19
sg474
I19
sg475
g476
sg477
S'has be spent'
p1320
sg479
F1.0
ssS'<subj> think room'
p1321
(dp1322
g1266
g1267
sg1268
I9
sg1269
I9
sg1270
S'think room'
p1323
sg1272
F1.0
ssS'<subj> make fluctuations'
p1324
(dp1325
g661
g670
sg663
I19
sg664
I19
sg665
S'make fluctuations'
p1326
sg667
F1.0
ssS'<subj> spent'
p1327
(dp1328
g473
I19
sg474
I19
sg475
g476
sg477
S'spent'
p1329
sg479
F1.0
ssS'needed <dobj>'
p1330
(dp1331
g289
S'dobj'
p1332
sg291
I28
sg292
I28
sg293
S'needed'
p1333
sg295
F1.0
ssS'doing <dobj>'
p1334
(dp1335
g52
I21
sg53
I21
sg54
g55
sg56
S'doing'
p1336
sg58
F1.0
ssS'making <dobj>'
p1337
(dp1338
g729
S'dobj'
p1339
sg731
I34
sg732
I34
sg733
S'making'
p1340
sg735
F1.0
ssS'ensure <dobj>'
p1341
(dp1342
g661
g662
sg663
I19
sg664
I19
sg665
S'ensure'
p1343
sg667
F1.0
ssS'waste <dobj>'
p1344
(dp1345
g513
S'dobj'
p1346
sg515
I6
sg516
I6
sg517
S'waste'
p1347
sg519
F1.0
ssS'learned <dobj>'
p1348
(dp1349
g305
I13
sg306
I13
sg307
g701
sg309
S'learned'
p1350
sg311
F1.0
ssS'helps <dobj>'
p1351
(dp1352
g305
I9
sg306
I9
sg307
g701
sg309
S'helps'
p1353
sg311
F1.0
ssS'<subj> keep'
p1354
(dp1355
g913
g1004
sg915
I9
sg916
I9
sg917
S'keep'
p1356
sg919
F1.0
ssS'atoms in <np>'
p1357
(dp1358
g1221
S'np'
p1359
sg1223
I7
sg1224
I7
sg1225
S'atoms in'
p1360
sg1227
F1.0
ssS'copied <dobj>'
p1361
(dp1362
g491
I21
sg492
I21
sg493
S'dobj'
p1363
sg495
S'copied'
p1364
sg497
F1.0
ssS'continue to maintain <dobj>'
p1365
(dp1366
g526
g527
sg528
I7
sg529
I7
sg530
S'continue to maintain'
p1367
sg532
F1.0
ssS'<subj> making senses'
p1368
(dp1369
S'type'
p1370
S'subj'
p1371
sS'freq'
p1372
I6
sS'subj_freq'
p1373
I6
sS'display'
p1374
S'making senses'
p1375
sS'prob'
p1376
F1.0
ssS'hit <dobj>'
p1377
(dp1378
g892
g893
sg894
I21
sg895
I21
sg896
S'hit'
p1379
sg898
F1.0
ssS'<subj> explained Ted'
p1380
(dp1381
S'subj_freq'
p1382
I9
sS'freq'
p1383
I9
sS'type'
p1384
S'subj'
p1385
sS'display'
p1386
S'explained Ted'
p1387
sS'prob'
p1388
F1.0
ssS'need to remember <dobj>'
p1389
(dp1390
S'type'
p1391
S'dobj'
p1392
sS'freq'
p1393
I6
sS'subj_freq'
p1394
I6
sS'display'
p1395
S'need to remember'
p1396
sS'prob'
p1397
F1.0
ssS'fight <dobj>'
p1398
(dp1399
g268
g269
sg270
I7
sg271
I7
sg272
S'fight'
p1400
sg274
F1.0
ssS'<subj> lies'
p1401
(dp1402
g349
I16
sg350
I16
sg351
g352
sg353
S'lies'
p1403
sg355
F1.0
ssS'forget <dobj>'
p1404
(dp1405
S'subj_freq'
p1406
I7
sS'freq'
p1407
I7
sS'type'
p1408
S'dobj'
p1409
sS'display'
p1410
S'forget'
p1411
sS'prob'
p1412
F1.0
ssS'theory of <np>'
p1413
(dp1414
g305
I9
sg306
I9
sg307
S'np'
p1415
sg309
S'theory of'
p1416
sg311
F1.0
ssS'<subj> say'
p1417
(dp1418
g981
g982
sg983
I68
sg984
I68
sg985
S'say'
p1419
sg987
F1.0
ssS'to make <dobj>'
p1420
(dp1421
S'type'
p1422
S'dobj'
p1423
sS'freq'
p1424
I16
sS'subj_freq'
p1425
I16
sS'display'
p1426
S'to make'
p1427
sS'prob'
p1428
F1.0
ssS'seems <dobj>'
p1429
(dp1430
g234
g934
sg236
I28
sg237
I28
sg238
S'seems'
p1431
sg240
F1.0
ssS'waves with <np>'
p1432
(dp1433
g547
S'np'
p1434
sg549
I4
sg550
I4
sg551
S'waves with'
p1435
sg553
F1.0
ssS'denied <dobj>'
p1436
(dp1437
g636
g637
sg638
I21
sg639
I21
sg640
S'denied'
p1438
sg642
F1.0
ssS'arrive <dobj>'
p1439
(dp1440
S'type'
p1441
S'dobj'
p1442
sS'freq'
p1443
I7
sS'subj_freq'
p1444
I7
sS'display'
p1445
S'arrive'
p1446
sS'prob'
p1447
F1.0
ssS'to wait <dobj>'
p1448
(dp1449
g829
g830
sg831
I7
sg832
I4
sg833
S'to wait'
p1450
sg835
F0.5714285714285714
ssS'operate <dobj>'
p1451
(dp1452
g225
I4
sg226
I4
sg227
S'dobj'
p1453
sg229
S'operate'
p1454
sg231
F1.0
ssS'<subj> is cut'
p1455
(dp1456
g110
g200
sg112
I4
sg113
I4
sg114
S'is cut'
p1457
sg116
F1.0
ssS'<subj> reached'
p1458
(dp1459
S'type'
p1460
S'subj'
p1461
sS'freq'
p1462
I25
sS'subj_freq'
p1463
I25
sS'display'
p1464
S'reached'
p1465
sS'prob'
p1466
F1.0
ssS'<subj> shows things'
p1467
(dp1468
g444
I7
sg445
I7
sg446
g447
sg448
S'shows things'
p1469
sg450
F1.0
ssS'changed <dobj>'
p1470
(dp1471
g772
I7
sg773
I7
sg774
g1061
sg776
S'changed'
p1472
sg778
F1.0
ssS'<subj> sharing God'
p1473
(dp1474
g216
S'subj'
p1475
sg218
I7
sg219
I7
sg220
S'sharing God'
p1476
sg222
F1.0
ssS'<subj> unveiled'
p1477
(dp1478
g349
I9
sg350
I9
sg351
g352
sg353
S'unveiled'
p1479
sg355
F1.0
ssS'<subj> make'
p1480
(dp1481
g661
g670
sg663
I35
sg664
I35
sg665
S'make'
p1482
sg667
F1.0
ssS'state <dobj>'
p1483
(dp1484
g580
S'dobj'
p1485
sg582
I23
sg583
I23
sg584
S'state'
p1486
sg586
F1.0
ssS'cheat <dobj>'
p1487
(dp1488
g30
I18
sg31
I18
sg32
g33
sg34
S'cheat'
p1489
sg36
F1.0
ssS'to build <dobj>'
p1490
(dp1491
g268
g269
sg270
I7
sg271
I7
sg272
S'to build'
p1492
sg274
F1.0
ssS'<subj> find discord'
p1493
(dp1494
g747
I7
sg748
I7
sg749
g750
sg751
S'find discord'
p1495
sg753
F1.0
ssS'devoted <dobj>'
p1496
(dp1497
g349
I9
sg350
I9
sg351
g1008
sg353
S'devoted'
p1498
sg355
F1.0
ssS'<subj> deserves to fill'
p1499
(dp1500
g119
S'subj'
p1501
sg121
I7
sg122
I7
sg123
S'deserves to fill'
p1502
sg125
F1.0
ssS'<subj> was explained'
p1503
(dp1504
g1382
I9
sg1383
I9
sg1384
g1385
sg1386
S'was explained'
p1505
sg1388
F1.0
ssS'required <dobj>'
p1506
(dp1507
g137
I7
sg138
I7
sg139
g140
sg141
S'required'
p1508
sg143
F1.0
ssS'to define <dobj>'
p1509
(dp1510
g426
S'dobj'
p1511
sg428
I7
sg429
I7
sg430
S'to define'
p1512
sg432
F1.0
ssS'<subj> focused Ted'
p1513
(dp1514
g374
g375
sg376
I7
sg377
I7
sg378
S'focused Ted'
p1515
sg380
F1.0
ssS'<subj> excited'
p1516
(dp1517
g155
I21
sg156
I21
sg157
g158
sg159
S'excited'
p1518
sg161
F1.0
ssS'explain <dobj>'
p1519
(dp1520
g1406
I7
sg1407
I7
sg1408
g1409
sg1410
S'explain'
p1521
sg1412
F1.0
ssS'<subj> find'
p1522
(dp1523
g74
I18
sg75
I18
sg76
g77
sg78
S'find'
p1524
sg80
F1.0
ssS'<subj> belongs to do'
p1525
(dp1526
g83
g84
sg85
I7
sg86
I7
sg87
S'belongs to do'
p1527
sg89
F1.0
ssS'used <dobj>'
p1528
(dp1529
g556
I7
sg557
I7
sg558
g559
sg560
S'used'
p1530
sg562
F1.0
ssS'<subj> helps people'
p1531
(dp1532
g305
I9
sg306
I9
sg307
g308
sg309
S'helps people'
p1533
sg311
F1.0
ssS'<subj> was reached'
p1534
(dp1535
g1460
g1461
sg1462
I25
sg1463
I25
sg1464
S'was reached'
p1536
sg1466
F1.0
ssS'deserves <dobj>'
p1537
(dp1538
g119
g120
sg121
I7
sg122
I7
sg123
S'deserves'
p1539
sg125
F1.0
ssS'buy <dobj>'
p1540
(dp1541
g21
S'dobj'
p1542
sg23
I7
sg24
I7
sg25
S'buy'
p1543
sg27
F1.0
ssS'<subj> probing'
p1544
(dp1545
g43
g620
sg45
I42
sg46
I42
sg47
S'probing'
p1546
sg49
F1.0
ssS'suppose <dobj>'
p1547
(dp1548
g1043
I7
sg1044
I7
sg1045
S'dobj'
p1549
sg1047
S'suppose'
p1550
sg1049
F1.0
ssS'exercise <dobj>'
p1551
(dp1552
g1266
S'dobj'
p1553
sg1268
I9
sg1269
I9
sg1270
S'exercise'
p1554
sg1272
F1.0
ssS'<subj> decides'
p1555
(dp1556
S'type'
p1557
S'subj'
p1558
sS'freq'
p1559
I9
sS'subj_freq'
p1560
I9
sS'display'
p1561
S'decides'
p1562
sS'prob'
p1563
F1.0
ssS'told <dobj>'
p1564
(dp1565
g473
I19
sg474
I19
sg475
S'dobj'
p1566
sg477
S'told'
p1567
sg479
F1.0
ssS'<subj> walking Cuba'
p1568
(dp1569
g547
S'subj'
p1570
sg549
I4
sg550
I4
sg551
S'walking Cuba'
p1571
sg553
F1.0
ssS'done to reduced <dobj>'
p1572
(dp1573
g538
I3
sg539
I3
sg540
S'dobj'
p1574
sg542
S'done to reduced'
p1575
sg544
F1.0
ssS'<subj> creating structures'
p1576
(dp1577
g871
I9
sg872
I9
sg873
g874
sg875
S'creating structures'
p1578
sg877
F1.0
ssS'<subj> be explored'
p1579
(dp1580
g12
I9
sg13
I9
sg14
g277
sg16
S'be explored'
p1581
sg18
F1.0
ssS'needed to teach <dobj>'
p1582
(dp1583
g289
g1332
sg291
I21
sg292
I21
sg293
S'needed to teach'
p1584
sg295
F1.0
ssS'reduced <dobj>'
p1585
(dp1586
g538
I3
sg539
I3
sg540
g1574
sg542
S'reduced'
p1587
sg544
F1.0
ssS'<subj> see lot'
p1588
(dp1589
g191
I21
sg192
I21
sg193
g194
sg195
S'see lot'
p1590
sg197
F1.0
ssS'<subj> explains'
p1591
(dp1592
g43
g620
sg45
I42
sg46
I42
sg47
S'explains'
p1593
sg49
F1.0
ssS'<subj> bless'
p1594
(dp1595
g216
g1475
sg218
I7
sg219
I7
sg220
S'bless'
p1596
sg222
F1.0
ssS'attached <dobj>'
p1597
(dp1598
g1370
S'dobj'
p1599
sg1372
I6
sg1373
I6
sg1374
S'attached'
p1600
sg1376
F1.0
ssS'saw education by <np>'
p1601
(dp1602
g259
S'np'
p1603
sg261
I7
sg262
I7
sg263
S'saw education by'
p1604
sg265
F1.0
ssS'<subj> was knew'
p1605
(dp1606
g101
g102
sg103
I7
sg104
I7
sg105
S'was knew'
p1607
sg107
F1.0
ssS'<subj> ensure'
p1608
(dp1609
g661
g670
sg663
I19
sg664
I19
sg665
S'ensure'
p1610
sg667
F1.0
ssS'learn <dobj>'
p1611
(dp1612
g362
S'dobj'
p1613
sg364
I7
sg365
I7
sg366
S'learn'
p1614
sg368
F1.0
ssS'<subj> realize'
p1615
(dp1616
g547
g1570
sg549
I4
sg550
I4
sg551
S'realize'
p1617
sg553
F1.0
ssS'<subj> witnessed'
p1618
(dp1619
g30
I9
sg31
I9
sg32
g781
sg34
S'witnessed'
p1620
sg36
F1.0
ssS'to accepted <dobj>'
p1621
(dp1622
g556
I7
sg557
I7
sg558
g559
sg560
S'to accepted'
p1623
sg562
F1.0
ssS'<subj> feel'
p1624
(dp1625
g1460
g1461
sg1462
I32
sg1463
I32
sg1464
S'feel'
p1626
sg1466
F1.0
ssS'<subj> has be solving'
p1627
(dp1628
g318
I21
sg319
I21
sg320
g321
sg322
S'has be solving'
p1629
sg324
F1.0
ssS'<subj> need to try'
p1630
(dp1631
S'subj_freq'
p1632
I23
sS'freq'
p1633
I23
sS'type'
p1634
S'subj'
p1635
sS'display'
p1636
S'need to try'
p1637
sS'prob'
p1638
F1.0
ssS'<subj> become incomprehensible'
p1639
(dp1640
g43
g620
sg45
I42
sg46
I42
sg47
S'become incomprehensible'
p1641
sg49
F1.0
ssS'<subj> listening to stop'
p1642
(dp1643
g817
I21
sg818
I21
sg819
g820
sg821
S'listening to stop'
p1644
sg823
F1.0
ssS'<subj> think opportunity'
p1645
(dp1646
g747
I7
sg748
I7
sg749
g750
sg751
S'think opportunity'
p1647
sg753
F1.0
ssS'passion by <np>'
p1648
(dp1649
g817
I21
sg818
I21
sg819
S'np'
p1650
sg821
S'passion by'
p1651
sg823
F1.0
ssS'<subj> be undone'
p1652
(dp1653
g146
I21
sg147
I21
sg148
g149
sg150
S'be undone'
p1654
sg152
F1.0
ssS'think to think <dobj>'
p1655
(dp1656
g1266
g1553
sg1268
I9
sg1269
I9
sg1270
S'think to think'
p1657
sg1272
F1.0
ssS'start <dobj>'
p1658
(dp1659
S'type'
p1660
S'dobj'
p1661
sS'freq'
p1662
I6
sS'subj_freq'
p1663
I6
sS'display'
p1664
S'start'
p1665
sS'prob'
p1666
F1.0
ssS'fly <dobj>'
p1667
(dp1668
g1382
I9
sg1383
I9
sg1384
S'dobj'
p1669
sg1386
S'fly'
p1670
sg1388
F1.0
ssS'<subj> governing'
p1671
(dp1672
g146
I21
sg147
I21
sg148
g149
sg150
S'governing'
p1673
sg152
F1.0
ssS'<subj> prevent terrorism'
p1674
(dp1675
g482
g1065
sg484
I21
sg485
I21
sg486
S'prevent terrorism'
p1676
sg488
F1.0
ssS'<subj> speak'
p1677
(dp1678
S'type'
p1679
S'subj'
p1680
sS'freq'
p1681
I7
sS'subj_freq'
p1682
I7
sS'display'
p1683
S'speak'
p1684
sS'prob'
p1685
F1.0
ssS'<subj> have reason'
p1686
(dp1687
g513
g514
sg515
I6
sg516
I6
sg517
S'have reason'
p1688
sg519
F1.0
ssS'<subj> hit'
p1689
(dp1690
g892
g1275
sg894
I21
sg895
I21
sg896
S'hit'
p1691
sg898
F1.0
ssS'<subj> was hidden'
p1692
(dp1693
g547
g1570
sg549
I4
sg550
I4
sg551
S'was hidden'
p1694
sg553
F1.0
ssS'led book that <np>'
p1695
(dp1696
g435
I9
sg436
I9
sg437
S'np'
p1697
sg439
S'led book that'
p1698
sg441
F1.0
ssS'<subj> helps'
p1699
(dp1700
g305
I9
sg306
I9
sg307
g308
sg309
S'helps'
p1701
sg311
F1.0
ssS'<subj> stand'
p1702
(dp1703
g204
S'subj'
p1704
sg206
I21
sg207
I21
sg208
S'stand'
p1705
sg210
F1.0
ssS'<subj> thinks'
p1706
(dp1707
g30
I9
sg31
I9
sg32
g781
sg34
S'thinks'
p1708
sg36
F1.0
ssS'<subj> have problem'
p1709
(dp1710
g225
I4
sg226
I4
sg227
g228
sg229
S'have problem'
p1711
sg231
F1.0
ssS'<subj> explain'
p1712
(dp1713
g1406
I7
sg1407
I7
sg1408
S'subj'
p1714
sg1410
S'explain'
p1715
sg1412
F1.0
ssS'<subj> attached'
p1716
(dp1717
g1370
g1371
sg1372
I6
sg1373
I6
sg1374
S'attached'
p1718
sg1376
F1.0
ssS'<subj> required wealth'
p1719
(dp1720
g137
I7
sg138
I7
sg139
g345
sg141
S'required wealth'
p1721
sg143
F1.0
ssS'<subj> be attributed'
p1722
(dp1723
g243
g314
sg245
I7
sg246
I7
sg247
S'be attributed'
p1724
sg249
F1.0
ssS'<subj> analyze'
p1725
(dp1726
g661
g670
sg663
I19
sg664
I19
sg665
S'analyze'
p1727
sg667
F1.0
ssS'<subj> reduced'
p1728
(dp1729
g538
I3
sg539
I3
sg540
g541
sg542
S'reduced'
p1730
sg544
F1.0
ssS'<subj> hidden sort'
p1731
(dp1732
g547
g1570
sg549
I4
sg550
I4
sg551
S'hidden sort'
p1733
sg553
F1.0
ssS'<subj> being'
p1734
(dp1735
g793
S'subj'
p1736
sg795
I21
sg796
I21
sg797
S'being'
p1737
sg799
F1.0
ssS'<subj> wish'
p1738
(dp1739
g1233
I28
sg1234
I28
sg1235
S'subj'
p1740
sg1237
S'wish'
p1741
sg1239
F1.0
ssS'<subj> start b'
p1742
(dp1743
g1660
S'subj'
p1744
sg1662
I6
sg1663
I6
sg1664
S'start b'
p1745
sg1666
F1.0
ssS'<subj> need to told'
p1746
(dp1747
g473
I19
sg474
I19
sg475
g476
sg477
S'need to told'
p1748
sg479
F1.0
ssS'preserve <dobj>'
p1749
(dp1750
g969
S'dobj'
p1751
sg971
I9
sg972
I9
sg973
S'preserve'
p1752
sg975
F1.0
ssS'seeing <dobj>'
p1753
(dp1754
g747
I7
sg748
I7
sg749
S'dobj'
p1755
sg751
S'seeing'
p1756
sg753
F1.0
ssS'<subj> having'
p1757
(dp1758
g1221
S'subj'
p1759
sg1223
I7
sg1224
I7
sg1225
S'having'
p1760
sg1227
F1.0
ssS'<subj> according studies'
p1761
(dp1762
g137
I7
sg138
I7
sg139
g345
sg141
S'according studies'
p1763
sg143
F1.0
ssS'construct <dobj>'
p1764
(dp1765
g1132
I0
sg1133
I21
sg1134
S'dobj'
p1766
sg1136
S'construct'
p1767
sg1138
F0.0
ssS'<subj> saw'
p1768
(dp1769
g259
g909
sg261
I7
sg262
I7
sg263
S'saw'
p1770
sg265
F1.0
ssS'gave <dobj>'
p1771
(dp1772
g747
I7
sg748
I7
sg749
g1755
sg751
S'gave'
p1773
sg753
F1.0
ssS'seem <dobj>'
p1774
(dp1775
S'subj_freq'
p1776
I7
sS'freq'
p1777
I7
sS'type'
p1778
S'dobj'
p1779
sS'display'
p1780
S'seem'
p1781
sS'prob'
p1782
F1.0
ssS'<subj> bringing power'
p1783
(dp1784
S'type'
p1785
S'subj'
p1786
sS'freq'
p1787
I23
sS'subj_freq'
p1788
I23
sS'display'
p1789
S'bringing power'
p1790
sS'prob'
p1791
F1.0
ssS'speak <dobj>'
p1792
(dp1793
g1679
S'dobj'
p1794
sg1681
I7
sg1682
I7
sg1683
S'speak'
p1795
sg1685
F1.0
ssS'<subj> is shown'
p1796
(dp1797
g981
g982
sg983
I21
sg984
I21
sg985
S'is shown'
p1798
sg987
F1.0
ssS'<subj> had sort'
p1799
(dp1800
g547
g1570
sg549
I4
sg550
I4
sg551
S'had sort'
p1801
sg553
F1.0
ssS'<subj> is written'
p1802
(dp1803
g1370
g1371
sg1372
I6
sg1373
I6
sg1374
S'is written'
p1804
sg1376
F1.0
ssS'<subj> want'
p1805
(dp1806
g853
I41
sg854
I41
sg855
g856
sg857
S'want'
p1807
sg859
F1.0
ssS'given <dobj>'
p1808
(dp1809
g414
S'dobj'
p1810
sg416
I7
sg417
I7
sg418
S'given'
p1811
sg420
F1.0
ssS'<subj> learned'
p1812
(dp1813
g305
I13
sg306
I13
sg307
g308
sg309
S'learned'
p1814
sg311
F1.0
ssS'realize <dobj>'
p1815
(dp1816
g547
g548
sg549
I4
sg550
I4
sg551
S'realize'
p1817
sg553
F1.0
ssS'feel <dobj>'
p1818
(dp1819
g1460
S'dobj'
p1820
sg1462
I32
sg1463
I32
sg1464
S'feel'
p1821
sg1466
F1.0
ssS'<subj> struck'
p1822
(dp1823
S'subj_freq'
p1824
I21
sS'freq'
p1825
I21
sS'type'
p1826
S'subj'
p1827
sS'display'
p1828
S'struck'
p1829
sS'prob'
p1830
F1.0
ssS'explained <dobj>'
p1831
(dp1832
g1382
I9
sg1383
I9
sg1384
g1669
sg1386
S'explained'
p1833
sg1388
F1.0
ssS'need to told <dobj>'
p1834
(dp1835
g473
I19
sg474
I19
sg475
g1566
sg477
S'need to told'
p1836
sg479
F1.0
ssS'led <dobj>'
p1837
(dp1838
g435
I9
sg436
I9
sg437
g901
sg439
S'led'
p1839
sg441
F1.0
ssS'<subj> need to remember'
p1840
(dp1841
g1391
S'subj'
p1842
sg1393
I6
sg1394
I6
sg1395
S'need to remember'
p1843
sg1397
F1.0
ssS'left <dobj>'
p1844
(dp1845
g862
S'dobj'
p1846
sg864
I5
sg865
I5
sg866
S'left'
p1847
sg868
F1.0
ssS'<subj> is gave'
p1848
(dp1849
g747
I7
sg748
I7
sg749
g750
sg751
S'is gave'
p1850
sg753
F1.0
ssS'decides <dobj>'
p1851
(dp1852
g1557
S'dobj'
p1853
sg1559
I9
sg1560
I9
sg1561
S'decides'
p1854
sg1563
F1.0
ssS'<subj> changing'
p1855
(dp1856
g12
I9
sg13
I9
sg14
g277
sg16
S'changing'
p1857
sg18
F1.0
ssS'<subj> stop'
p1858
(dp1859
g817
I21
sg818
I21
sg819
g820
sg821
S'stop'
p1860
sg823
F1.0
ssS'<subj> done'
p1861
(dp1862
g444
I10
sg445
I10
sg446
g447
sg448
S'done'
p1863
sg450
F1.0
ssS'<subj> wanted'
p1864
(dp1865
g883
I7
sg884
I7
sg885
g1162
sg887
S'wanted'
p1866
sg889
F1.0
ssS'<subj> see things'
p1867
(dp1868
g204
g1704
sg206
I21
sg207
I21
sg208
S'see things'
p1869
sg210
F1.0
ssS'<subj> walking'
p1870
(dp1871
g547
g1570
sg549
I4
sg550
I4
sg551
S'walking'
p1872
sg553
F1.0
ssS'connected <dobj>'
p1873
(dp1874
g52
I25
sg53
I25
sg54
g55
sg56
S'connected'
p1875
sg58
F1.0
ssS'<subj> are depressed'
p1876
(dp1877
g191
I21
sg192
I21
sg193
g194
sg195
S'are depressed'
p1878
sg197
F1.0
ssS'<subj> getting proportion'
p1879
(dp1880
g738
S'subj'
p1881
sg740
I7
sg741
I7
sg742
S'getting proportion'
p1882
sg744
F1.0
ssS'listening to stop <dobj>'
p1883
(dp1884
g817
I21
sg818
I21
sg819
g1298
sg821
S'listening to stop'
p1885
sg823
F1.0
ssS'to arrive <dobj>'
p1886
(dp1887
g1441
g1442
sg1443
I7
sg1444
I7
sg1445
S'to arrive'
p1888
sg1447
F1.0
ssS'<subj> feel conclusion'
p1889
(dp1890
g1460
g1461
sg1462
I25
sg1463
I25
sg1464
S'feel conclusion'
p1891
sg1466
F1.0
ssS'<subj> lost'
p1892
(dp1893
g611
I55
sg612
I55
sg613
S'subj'
p1894
sg615
S'lost'
p1895
sg617
F1.0
ssS'<subj> depressed youngsters'
p1896
(dp1897
g191
I21
sg192
I21
sg193
g194
sg195
S'depressed youngsters'
p1898
sg197
F1.0
ssS'to ensure <dobj>'
p1899
(dp1900
g661
g662
sg663
I19
sg664
I19
sg665
S'to ensure'
p1901
sg667
F1.0
ssS'learning <dobj>'
p1902
(dp1903
g925
I7
sg926
I7
sg927
S'dobj'
p1904
sg929
S'learning'
p1905
sg931
F1.0
ssS'<subj> have are waste'
p1906
(dp1907
g513
g514
sg515
I6
sg516
I6
sg517
S'have are waste'
p1908
sg519
F1.0
ssS'<subj> cheat'
p1909
(dp1910
g30
I18
sg31
I18
sg32
g781
sg34
S'cheat'
p1911
sg36
F1.0
ssS'deserves to fill <dobj>'
p1912
(dp1913
g119
g120
sg121
I7
sg122
I7
sg123
S'deserves to fill'
p1914
sg125
F1.0
ssS'<subj> learned to play'
p1915
(dp1916
g547
g1570
sg549
I4
sg550
I4
sg551
S'learned to play'
p1917
sg553
F1.0
ssS'<subj> know crops'
p1918
(dp1919
g453
I9
sg454
I9
sg455
g456
sg457
S'know crops'
p1920
sg459
F1.0
ssS'to see <dobj>'
p1921
(dp1922
g164
g358
sg166
I43
sg167
I43
sg168
S'to see'
p1923
sg170
F1.0
ssS'to creating <dobj>'
p1924
(dp1925
g871
I9
sg872
I9
sg873
S'dobj'
p1926
sg875
S'to creating'
p1927
sg877
F1.0
ssS'leads <dobj>'
p1928
(dp1929
g327
I21
sg328
I21
sg329
g785
sg331
S'leads'
p1930
sg333
F1.0
ssS'<subj> apply'
p1931
(dp1932
g383
I9
sg384
I9
sg385
g386
sg387
S'apply'
p1933
sg389
F1.0
ssS'<subj> want to hold'
p1934
(dp1935
g74
I7
sg75
I7
sg76
g77
sg78
S'want to hold'
p1936
sg80
F1.0
ssS'spent <dobj>'
p1937
(dp1938
g473
I19
sg474
I19
sg475
g1566
sg477
S'spent'
p1939
sg479
F1.0
ssS'<subj> describe'
p1940
(dp1941
S'subj_freq'
p1942
I7
sS'freq'
p1943
I7
sS'type'
p1944
S'subj'
p1945
sS'display'
p1946
S'describe'
p1947
sS'prob'
p1948
F1.0
ssS'sending <dobj>'
p1949
(dp1950
g268
g269
sg270
I7
sg271
I7
sg272
S'sending'
p1951
sg274
F1.0
ssS'<subj> says'
p1952
(dp1953
g30
I9
sg31
I9
sg32
g781
sg34
S'says'
p1954
sg36
F1.0
ssS'wrecked <dobj>'
p1955
(dp1956
g538
I3
sg539
I3
sg540
g1574
sg542
S'wrecked'
p1957
sg544
F1.0
ssS'to offer <dobj>'
p1958
(dp1959
g871
I9
sg872
I9
sg873
g1926
sg875
S'to offer'
p1960
sg877
F1.0
ssS"<subj> 've age"
p1961
(dp1962
S'subj_freq'
p1963
I9
sS'freq'
p1964
I9
sS'type'
p1965
S'subj'
p1966
sS'display'
p1967
S"'ve age"
p1968
sS'prob'
p1969
F1.0
ssS'<subj> fight term'
p1970
(dp1971
g268
g810
sg270
I7
sg271
I7
sg272
S'fight term'
p1972
sg274
F1.0
ssS'<subj> devoted'
p1973
(dp1974
g349
I9
sg350
I9
sg351
g352
sg353
S'devoted'
p1975
sg355
F1.0
ssS'thought <dobj>'
p1976
(dp1977
g571
S'dobj'
p1978
sg573
I46
sg574
I46
sg575
S'thought'
p1979
sg577
F1.0
ssS'is required for <np>'
p1980
(dp1981
g137
I7
sg138
I7
sg139
S'np'
p1982
sg141
S'is required for'
p1983
sg143
F1.0
ssS'<subj> continue to maintain'
p1984
(dp1985
g526
g1166
sg528
I7
sg529
I7
sg530
S'continue to maintain'
p1986
sg532
F1.0
ssS'to hold <dobj>'
p1987
(dp1988
g74
I7
sg75
I7
sg76
g281
sg78
S'to hold'
p1989
sg80
F1.0
ssS'discussed <dobj>'
p1990
(dp1991
g182
S'dobj'
p1992
sg184
I21
sg185
I21
sg186
S'discussed'
p1993
sg188
F1.0
ssS'<subj> doing network'
p1994
(dp1995
g52
I21
sg53
I21
sg54
g285
sg56
S'doing network'
p1996
sg58
F1.0
ssS'<subj> reach'
p1997
(dp1998
g52
I21
sg53
I21
sg54
g285
sg56
S'reach'
p1999
sg58
F1.0
ssS'<subj> knew'
p2000
(dp2001
g101
g102
sg103
I7
sg104
I7
sg105
S'knew'
p2002
sg107
F1.0
ssS'<subj> give'
p2003
(dp2004
S'subj_freq'
p2005
I7
sS'freq'
p2006
I7
sS'type'
p2007
S'subj'
p2008
sS'display'
p2009
S'give'
p2010
sS'prob'
p2011
F1.0
ssS'<subj> are given'
p2012
(dp2013
g414
g415
sg416
I7
sg417
I7
sg418
S'are given'
p2014
sg420
F1.0
ssS'to exercise <dobj>'
p2015
(dp2016
g1266
g1553
sg1268
I9
sg1269
I9
sg1270
S'to exercise'
p2017
sg1272
F1.0
ssS'find <dobj>'
p2018
(dp2019
g74
I18
sg75
I18
sg76
g281
sg78
S'find'
p2020
sg80
F1.0
ssS'thinking process of <np>'
p2021
(dp2022
g128
S'np'
p2023
sg130
I21
sg131
I21
sg132
S'thinking process of'
p2024
sg134
F1.0
ssS'<subj> has life'
p2025
(dp2026
g862
g863
sg864
I5
sg865
I5
sg866
S'has life'
p2027
sg868
F1.0
ssS'means <dobj>'
p2028
(dp2029
g720
I41
sg721
I41
sg722
g723
sg724
S'means'
p2030
sg726
F1.0
ssS'<subj> lived'
p2031
(dp2032
S'subj_freq'
p2033
I7
sS'freq'
p2034
I7
sS'type'
p2035
S'subj'
p2036
sS'display'
p2037
S'lived'
p2038
sS'prob'
p2039
F1.0
ssS'know <dobj>'
p2040
(dp2041
g234
g934
sg236
I39
sg237
I39
sg238
S'know'
p2042
sg240
F1.0
ssS'need to make <dobj>'
p2043
(dp2044
g661
g662
sg663
I19
sg664
I19
sg665
S'need to make'
p2045
sg667
F1.0
ssS'<subj> have Ted'
p2046
(dp2047
g374
g375
sg376
I7
sg377
I7
sg378
S'have Ted'
p2048
sg380
F1.0
ssS'<subj> fly cloud'
p2049
(dp2050
g1382
I9
sg1383
I9
sg1384
g1385
sg1386
S'fly cloud'
p2051
sg1388
F1.0
ssS'<subj> misled'
p2052
(dp2053
g636
g697
sg638
I21
sg639
I21
sg640
S'misled'
p2054
sg642
F1.0
ssS'<subj> depressed'
p2055
(dp2056
g191
I21
sg192
I21
sg193
g194
sg195
S'depressed'
p2057
sg197
F1.0
ssS'<subj> deserves'
p2058
(dp2059
g119
g1501
sg121
I7
sg122
I7
sg123
S'deserves'
p2060
sg125
F1.0
ssS'<subj> touched'
p2061
(dp2062
g772
I7
sg773
I7
sg774
g775
sg776
S'touched'
p2063
sg778
F1.0
ssS'<subj> is required'
p2064
(dp2065
g137
I7
sg138
I7
sg139
g345
sg141
S'is required'
p2066
sg143
F1.0
ssS'<subj> quit years'
p2067
(dp2068
g405
I4
sg406
I4
sg407
g408
sg409
S'quit years'
p2069
sg411
F1.0
ssS'<subj> doing ones'
p2070
(dp2071
g52
I21
sg53
I21
sg54
g285
sg56
S'doing ones'
p2072
sg58
F1.0
ssS'<subj> love'
p2073
(dp2074
S'type'
p2075
S'subj'
p2076
sS'freq'
p2077
I9
sS'subj_freq'
p2078
I9
sS'display'
p2079
S'love'
p2080
sS'prob'
p2081
F1.0
ssS'confirm <dobj>'
p2082
(dp2083
g1110
I7
sg1111
I7
sg1112
S'dobj'
p2084
sg1114
S'confirm'
p2085
sg1116
F1.0
ssS'<subj> creating God'
p2086
(dp2087
g225
I4
sg226
I4
sg227
g228
sg229
S'creating God'
p2088
sg231
F1.0
ssS'<subj> deserved'
p2089
(dp2090
g119
g1501
sg121
I7
sg122
I7
sg123
S'deserved'
p2091
sg125
F1.0
ssS'<subj> live'
p2092
(dp2093
g83
g84
sg85
I16
sg86
I16
sg87
S'live'
p2094
sg89
F1.0
ssS'are presented in <np>'
p2095
(dp2096
g396
S'np'
p2097
sg398
I9
sg399
I9
sg400
S'are presented in'
p2098
sg402
F1.0
ssS'<subj> doing'
p2099
(dp2100
g52
I21
sg53
I21
sg54
g285
sg56
S'doing'
p2101
sg58
F1.0
ssS'<subj> sharing'
p2102
(dp2103
g216
g1475
sg218
I7
sg219
I7
sg220
S'sharing'
p2104
sg222
F1.0
ssS'<subj> written'
p2105
(dp2106
g1370
g1371
sg1372
I6
sg1373
I6
sg1374
S'written'
p2107
sg1376
F1.0
ssS'describe <dobj>'
p2108
(dp2109
g1942
I7
sg1943
I7
sg1944
S'dobj'
p2110
sg1946
S'describe'
p2111
sg1948
F1.0
ssS'<subj> deliver'
p2112
(dp2113
S'subj_freq'
p2114
I4
sS'freq'
p2115
I4
sS'type'
p2116
S'subj'
p2117
sS'display'
p2118
S'deliver'
p2119
sS'prob'
p2120
F1.0
ssS'<subj> is eliminated'
p2121
(dp2122
g52
I21
sg53
I21
sg54
g285
sg56
S'is eliminated'
p2123
sg58
F1.0
ssS'creating <dobj>'
p2124
(dp2125
g871
I13
sg872
I13
sg873
g1926
sg875
S'creating'
p2126
sg877
F1.0
ssS'<subj> bringing responsibility'
p2127
(dp2128
g1785
g1786
sg1787
I23
sg1788
I23
sg1789
S'bringing responsibility'
p2129
sg1791
F1.0
ssS'understand <dobj>'
p2130
(dp2131
g426
g1511
sg428
I7
sg429
I7
sg430
S'understand'
p2132
sg432
F1.0
ssS'<subj> getting'
p2133
(dp2134
g738
g1881
sg740
I7
sg741
I7
sg742
S'getting'
p2135
sg744
F1.0
ssS'<subj> be told'
p2136
(dp2137
g473
I19
sg474
I19
sg475
g476
sg477
S'be told'
p2138
sg479
F1.0
ssS'use of <np>'
p2139
(dp2140
g1257
S'np'
p2141
sg1259
I17
sg1260
I0
sg1261
S'use of'
p2142
sg1263
F0.0
ssS'build <dobj>'
p2143
(dp2144
g268
g269
sg270
I7
sg271
I7
sg272
S'build'
p2145
sg274
F1.0
ssS'<subj> produces'
p2146
(dp2147
g173
I7
sg174
I7
sg175
S'subj'
p2148
sg177
S'produces'
p2149
sg179
F1.0
ssS'<subj> dominating'
p2150
(dp2151
g52
I21
sg53
I21
sg54
g285
sg56
S'dominating'
p2152
sg58
F1.0
ssS'<subj> presented'
p2153
(dp2154
g396
g674
sg398
I9
sg399
I9
sg400
S'presented'
p2155
sg402
F1.0
ssS'<subj> required'
p2156
(dp2157
g137
I7
sg138
I7
sg139
g345
sg141
S'required'
p2158
sg143
F1.0
ssS'<subj> was connected'
p2159
(dp2160
g52
I21
sg53
I21
sg54
g285
sg56
S'was connected'
p2161
sg58
F1.0
ssS'spread across <np>'
p2162
(dp2163
g482
S'np'
p2164
sg484
I21
sg485
I21
sg486
S'spread across'
p2165
sg488
F1.0
ssS'<subj> taking'
p2166
(dp2167
g1176
I13
sg1177
I13
sg1178
g1179
sg1180
S'taking'
p2168
sg1182
F1.0
ssS'reach <dobj>'
p2169
(dp2170
g52
I21
sg53
I21
sg54
g55
sg56
S'reach'
p2171
sg58
F1.0
ssS'<subj> gave reports'
p2172
(dp2173
g747
I7
sg748
I7
sg749
g750
sg751
S'gave reports'
p2174
sg753
F1.0
ssS'<subj> moved Ohio'
p2175
(dp2176
g556
I7
sg557
I7
sg558
g607
sg560
S'moved Ohio'
p2177
sg562
F1.0
ssS'<subj> belongs life'
p2178
(dp2179
g83
g84
sg85
I7
sg86
I7
sg87
S'belongs life'
p2180
sg89
F1.0
ssS'<subj> is attached'
p2181
(dp2182
g1370
g1371
sg1372
I6
sg1373
I6
sg1374
S'is attached'
p2183
sg1376
F1.0
ssS'watching <dobj>'
p2184
(dp2185
g52
I27
sg53
I27
sg54
g55
sg56
S'watching'
p2186
sg58
F1.0
ssS'contribute <dobj>'
p2187
(dp2188
g1311
S'dobj'
p2189
sg1313
I9
sg1314
I9
sg1315
S'contribute'
p2190
sg1317
F1.0
ssS'watching years ago <np>'
p2191
(dp2192
g52
I21
sg53
I21
sg54
S'np'
p2193
sg56
S'watching years ago'
p2194
sg58
F1.0
ssS'wants idea of <np>'
p2195
(dp2196
g841
S'np'
p2197
sg843
I7
sg844
I7
sg845
S'wants idea of'
p2198
sg847
F1.0
ssS'<subj> undo'
p2199
(dp2200
g146
I21
sg147
I21
sg148
g149
sg150
S'undo'
p2201
sg152
F1.0
ssS'need <dobj>'
p2202
(dp2203
g234
g934
sg236
I95
sg237
I95
sg238
S'need'
p2204
sg240
F1.0
ssS'<subj> bringing'
p2205
(dp2206
g1785
g1786
sg1787
I23
sg1788
I23
sg1789
S'bringing'
p2207
sg1791
F1.0
ssS'<subj> be changed'
p2208
(dp2209
g772
I7
sg773
I7
sg774
g775
sg776
S'be changed'
p2210
sg778
F1.0
ssS'<subj> forget'
p2211
(dp2212
g1406
I7
sg1407
I7
sg1408
g1714
sg1410
S'forget'
p2213
sg1412
F1.0
ssS'<subj> is was'
p2214
(dp2215
g30
I9
sg31
I9
sg32
g781
sg34
S'is was'
p2216
sg36
F1.0
ssS"<subj> 's"
p2217
(dp2218
g336
I176
sg337
I176
sg338
S'subj'
p2219
sg340
S"'s"
p2220
sg342
F1.0
ssS'<subj> found'
p2221
(dp2222
g556
I7
sg557
I7
sg558
g607
sg560
S'found'
p2223
sg562
F1.0
ssS'<subj> sounds'
p2224
(dp2225
g164
g165
sg166
I22
sg167
I22
sg168
S'sounds'
p2226
sg170
F1.0
ssS'want <dobj>'
p2227
(dp2228
g853
I41
sg854
I41
sg855
S'dobj'
p2229
sg857
S'want'
p2230
sg859
F1.0
ssS'<subj> listening'
p2231
(dp2232
g817
I21
sg818
I21
sg819
g820
sg821
S'listening'
p2233
sg823
F1.0
ssS'<subj> seem to understand'
p2234
(dp2235
g1776
I7
sg1777
I7
sg1778
S'subj'
p2236
sg1780
S'seem to understand'
p2237
sg1782
F1.0
ssS'threw <dobj>'
p2238
(dp2239
g624
S'dobj'
p2240
sg626
I7
sg627
I7
sg628
S'threw'
p2241
sg630
F1.0
ssS'<subj> need discipline'
p2242
(dp2243
g473
I19
sg474
I19
sg475
g476
sg477
S'need discipline'
p2244
sg479
F1.0
ssS'<subj> seeing'
p2245
(dp2246
g747
I7
sg748
I7
sg749
g750
sg751
S'seeing'
p2247
sg753
F1.0
ssS'struck <dobj>'
p2248
(dp2249
g1824
I21
sg1825
I21
sg1826
S'dobj'
p2250
sg1828
S'struck'
p2251
sg1830
F1.0
ssS'<subj> exercise right'
p2252
(dp2253
g1266
g1267
sg1268
I9
sg1269
I9
sg1270
S'exercise right'
p2254
sg1272
F1.0
ssS'lived <dobj>'
p2255
(dp2256
g2033
I7
sg2034
I7
sg2035
S'dobj'
p2257
sg2037
S'lived'
p2258
sg2039
F1.0
ssS'<subj> making'
p2259
(dp2260
g729
g789
sg731
I34
sg732
I34
sg733
S'making'
p2261
sg735
F1.0
ssS'<subj> according classes'
p2262
(dp2263
g137
I7
sg138
I7
sg139
g345
sg141
S'according classes'
p2264
sg143
F1.0
ssS'moved <dobj>'
p2265
(dp2266
g556
I7
sg557
I7
sg558
g559
sg560
S'moved'
p2267
sg562
F1.0
ssS'<subj> reduced fish'
p2268
(dp2269
g538
I3
sg539
I3
sg540
g541
sg542
S'reduced fish'
p2270
sg544
F1.0
ssS'<subj> develop'
p2271
(dp2272
g12
I9
sg13
I9
sg14
g277
sg16
S'develop'
p2273
sg18
F1.0
ssS'<subj> made'
p2274
(dp2275
g817
I28
sg818
I28
sg819
g820
sg821
S'made'
p2276
sg823
F1.0
ssS'<subj> cause'
p2277
(dp2278
g30
I9
sg31
I9
sg32
g781
sg34
S'cause'
p2279
sg36
F1.0
ssS'selling <dobj>'
p2280
(dp2281
g1963
I16
sg1964
I16
sg1965
S'dobj'
p2282
sg1967
S'selling'
p2283
sg1969
F1.0
ssS"<subj> 're"
p2284
(dp2285
g52
I42
sg53
I42
sg54
g285
sg56
S"'re"
p2286
sg58
F1.0
ssS'<subj> arrive'
p2287
(dp2288
g1441
S'subj'
p2289
sg1443
I7
sg1444
I7
sg1445
S'arrive'
p2290
sg1447
F1.0
ssS'<subj> governing ruling'
p2291
(dp2292
g146
I21
sg147
I21
sg148
g149
sg150
S'governing ruling'
p2293
sg152
F1.0
ssS'<subj> see'
p2294
(dp2295
g204
g1704
sg206
I51
sg207
I51
sg208
S'see'
p2296
sg210
F1.0
ssS'to operate <dobj>'
p2297
(dp2298
g225
I4
sg226
I4
sg227
g1453
sg229
S'to operate'
p2299
sg231
F1.0
ssS'<subj> knows idea'
p2300
(dp2301
g841
g905
sg843
I7
sg844
I7
sg845
S'knows idea'
p2302
sg847
F1.0
ssS'<subj> seeing things'
p2303
(dp2304
g747
I7
sg748
I7
sg749
g750
sg751
S'seeing things'
p2305
sg753
F1.0
ssS'offer <dobj>'
p2306
(dp2307
g871
I9
sg872
I9
sg873
g1926
sg875
S'offer'
p2308
sg877
F1.0
ssS'make <dobj>'
p2309
(dp2310
g661
g662
sg663
I35
sg664
I35
sg665
S'make'
p2311
sg667
F1.0
ssS'fail <dobj>'
p2312
(dp2313
g720
I27
sg721
I27
sg722
g723
sg724
S'fail'
p2314
sg726
F1.0
ssS'<subj> seem'
p2315
(dp2316
g1776
I7
sg1777
I7
sg1778
g2236
sg1780
S'seem'
p2317
sg1782
F1.0
ssS'<subj> having properties'
p2318
(dp2319
g1221
g1759
sg1223
I7
sg1224
I7
sg1225
S'having properties'
p2320
sg1227
F1.0
ssS'<subj> talking'
p2321
(dp2322
g981
g982
sg983
I21
sg984
I21
sg985
S'talking'
p2323
sg987
F1.0
ssS'<subj> start'
p2324
(dp2325
g1660
g1744
sg1662
I6
sg1663
I6
sg1664
S'start'
p2326
sg1666
F1.0
ssS'<subj> heed'
p2327
(dp2328
g526
g1166
sg528
I7
sg529
I7
sg530
S'heed'
p2329
sg532
F1.0
ssS'<subj> learned paralysis'
p2330
(dp2331
g305
I9
sg306
I9
sg307
g308
sg309
S'learned paralysis'
p2332
sg311
F1.0
ssS'<subj> have carbon'
p2333
(dp2334
S'subj_freq'
p2335
I0
sS'freq'
p2336
I9
sS'type'
p2337
S'subj'
p2338
sS'display'
p2339
S'have carbon'
p2340
sS'prob'
p2341
F0.0
ssS'did <dobj>'
p2342
(dp2343
g383
I14
sg384
I14
sg385
g1125
sg387
S'did'
p2344
sg389
F1.0
ssS'<subj> saw talk'
p2345
(dp2346
g259
g909
sg261
I7
sg262
I7
sg263
S'saw talk'
p2347
sg265
F1.0
ssS'to cut <dobj>'
p2348
(dp2349
g110
g111
sg112
I4
sg113
I4
sg114
S'to cut'
p2350
sg116
F1.0
ssS'<subj> wants technology'
p2351
(dp2352
g841
g905
sg843
I7
sg844
I7
sg845
S'wants technology'
p2353
sg847
F1.0
ssS'<subj> connected privacy'
p2354
(dp2355
g52
I21
sg53
I21
sg54
g285
sg56
S'connected privacy'
p2356
sg58
F1.0
ssS'<subj> means everybody'
p2357
(dp2358
g969
g970
sg971
I9
sg972
I9
sg973
S'means everybody'
p2359
sg975
F1.0
ssS'seem to understand <dobj>'
p2360
(dp2361
g1776
I7
sg1777
I7
sg1778
g1779
sg1780
S'seem to understand'
p2362
sg1782
F1.0
ssS'<subj> had arthritis'
p2363
(dp2364
S'type'
p2365
S'subj'
p2366
sS'freq'
p2367
I7
sS'subj_freq'
p2368
I7
sS'display'
p2369
S'had arthritis'
p2370
sS'prob'
p2371
F1.0
ssS'Thanks for <np>'
p2372
(dp2373
g216
S'np'
p2374
sg218
I7
sg219
I7
sg220
S'Thanks for'
p2375
sg222
F1.0
ssS'<subj> explained'
p2376
(dp2377
g1382
I9
sg1383
I9
sg1384
g1385
sg1386
S'explained'
p2378
sg1388
F1.0
ssS'<subj> have search'
p2379
(dp2380
g234
g235
sg236
I21
sg237
I21
sg238
S'have search'
p2381
sg240
F1.0
ssS'<subj> lost powers'
p2382
(dp2383
g611
I55
sg612
I55
sg613
g1894
sg615
S'lost powers'
p2384
sg617
F1.0
ssS"<subj> 'm Japan"
p2385
(dp2386
g500
I22
sg501
I22
sg502
g503
sg504
S"'m Japan"
p2387
sg506
F1.0
ssS'<subj> come'
p2388
(dp2389
g30
I9
sg31
I9
sg32
g781
sg34
S'come'
p2390
sg36
F1.0
ssS'to keep <dobj>'
p2391
(dp2392
g913
g914
sg915
I9
sg916
I9
sg917
S'to keep'
p2393
sg919
F1.0
ssS'<subj> seeing clutter'
p2394
(dp2395
g747
I7
sg748
I7
sg749
g750
sg751
S'seeing clutter'
p2396
sg753
F1.0
ssS'to deliver <dobj>'
p2397
(dp2398
g2114
I4
sg2115
I4
sg2116
S'dobj'
p2399
sg2118
S'to deliver'
p2400
sg2120
F1.0
ssS'<subj> hidden'
p2401
(dp2402
g547
g1570
sg549
I4
sg550
I4
sg551
S'hidden'
p2403
sg553
F1.0
ssS'give <dobj>'
p2404
(dp2405
g2005
I7
sg2006
I7
sg2007
S'dobj'
p2406
sg2009
S'give'
p2407
sg2011
F1.0
ssS'saves <dobj>'
p2408
(dp2409
g688
I7
sg689
I7
sg690
S'dobj'
p2410
sg692
S'saves'
p2411
sg694
F1.0
ssS'<subj> decides journalist'
p2412
(dp2413
g1557
g1558
sg1559
I9
sg1560
I9
sg1561
S'decides journalist'
p2414
sg1563
F1.0
ssS'left stuff in <np>'
p2415
(dp2416
g862
S'np'
p2417
sg864
I5
sg865
I5
sg866
S'left stuff in'
p2418
sg868
F1.0
ssS'<subj> build'
p2419
(dp2420
g268
g810
sg270
I7
sg271
I7
sg272
S'build'
p2421
sg274
F1.0
ssS'<subj> put'
p2422
(dp2423
g43
g620
sg45
I42
sg46
I42
sg47
S'put'
p2424
sg49
F1.0
ssS'<subj> was was'
p2425
(dp2426
g547
g1570
sg549
I4
sg550
I4
sg551
S'was was'
p2427
sg553
F1.0
ssS'to making <dobj>'
p2428
(dp2429
g1370
g1599
sg1372
I6
sg1373
I6
sg1374
S'to making'
p2430
sg1376
F1.0
ssS'<subj> do privilege'
p2431
(dp2432
g83
g84
sg85
I7
sg86
I7
sg87
S'do privilege'
p2433
sg89
F1.0
ssS"'re <dobj>"
p2434
(dp2435
g52
I42
sg53
I42
sg54
g55
sg56
S"'re"
p2436
sg58
F1.0
ssS'<subj> used'
p2437
(dp2438
g556
I7
sg557
I7
sg558
g607
sg560
S'used'
p2439
sg562
F1.0
ssS'<subj> suggests'
p2440
(dp2441
g1257
S'subj'
p2442
sg1259
I17
sg1260
I0
sg1261
S'suggests'
p2443
sg1263
F0.0
ssS'<subj> required happiness'
p2444
(dp2445
g137
I7
sg138
I7
sg139
g345
sg141
S'required happiness'
p2446
sg143
F1.0
ssS'probing <dobj>'
p2447
(dp2448
g43
g997
sg45
I42
sg46
I42
sg47
S'probing'
p2449
sg49
F1.0
ssS'<subj> uses'
p2450
(dp2451
g1212
I17
sg1213
I17
sg1214
S'subj'
p2452
sg1216
S'uses'
p2453
sg1218
F1.0
ssS'<subj> reject'
p2454
(dp2455
g636
g697
sg638
I21
sg639
I21
sg640
S'reject'
p2456
sg642
F1.0
ssS'bless <dobj>'
p2457
(dp2458
g216
g217
sg218
I7
sg219
I7
sg220
S'bless'
p2459
sg222
F1.0
ssS'<subj> become help'
p2460
(dp2461
g1176
I13
sg1177
I13
sg1178
g1179
sg1180
S'become help'
p2462
sg1182
F1.0
ssS'reached <dobj>'
p2463
(dp2464
g1460
g1820
sg1462
I25
sg1463
I25
sg1464
S'reached'
p2465
sg1466
F1.0
ssS'cup from <np>'
p2466
(dp2467
g119
S'np'
p2468
sg121
I7
sg122
I7
sg123
S'cup from'
p2469
sg125
F1.0
ssS'stop <dobj>'
p2470
(dp2471
g817
I21
sg818
I21
sg819
g1298
sg821
S'stop'
p2472
sg823
F1.0
ssS'<subj> exercise'
p2473
(dp2474
g1266
g1267
sg1268
I9
sg1269
I9
sg1270
S'exercise'
p2475
sg1272
F1.0
ssS'love <dobj>'
p2476
(dp2477
g2075
S'dobj'
p2478
sg2077
I9
sg2078
I9
sg2079
S'love'
p2479
sg2081
F1.0
ssS'<subj> fail'
p2480
(dp2481
g720
I27
sg721
I27
sg722
g941
sg724
S'fail'
p2482
sg726
F1.0
ssS'<subj> believe'
p2483
(dp2484
g318
I30
sg319
I30
sg320
g321
sg322
S'believe'
p2485
sg324
F1.0
ssS'dominating <dobj>'
p2486
(dp2487
g52
I21
sg53
I21
sg54
g55
sg56
S'dominating'
p2488
sg58
F1.0
ssS'shown <dobj>'
p2489
(dp2490
g318
I42
sg319
I42
sg320
g684
sg322
S'shown'
p2491
sg324
F1.0
ssS'<subj> sending army'
p2492
(dp2493
g268
g810
sg270
I7
sg271
I7
sg272
S'sending army'
p2494
sg274
F1.0
ssS'promise for <np>'
p2495
(dp2496
S'subj_freq'
p2497
I21
sS'freq'
p2498
I21
sS'type'
p2499
S'np'
p2500
sS'display'
p2501
S'promise for'
p2502
sS'prob'
p2503
F1.0
ssS'<subj> denied'
p2504
(dp2505
g636
g697
sg638
I21
sg639
I21
sg640
S'denied'
p2506
sg642
F1.0
ssS'<subj> came'
p2507
(dp2508
g259
g909
sg261
I7
sg262
I7
sg263
S'came'
p2509
sg265
F1.0
ssS'<subj> need search'
p2510
(dp2511
g234
g235
sg236
I21
sg237
I21
sg238
S'need search'
p2512
sg240
F1.0
ssS'interview on <np>'
p2513
(dp2514
g981
S'np'
p2515
sg983
I21
sg984
I21
sg985
S'interview on'
p2516
sg987
F1.0
ssS'<subj> providing way'
p2517
(dp2518
g204
g1704
sg206
I21
sg207
I21
sg208
S'providing way'
p2519
sg210
F1.0
ssS'<subj> have fish'
p2520
(dp2521
g538
I3
sg539
I3
sg540
g541
sg542
S'have fish'
p2522
sg544
F1.0
ssS'talking <dobj>'
p2523
(dp2524
g981
S'dobj'
p2525
sg983
I21
sg984
I21
sg985
S'talking'
p2526
sg987
F1.0
ssS'<subj> produces euphoria'
p2527
(dp2528
g173
I7
sg174
I7
sg175
g2148
sg177
S'produces euphoria'
p2529
sg179
F1.0
ssS'<subj> according to required'
p2530
(dp2531
g137
I7
sg138
I7
sg139
g345
sg141
S'according to required'
p2532
sg143
F1.0
ssS'say <dobj>'
p2533
(dp2534
g981
g2525
sg983
I68
sg984
I68
sg985
S'say'
p2535
sg987
F1.0
ssS'to think <dobj>'
p2536
(dp2537
g1266
g1553
sg1268
I9
sg1269
I9
sg1270
S'to think'
p2538
sg1272
F1.0
ssS'<subj> leads'
p2539
(dp2540
g327
I21
sg328
I21
sg329
g330
sg331
S'leads'
p2541
sg333
F1.0
ssS'<subj> uses Europe'
p2542
(dp2543
g1212
I17
sg1213
I17
sg1214
g2452
sg1216
S'uses Europe'
p2544
sg1218
F1.0
ssS'<subj> selling'
p2545
(dp2546
g1963
I16
sg1964
I16
sg1965
g1966
sg1967
S'selling'
p2547
sg1969
F1.0
ssS'to claim <dobj>'
p2548
(dp2549
g52
I21
sg53
I21
sg54
g55
sg56
S'to claim'
p2550
sg58
F1.0
ssS'<subj> claim'
p2551
(dp2552
g52
I28
sg53
I28
sg54
g285
sg56
S'claim'
p2553
sg58
F1.0
ssS'lead by <np>'
p2554
(dp2555
g1176
I13
sg1177
I13
sg1178
g1185
sg1180
S'lead by'
p2556
sg1182
F1.0
ssS'<subj> saw Education'
p2557
(dp2558
g259
g909
sg261
I7
sg262
I7
sg263
S'saw Education'
p2559
sg265
F1.0
ssS'<subj> do concept'
p2560
(dp2561
g595
g596
sg597
I23
sg598
I23
sg599
S'do concept'
p2562
sg601
F1.0
ssS'made <dobj>'
p2563
(dp2564
g817
I28
sg818
I28
sg819
g1298
sg821
S'made'
p2565
sg823
F1.0
ssS'eliminated <dobj>'
p2566
(dp2567
g52
I21
sg53
I21
sg54
g55
sg56
S'eliminated'
p2568
sg58
F1.0
ssS'<subj> have years'
p2569
(dp2570
g513
g514
sg515
I6
sg516
I6
sg517
S'have years'
p2571
sg519
F1.0
ssS'<subj> take'
p2572
(dp2573
g526
g1166
sg528
I7
sg529
I7
sg530
S'take'
p2574
sg532
F1.0
ssS'<subj> has stuff'
p2575
(dp2576
g862
g863
sg864
I5
sg865
I5
sg866
S'has stuff'
p2577
sg868
F1.0
ssS'listening <dobj>'
p2578
(dp2579
g817
I21
sg818
I21
sg819
g1298
sg821
S'listening'
p2580
sg823
F1.0
ssS'witnessed <dobj>'
p2581
(dp2582
g30
I9
sg31
I9
sg32
g33
sg34
S'witnessed'
p2583
sg36
F1.0
ssS'deliver <dobj>'
p2584
(dp2585
g2114
I4
sg2115
I4
sg2116
g2399
sg2118
S'deliver'
p2586
sg2120
F1.0
ssS'made fun of <np>'
p2587
(dp2588
g624
S'np'
p2589
sg626
I7
sg627
I7
sg628
S'made fun of'
p2590
sg630
F1.0
ssS'<subj> help'
p2591
(dp2592
g405
I4
sg406
I4
sg407
g408
sg409
S'help'
p2593
sg411
F1.0
ssS'to do <dobj>'
p2594
(dp2595
g571
g1978
sg573
I49
sg574
I49
sg575
S'to do'
p2596
sg577
F1.0
ssS'<subj> told'
p2597
(dp2598
g473
I19
sg474
I19
sg475
g476
sg477
S'told'
p2599
sg479
F1.0
ssS'<subj> providing'
p2600
(dp2601
g204
g1704
sg206
I21
sg207
I21
sg208
S'providing'
p2602
sg210
F1.0
ssS'<subj> has ocean'
p2603
(dp2604
g119
g1501
sg121
I7
sg122
I7
sg123
S'has ocean'
p2605
sg125
F1.0
ssS'taking <dobj>'
p2606
(dp2607
g1176
I13
sg1177
I13
sg1178
S'dobj'
p2608
sg1180
S'taking'
p2609
sg1182
F1.0
ssS'<subj> sending'
p2610
(dp2611
g268
g810
sg270
I7
sg271
I7
sg272
S'sending'
p2612
sg274
F1.0
ssS'<subj> needed arthritis'
p2613
(dp2614
g2365
g2366
sg2367
I7
sg2368
I7
sg2369
S'needed arthritis'
p2615
sg2371
F1.0
ssS'<subj> done to reduced'
p2616
(dp2617
g538
I3
sg539
I3
sg540
g541
sg542
S'done to reduced'
p2618
sg544
F1.0
ssS'put <dobj>'
p2619
(dp2620
g43
g997
sg45
I42
sg46
I42
sg47
S'put'
p2621
sg49
F1.0
ssS'<subj> have ruling'
p2622
(dp2623
g146
I21
sg147
I21
sg148
g149
sg150
S'have ruling'
p2624
sg152
F1.0
ssS'<subj> got'
p2625
(dp2626
g30
I9
sg31
I9
sg32
g781
sg34
S'got'
p2627
sg36
F1.0
ssS'<subj> sees'
p2628
(dp2629
g43
g620
sg45
I42
sg46
I42
sg47
S'sees'
p2630
sg49
F1.0
ssS'explains <dobj>'
p2631
(dp2632
g43
g997
sg45
I42
sg46
I42
sg47
S'explains'
p2633
sg49
F1.0
ssS'<subj> have pain'
p2634
(dp2635
g2033
I7
sg2034
I7
sg2035
g2036
sg2037
S'have pain'
p2636
sg2039
F1.0
ssS'<subj> moved'
p2637
(dp2638
g556
I7
sg557
I7
sg558
g607
sg560
S'moved'
p2639
sg562
F1.0
ssS'managing <dobj>'
p2640
(dp2641
g1078
S'dobj'
p2642
sg1080
I4
sg1081
I4
sg1082
S'managing'
p2643
sg1084
F1.0
ssS'<subj> think'
p2644
(dp2645
g204
g1704
sg206
I74
sg207
I74
sg208
S'think'
p2646
sg210
F1.0
ssS'unveiled <dobj>'
p2647
(dp2648
g349
I9
sg350
I9
sg351
g1008
sg353
S'unveiled'
p2649
sg355
F1.0
ssS'written <dobj>'
p2650
(dp2651
g1370
g1599
sg1372
I6
sg1373
I6
sg1374
S'written'
p2652
sg1376
F1.0
ssS'<subj> focused'
p2653
(dp2654
g374
g375
sg376
I7
sg377
I7
sg378
S'focused'
p2655
sg380
F1.0
ssS'bothered <dobj>'
p2656
(dp2657
g513
g1346
sg515
I6
sg516
I6
sg517
S'bothered'
p2658
sg519
F1.0
ssS'conceded <dobj>'
p2659
(dp2660
g101
g301
sg103
I7
sg104
I7
sg105
S'conceded'
p2661
sg107
F1.0
ssS'<subj> are articulated'
p2662
(dp2663
g1266
g1267
sg1268
I9
sg1269
I9
sg1270
S'are articulated'
p2664
sg1272
F1.0
ssS'<subj> has love'
p2665
(dp2666
g30
I9
sg31
I9
sg32
g781
sg34
S'has love'
p2667
sg36
F1.0
ssS'bringing <dobj>'
p2668
(dp2669
g1785
S'dobj'
p2670
sg1787
I23
sg1788
I23
sg1789
S'bringing'
p2671
sg1791
F1.0
ssS'<subj> left life'
p2672
(dp2673
g862
g863
sg864
I5
sg865
I5
sg866
S'left life'
p2674
sg868
F1.0
ssS'need to try <dobj>'
p2675
(dp2676
g1632
I23
sg1633
I23
sg1634
S'dobj'
p2677
sg1636
S'need to try'
p2678
sg1638
F1.0
ssS'<subj> conceded'
p2679
(dp2680
g101
g102
sg103
I7
sg104
I7
sg105
S'conceded'
p2681
sg107
F1.0
ssS'<subj> have form'
p2682
(dp2683
g173
I7
sg174
I7
sg175
g2148
sg177
S'have form'
p2684
sg179
F1.0
ssS'<subj> operate'
p2685
(dp2686
g225
I4
sg226
I4
sg227
g228
sg229
S'operate'
p2687
sg231
F1.0
ssS'rate of <np>'
p2688
(dp2689
g1824
I21
sg1825
I21
sg1826
S'np'
p2690
sg1828
S'rate of'
p2691
sg1830
F1.0
ssS'<subj> fly'
p2692
(dp2693
g1382
I9
sg1383
I9
sg1384
g1385
sg1386
S'fly'
p2694
sg1388
F1.0
ssS'<subj> have been misled'
p2695
(dp2696
g636
g697
sg638
I21
sg639
I21
sg640
S'have been misled'
p2697
sg642
F1.0
ssS'<subj> want hall'
p2698
(dp2699
S'type'
p2700
S'subj'
p2701
sS'freq'
p2702
I7
sS'subj_freq'
p2703
I7
sS'display'
p2704
S'want hall'
p2705
sS'prob'
p2706
F1.0
ssS'learned to play <dobj>'
p2707
(dp2708
g547
g548
sg549
I4
sg550
I4
sg551
S'learned to play'
p2709
sg553
F1.0
ss.