(dp0
S'<subj> surprised'
p1
(dp2
S'type'
p3
S'subj'
p4
sS'freq'
p5
I1
sS'subj_freq'
p6
I1
sS'display'
p7
S'surprised'
p8
sS'prob'
p9
F1.0
ssS'<subj> is made'
p10
(dp11
S'subj_freq'
p12
I1
sS'freq'
p13
I1
sS'type'
p14
S'subj'
p15
sS'display'
p16
S'is made'
p17
sS'prob'
p18
F1.0
ssS"'ve <dobj>"
p19
(dp20
S'subj_freq'
p21
I23
sS'freq'
p22
I23
sS'type'
p23
S'dobj'
p24
sS'display'
p25
S"'ve"
p26
sS'prob'
p27
F1.0
ssS'<subj> fill'
p28
(dp29
S'subj_freq'
p30
I2
sS'freq'
p31
I2
sS'type'
p32
S'subj'
p33
sS'display'
p34
S'fill'
p35
sS'prob'
p36
F1.0
ssS'changing <dobj>'
p37
(dp38
S'subj_freq'
p39
I10
sS'freq'
p40
I10
sS'type'
p41
S'dobj'
p42
sS'display'
p43
S'changing'
p44
sS'prob'
p45
F1.0
ssS'assertion that <np>'
p46
(dp47
S'type'
p48
S'np'
p49
sS'freq'
p50
I7
sS'subj_freq'
p51
I7
sS'display'
p52
S'assertion that'
p53
sS'prob'
p54
F1.0
ssS'cause <dobj>'
p55
(dp56
S'subj_freq'
p57
I9
sS'freq'
p58
I9
sS'type'
p59
S'dobj'
p60
sS'display'
p61
S'cause'
p62
sS'prob'
p63
F1.0
ssS'thinks sister of <np>'
p64
(dp65
g57
I9
sg58
I9
sg59
S'np'
p66
sg61
S'thinks sister of'
p67
sg63
F1.0
ssS'<subj> located'
p68
(dp69
S'subj_freq'
p70
I4
sS'freq'
p71
I7
sS'type'
p72
S'subj'
p73
sS'display'
p74
S'located'
p75
sS'prob'
p76
F0.5714285714285714
ssS'await <dobj>'
p77
(dp78
S'subj_freq'
p79
I2
sS'freq'
p80
I2
sS'type'
p81
S'dobj'
p82
sS'display'
p83
S'await'
p84
sS'prob'
p85
F1.0
ssS'put focus on <np>'
p86
(dp87
S'type'
p88
S'np'
p89
sS'freq'
p90
I42
sS'subj_freq'
p91
I42
sS'display'
p92
S'put focus on'
p93
sS'prob'
p94
F1.0
ssS'<subj> according to required'
p95
(dp96
S'subj_freq'
p97
I7
sS'freq'
p98
I7
sS'type'
p99
S'subj'
p100
sS'display'
p101
S'according to required'
p102
sS'prob'
p103
F1.0
ssS'claim <dobj>'
p104
(dp105
S'subj_freq'
p106
I28
sS'freq'
p107
I28
sS'type'
p108
S'dobj'
p109
sS'display'
p110
S'claim'
p111
sS'prob'
p112
F1.0
ssS"<subj> 've"
p113
(dp114
g21
I23
sg22
I23
sg23
S'subj'
p115
sg25
S"'ve"
p116
sg27
F1.0
ssS'<subj> knew'
p117
(dp118
S'type'
p119
S'subj'
p120
sS'freq'
p121
I7
sS'subj_freq'
p122
I7
sS'display'
p123
S'knew'
p124
sS'prob'
p125
F1.0
ssS'<subj> hate world'
p126
(dp127
S'type'
p128
S'subj'
p129
sS'freq'
p130
I9
sS'subj_freq'
p131
I9
sS'display'
p132
S'hate world'
p133
sS'prob'
p134
F1.0
ssS'<subj> added spirit'
p135
(dp136
S'subj_freq'
p137
I5
sS'freq'
p138
I5
sS'type'
p139
S'subj'
p140
sS'display'
p141
S'added spirit'
p142
sS'prob'
p143
F1.0
ssS'walks <dobj>'
p144
(dp145
S'type'
p146
S'dobj'
p147
sS'freq'
p148
I1
sS'subj_freq'
p149
I1
sS'display'
p150
S'walks'
p151
sS'prob'
p152
F1.0
ssS'<subj> hold'
p153
(dp154
S'subj_freq'
p155
I7
sS'freq'
p156
I7
sS'type'
p157
S'subj'
p158
sS'display'
p159
S'hold'
p160
sS'prob'
p161
F1.0
ssS'<subj> belongs'
p162
(dp163
S'type'
p164
S'subj'
p165
sS'freq'
p166
I7
sS'subj_freq'
p167
I7
sS'display'
p168
S'belongs'
p169
sS'prob'
p170
F1.0
ssS'gives <dobj>'
p171
(dp172
S'type'
p173
S'dobj'
p174
sS'freq'
p175
I10
sS'subj_freq'
p176
I10
sS'display'
p177
S'gives'
p178
sS'prob'
p179
F1.0
ssS'options for <np>'
p180
(dp181
S'subj_freq'
p182
I1
sS'freq'
p183
I1
sS'type'
p184
S'np'
p185
sS'display'
p186
S'options for'
p187
sS'prob'
p188
F1.0
ssS'<subj> knew Beijing'
p189
(dp190
g119
g120
sg121
I7
sg122
I7
sg123
S'knew Beijing'
p191
sg125
F1.0
ssS'cut <dobj>'
p192
(dp193
S'type'
p194
S'dobj'
p195
sS'freq'
p196
I4
sS'subj_freq'
p197
I4
sS'display'
p198
S'cut'
p199
sS'prob'
p200
F1.0
ssS'deserved <dobj>'
p201
(dp202
S'type'
p203
S'dobj'
p204
sS'freq'
p205
I7
sS'subj_freq'
p206
I7
sS'display'
p207
S'deserved'
p208
sS'prob'
p209
F1.0
ssS'<subj> need to told'
p210
(dp211
S'subj_freq'
p212
I19
sS'freq'
p213
I19
sS'type'
p214
S'subj'
p215
sS'display'
p216
S'need to told'
p217
sS'prob'
p218
F1.0
ssS'thinking <dobj>'
p219
(dp220
S'type'
p221
S'dobj'
p222
sS'freq'
p223
I21
sS'subj_freq'
p224
I21
sS'display'
p225
S'thinking'
p226
sS'prob'
p227
F1.0
ssS'<subj> beginning today'
p228
(dp229
S'type'
p230
S'subj'
p231
sS'freq'
p232
I1
sS'subj_freq'
p233
I1
sS'display'
p234
S'beginning today'
p235
sS'prob'
p236
F1.0
ssS'spread <dobj>'
p237
(dp238
S'subj_freq'
p239
I1
sS'freq'
p240
I1
sS'type'
p241
S'dobj'
p242
sS'display'
p243
S'spread'
p244
sS'prob'
p245
F1.0
ssS'<subj> become help'
p246
(dp247
S'subj_freq'
p248
I13
sS'freq'
p249
I13
sS'type'
p250
S'subj'
p251
sS'display'
p252
S'become help'
p253
sS'prob'
p254
F1.0
ssS'<subj> undo powers'
p255
(dp256
S'subj_freq'
p257
I21
sS'freq'
p258
I21
sS'type'
p259
S'subj'
p260
sS'display'
p261
S'undo powers'
p262
sS'prob'
p263
F1.0
ssS'<subj> excited topic'
p264
(dp265
S'subj_freq'
p266
I21
sS'freq'
p267
I21
sS'type'
p268
S'subj'
p269
sS'display'
p270
S'excited topic'
p271
sS'prob'
p272
F1.0
ssS'escape <dobj>'
p273
(dp274
S'subj_freq'
p275
I1
sS'freq'
p276
I1
sS'type'
p277
S'dobj'
p278
sS'display'
p279
S'escape'
p280
sS'prob'
p281
F1.0
ssS'<subj> turns'
p282
(dp283
S'subj_freq'
p284
I3
sS'freq'
p285
I3
sS'type'
p286
S'subj'
p287
sS'display'
p288
S'turns'
p289
sS'prob'
p290
F1.0
ssS'<subj> discussed'
p291
(dp292
S'type'
p293
S'subj'
p294
sS'freq'
p295
I21
sS'subj_freq'
p296
I21
sS'display'
p297
S'discussed'
p298
sS'prob'
p299
F1.0
ssS'<subj> complain'
p300
(dp301
S'subj_freq'
p302
I21
sS'freq'
p303
I21
sS'type'
p304
S'subj'
p305
sS'display'
p306
S'complain'
p307
sS'prob'
p308
F1.0
ssS'<subj> cut syndrome'
p309
(dp310
g194
S'subj'
p311
sg196
I4
sg197
I4
sg198
S'cut syndrome'
p312
sg200
F1.0
ssS'<subj> was amazed'
p313
(dp314
S'type'
p315
S'subj'
p316
sS'freq'
p317
I2
sS'subj_freq'
p318
I2
sS'display'
p319
S'was amazed'
p320
sS'prob'
p321
F1.0
ssS'<subj> be inaugurated'
p322
(dp323
S'subj_freq'
p324
I2
sS'freq'
p325
I2
sS'type'
p326
S'subj'
p327
sS'display'
p328
S'be inaugurated'
p329
sS'prob'
p330
F1.0
ssS'think <dobj>'
p331
(dp332
S'type'
p333
S'dobj'
p334
sS'freq'
p335
I75
sS'subj_freq'
p336
I75
sS'display'
p337
S'think'
p338
sS'prob'
p339
F1.0
ssS'to celebrate <dobj>'
p340
(dp341
S'type'
p342
S'dobj'
p343
sS'freq'
p344
I4
sS'subj_freq'
p345
I4
sS'display'
p346
S'to celebrate'
p347
sS'prob'
p348
F1.0
ssS'focused <dobj>'
p349
(dp350
S'type'
p351
S'dobj'
p352
sS'freq'
p353
I7
sS'subj_freq'
p354
I7
sS'display'
p355
S'focused'
p356
sS'prob'
p357
F1.0
ssS'<subj> belongs community'
p358
(dp359
g164
g165
sg166
I7
sg167
I7
sg168
S'belongs community'
p360
sg170
F1.0
ssS'spreading <dobj>'
p361
(dp362
S'subj_freq'
p363
I2
sS'freq'
p364
I2
sS'type'
p365
S'dobj'
p366
sS'display'
p367
S'spreading'
p368
sS'prob'
p369
F1.0
ssS'blessed <dobj>'
p370
(dp371
S'subj_freq'
p372
I1
sS'freq'
p373
I1
sS'type'
p374
S'dobj'
p375
sS'display'
p376
S'blessed'
p377
sS'prob'
p378
F1.0
ssS'sharing <dobj>'
p379
(dp380
S'type'
p381
S'dobj'
p382
sS'freq'
p383
I10
sS'subj_freq'
p384
I10
sS'display'
p385
S'sharing'
p386
sS'prob'
p387
F1.0
ssS'explore <dobj>'
p388
(dp389
S'subj_freq'
p390
I2
sS'freq'
p391
I2
sS'type'
p392
S'dobj'
p393
sS'display'
p394
S'explore'
p395
sS'prob'
p396
F1.0
ssS'<subj> creating universe'
p397
(dp398
S'subj_freq'
p399
I4
sS'freq'
p400
I4
sS'type'
p401
S'subj'
p402
sS'display'
p403
S'creating universe'
p404
sS'prob'
p405
F1.0
ssS'<subj> seems'
p406
(dp407
S'type'
p408
S'subj'
p409
sS'freq'
p410
I29
sS'subj_freq'
p411
I29
sS'display'
p412
S'seems'
p413
sS'prob'
p414
F1.0
ssS'<subj> provides Forest'
p415
(dp416
S'type'
p417
S'subj'
p418
sS'freq'
p419
I1
sS'subj_freq'
p420
I1
sS'display'
p421
S'provides Forest'
p422
sS'prob'
p423
F1.0
ssS'<subj> provides'
p424
(dp425
g417
g418
sg419
I2
sg420
I2
sg421
S'provides'
p426
sg423
F1.0
ssS'attributed <dobj>'
p427
(dp428
S'type'
p429
S'dobj'
p430
sS'freq'
p431
I10
sS'subj_freq'
p432
I10
sS'display'
p433
S'attributed'
p434
sS'prob'
p435
F1.0
ssS'according <dobj>'
p436
(dp437
g97
I7
sg98
I7
sg99
S'dobj'
p438
sg101
S'according'
p439
sg103
F1.0
ssS'hate <dobj>'
p440
(dp441
g128
S'dobj'
p442
sg130
I9
sg131
I9
sg132
S'hate'
p443
sg134
F1.0
ssS"<subj> 's place"
p444
(dp445
S'type'
p446
S'subj'
p447
sS'freq'
p448
I1
sS'subj_freq'
p449
I1
sS'display'
p450
S"'s place"
p451
sS'prob'
p452
F1.0
ssS'to fight <dobj>'
p453
(dp454
S'type'
p455
S'dobj'
p456
sS'freq'
p457
I7
sS'subj_freq'
p458
I7
sS'display'
p459
S'to fight'
p460
sS'prob'
p461
F1.0
ssS'<subj> changing education'
p462
(dp463
g39
I9
sg40
I9
sg41
S'subj'
p464
sg43
S'changing education'
p465
sg45
F1.0
ssS'hotel in <np>'
p466
(dp467
S'type'
p468
S'np'
p469
sS'freq'
p470
I4
sS'subj_freq'
p471
I4
sS'display'
p472
S'hotel in'
p473
sS'prob'
p474
F1.0
ssS'<subj> connected'
p475
(dp476
g106
I25
sg107
I25
sg108
S'subj'
p477
sg110
S'connected'
p478
sg112
F1.0
ssS'<subj> needed'
p479
(dp480
S'type'
p481
S'subj'
p482
sS'freq'
p483
I28
sS'subj_freq'
p484
I28
sS'display'
p485
S'needed'
p486
sS'prob'
p487
F1.0
ssS'stay <dobj>'
p488
(dp489
S'type'
p490
S'dobj'
p491
sS'freq'
p492
I4
sS'subj_freq'
p493
I4
sS'display'
p494
S'stay'
p495
sS'prob'
p496
F1.0
ssS'<subj> needed to teach'
p497
(dp498
g481
g482
sg483
I21
sg484
I21
sg485
S'needed to teach'
p499
sg487
F1.0
ssS'<subj> created museum'
p500
(dp501
S'type'
p502
S'subj'
p503
sS'freq'
p504
I4
sS'subj_freq'
p505
I0
sS'display'
p506
S'created museum'
p507
sS'prob'
p508
F0.0
ssS'<subj> celebrate New'
p509
(dp510
S'type'
p511
S'subj'
p512
sS'freq'
p513
I1
sS'subj_freq'
p514
I1
sS'display'
p515
S'celebrate New'
p516
sS'prob'
p517
F1.0
ssS'knew <dobj>'
p518
(dp519
g119
S'dobj'
p520
sg121
I7
sg122
I7
sg123
S'knew'
p521
sg125
F1.0
ssS'<subj> get input'
p522
(dp523
S'subj_freq'
p524
I9
sS'freq'
p525
I9
sS'type'
p526
S'subj'
p527
sS'display'
p528
S'get input'
p529
sS'prob'
p530
F1.0
ssS'<subj> attributed'
p531
(dp532
g429
S'subj'
p533
sg431
I10
sg432
I10
sg433
S'attributed'
p534
sg435
F1.0
ssS'<subj> solving'
p535
(dp536
S'subj_freq'
p537
I21
sS'freq'
p538
I21
sS'type'
p539
S'subj'
p540
sS'display'
p541
S'solving'
p542
sS'prob'
p543
F1.0
ssS'<subj> capture sky'
p544
(dp545
S'type'
p546
S'subj'
p547
sS'freq'
p548
I2
sS'subj_freq'
p549
I2
sS'display'
p550
S'capture sky'
p551
sS'prob'
p552
F1.0
ssS'<subj> does'
p553
(dp554
S'subj_freq'
p555
I47
sS'freq'
p556
I47
sS'type'
p557
S'subj'
p558
sS'display'
p559
S'does'
p560
sS'prob'
p561
F1.0
ssS'make <dobj>'
p562
(dp563
S'type'
p564
S'dobj'
p565
sS'freq'
p566
I43
sS'subj_freq'
p567
I43
sS'display'
p568
S'make'
p569
sS'prob'
p570
F1.0
ssS"'s <dobj>"
p571
(dp572
S'subj_freq'
p573
I251
sS'freq'
p574
I251
sS'type'
p575
S'dobj'
p576
sS'display'
p577
S"'s"
p578
sS'prob'
p579
F1.0
ssS'<subj> exhibiting'
p580
(dp581
S'type'
p582
S'subj'
p583
sS'freq'
p584
I1
sS'subj_freq'
p585
I0
sS'display'
p586
S'exhibiting'
p587
sS'prob'
p588
F0.0
ssS'<subj> according'
p589
(dp590
g97
I7
sg98
I7
sg99
g100
sg101
S'according'
p591
sg103
F1.0
ssS'<subj> be unveiled'
p592
(dp593
S'subj_freq'
p594
I9
sS'freq'
p595
I9
sS'type'
p596
S'subj'
p597
sS'display'
p598
S'be unveiled'
p599
sS'prob'
p600
F1.0
ssS'<subj> has be solving'
p601
(dp602
g537
I21
sg538
I21
sg539
g540
sg541
S'has be solving'
p603
sg543
F1.0
ssS'sounds <dobj>'
p604
(dp605
S'type'
p606
S'dobj'
p607
sS'freq'
p608
I22
sS'subj_freq'
p609
I22
sS'display'
p610
S'sounds'
p611
sS'prob'
p612
F1.0
ssS'<subj> carved'
p613
(dp614
S'subj_freq'
p615
I0
sS'freq'
p616
I1
sS'type'
p617
S'subj'
p618
sS'display'
p619
S'carved'
p620
sS'prob'
p621
F0.0
ssS'<subj> learn'
p622
(dp623
S'type'
p624
S'subj'
p625
sS'freq'
p626
I9
sS'subj_freq'
p627
I9
sS'display'
p628
S'learn'
p629
sS'prob'
p630
F1.0
ssS'<subj> needed education'
p631
(dp632
g481
g482
sg483
I21
sg484
I21
sg485
S'needed education'
p633
sg487
F1.0
ssS'<subj> is dedicated'
p634
(dp635
S'type'
p636
S'subj'
p637
sS'freq'
p638
I3
sS'subj_freq'
p639
I3
sS'display'
p640
S'is dedicated'
p641
sS'prob'
p642
F1.0
ssS'<subj> going'
p643
(dp644
g351
S'subj'
p645
sg353
I12
sg354
I12
sg355
S'going'
p646
sg357
F1.0
ssS'<subj> like'
p647
(dp648
S'subj_freq'
p649
I10
sS'freq'
p650
I10
sS'type'
p651
S'subj'
p652
sS'display'
p653
S'like'
p654
sS'prob'
p655
F1.0
ssS'celebrated <dobj>'
p656
(dp657
S'type'
p658
S'dobj'
p659
sS'freq'
p660
I7
sS'subj_freq'
p661
I7
sS'display'
p662
S'celebrated'
p663
sS'prob'
p664
F1.0
ssS'<subj> becoming'
p665
(dp666
S'subj_freq'
p667
I1
sS'freq'
p668
I1
sS'type'
p669
S'subj'
p670
sS'display'
p671
S'becoming'
p672
sS'prob'
p673
F1.0
ssS'displaying <dobj>'
p674
(dp675
S'type'
p676
S'dobj'
p677
sS'freq'
p678
I2
sS'subj_freq'
p679
I2
sS'display'
p680
S'displaying'
p681
sS'prob'
p682
F1.0
ssS'<subj> dominating'
p683
(dp684
g106
I21
sg107
I21
sg108
g477
sg110
S'dominating'
p685
sg112
F1.0
ssS'<subj> provides opportunity'
p686
(dp687
g417
g418
sg419
I1
sg420
I1
sg421
S'provides opportunity'
p688
sg423
F1.0
ssS'<subj> fell'
p689
(dp690
S'type'
p691
S'subj'
p692
sS'freq'
p693
I1
sS'subj_freq'
p694
I1
sS'display'
p695
S'fell'
p696
sS'prob'
p697
F1.0
ssS'<subj> gives'
p698
(dp699
g173
S'subj'
p700
sg175
I10
sg176
I10
sg177
S'gives'
p701
sg179
F1.0
ssS'presented <dobj>'
p702
(dp703
S'type'
p704
S'dobj'
p705
sS'freq'
p706
I9
sS'subj_freq'
p707
I9
sS'display'
p708
S'presented'
p709
sS'prob'
p710
F1.0
ssS'<subj> quit'
p711
(dp712
S'subj_freq'
p713
I4
sS'freq'
p714
I4
sS'type'
p715
S'subj'
p716
sS'display'
p717
S'quit'
p718
sS'prob'
p719
F1.0
ssS'<subj> given'
p720
(dp721
S'type'
p722
S'subj'
p723
sS'freq'
p724
I10
sS'subj_freq'
p725
I10
sS'display'
p726
S'given'
p727
sS'prob'
p728
F1.0
ssS'<subj> saw Education'
p729
(dp730
S'type'
p731
S'subj'
p732
sS'freq'
p733
I7
sS'subj_freq'
p734
I7
sS'display'
p735
S'saw Education'
p736
sS'prob'
p737
F1.0
ssS'<subj> solving energy'
p738
(dp739
g537
I21
sg538
I21
sg539
g540
sg541
S'solving energy'
p740
sg543
F1.0
ssS'<subj> understand'
p741
(dp742
S'type'
p743
S'subj'
p744
sS'freq'
p745
I7
sS'subj_freq'
p746
I7
sS'display'
p747
S'understand'
p748
sS'prob'
p749
F1.0
ssS'<subj> has been places'
p750
(dp751
S'type'
p752
S'subj'
p753
sS'freq'
p754
I4
sS'subj_freq'
p755
I4
sS'display'
p756
S'has been places'
p757
sS'prob'
p758
F1.0
ssS'<subj> defends'
p759
(dp760
S'subj_freq'
p761
I9
sS'freq'
p762
I9
sS'type'
p763
S'subj'
p764
sS'display'
p765
S'defends'
p766
sS'prob'
p767
F1.0
ssS'knowing <dobj>'
p768
(dp769
S'subj_freq'
p770
I1
sS'freq'
p771
I1
sS'type'
p772
S'dobj'
p773
sS'display'
p774
S'knowing'
p775
sS'prob'
p776
F1.0
ssS'<subj> surrounded'
p777
(dp778
S'subj_freq'
p779
I2
sS'freq'
p780
I2
sS'type'
p781
S'subj'
p782
sS'display'
p783
S'surrounded'
p784
sS'prob'
p785
F1.0
ssS'<subj> using'
p786
(dp787
S'subj_freq'
p788
I0
sS'freq'
p789
I2
sS'type'
p790
S'subj'
p791
sS'display'
p792
S'using'
p793
sS'prob'
p794
F0.0
ssS'<subj> shining sand'
p795
(dp796
g146
S'subj'
p797
sg148
I1
sg149
I1
sg150
S'shining sand'
p798
sg152
F1.0
ssS'<subj> poses'
p799
(dp800
S'subj_freq'
p801
I9
sS'freq'
p802
I9
sS'type'
p803
S'subj'
p804
sS'display'
p805
S'poses'
p806
sS'prob'
p807
F1.0
ssS'poses <dobj>'
p808
(dp809
g801
I9
sg802
I9
sg803
S'dobj'
p810
sg805
S'poses'
p811
sg807
F1.0
ssS'allowing <dobj>'
p812
(dp813
S'type'
p814
S'dobj'
p815
sS'freq'
p816
I1
sS'subj_freq'
p817
I1
sS'display'
p818
S'allowing'
p819
sS'prob'
p820
F1.0
ssS'<subj> demonstrate'
p821
(dp822
S'subj_freq'
p823
I2
sS'freq'
p824
I2
sS'type'
p825
S'subj'
p826
sS'display'
p827
S'demonstrate'
p828
sS'prob'
p829
F1.0
ssS'<subj> learn development'
p830
(dp831
g624
g625
sg626
I7
sg627
I7
sg628
S'learn development'
p832
sg630
F1.0
ssS'<subj> has years'
p833
(dp834
g212
I19
sg213
I19
sg214
g215
sg216
S'has years'
p835
sg218
F1.0
ssS'prevent <dobj>'
p836
(dp837
S'type'
p838
S'dobj'
p839
sS'freq'
p840
I21
sS'subj_freq'
p841
I21
sS'display'
p842
S'prevent'
p843
sS'prob'
p844
F1.0
ssS'<subj> converted children'
p845
(dp846
S'subj_freq'
p847
I0
sS'freq'
p848
I5
sS'type'
p849
S'subj'
p850
sS'display'
p851
S'converted children'
p852
sS'prob'
p853
F0.0
ssS'<subj> fall'
p854
(dp855
S'type'
p856
S'subj'
p857
sS'freq'
p858
I1
sS'subj_freq'
p859
I1
sS'display'
p860
S'fall'
p861
sS'prob'
p862
F1.0
ssS'<subj> copied'
p863
(dp864
S'subj_freq'
p865
I21
sS'freq'
p866
I21
sS'type'
p867
S'subj'
p868
sS'display'
p869
S'copied'
p870
sS'prob'
p871
F1.0
ssS"<subj> 'm"
p872
(dp873
S'subj_freq'
p874
I77
sS'freq'
p875
I77
sS'type'
p876
S'subj'
p877
sS'display'
p878
S"'m"
p879
sS'prob'
p880
F1.0
ssS'belongs to do <dobj>'
p881
(dp882
g164
S'dobj'
p883
sg166
I7
sg167
I7
sg168
S'belongs to do'
p884
sg170
F1.0
ssS'<subj> raise showcase'
p885
(dp886
S'type'
p887
S'subj'
p888
sS'freq'
p889
I4
sS'subj_freq'
p890
I4
sS'display'
p891
S'raise showcase'
p892
sS'prob'
p893
F1.0
ssS'<subj> waste reason'
p894
(dp895
S'type'
p896
S'subj'
p897
sS'freq'
p898
I6
sS'subj_freq'
p899
I6
sS'display'
p900
S'waste reason'
p901
sS'prob'
p902
F1.0
ssS'complain <dobj>'
p903
(dp904
g302
I21
sg303
I21
sg304
S'dobj'
p905
sg306
S'complain'
p906
sg308
F1.0
ssS'booked <dobj>'
p907
(dp908
S'type'
p909
S'dobj'
p910
sS'freq'
p911
I1
sS'subj_freq'
p912
I0
sS'display'
p913
S'booked'
p914
sS'prob'
p915
F0.0
ssS'passion by <np>'
p916
(dp917
S'subj_freq'
p918
I21
sS'freq'
p919
I21
sS'type'
p920
S'np'
p921
sS'display'
p922
S'passion by'
p923
sS'prob'
p924
F1.0
ssS'take <dobj>'
p925
(dp926
S'type'
p927
S'dobj'
p928
sS'freq'
p929
I13
sS'subj_freq'
p930
I13
sS'display'
p931
S'take'
p932
sS'prob'
p933
F1.0
ssS'<subj> many'
p934
(dp935
S'subj_freq'
p936
I1
sS'freq'
p937
I1
sS'type'
p938
S'subj'
p939
sS'display'
p940
S'many'
p941
sS'prob'
p942
F1.0
ssS"<subj> 're part"
p943
(dp944
g106
I21
sg107
I21
sg108
g477
sg110
S"'re part"
p945
sg112
F1.0
ssS'<subj> done environment'
p946
(dp947
S'subj_freq'
p948
I3
sS'freq'
p949
I3
sS'type'
p950
S'subj'
p951
sS'display'
p952
S'done environment'
p953
sS'prob'
p954
F1.0
ssS'is made up <np>'
p955
(dp956
g12
I1
sg13
I1
sg14
S'np'
p957
sg16
S'is made up'
p958
sg18
F1.0
ssS'<subj> have date'
p959
(dp960
S'subj_freq'
p961
I1
sS'freq'
p962
I1
sS'type'
p963
S'subj'
p964
sS'display'
p965
S'have date'
p966
sS'prob'
p967
F1.0
ssS'walking <dobj>'
p968
(dp969
S'type'
p970
S'dobj'
p971
sS'freq'
p972
I4
sS'subj_freq'
p973
I4
sS'display'
p974
S'walking'
p975
sS'prob'
p976
F1.0
ssS'<subj> fell image'
p977
(dp978
g691
g692
sg693
I1
sg694
I1
sg695
S'fell image'
p979
sg697
F1.0
ssS'to develop <dobj>'
p980
(dp981
g39
I9
sg40
I9
sg41
g42
sg43
S'to develop'
p982
sg45
F1.0
ssS'<subj> cheat sister'
p983
(dp984
g57
I9
sg58
I9
sg59
S'subj'
p985
sg61
S'cheat sister'
p986
sg63
F1.0
ssS'holidays in <np>'
p987
(dp988
g779
I2
sg780
I2
sg781
S'np'
p989
sg783
S'holidays in'
p990
sg785
F1.0
ssS'going to held <dobj>'
p991
(dp992
S'type'
p993
S'dobj'
p994
sS'freq'
p995
I1
sS'subj_freq'
p996
I1
sS'display'
p997
S'going to held'
p998
sS'prob'
p999
F1.0
ssS'found <dobj>'
p1000
(dp1001
S'subj_freq'
p1002
I7
sS'freq'
p1003
I7
sS'type'
p1004
S'dobj'
p1005
sS'display'
p1006
S'found'
p1007
sS'prob'
p1008
F1.0
ssS'<subj> need'
p1009
(dp1010
g408
g409
sg410
I95
sg411
I95
sg412
S'need'
p1011
sg414
F1.0
ssS'many <dobj>'
p1012
(dp1013
g936
I1
sg937
I1
sg938
S'dobj'
p1014
sg940
S'many'
p1015
sg942
F1.0
ssS'<subj> going to held'
p1016
(dp1017
g993
S'subj'
p1018
sg995
I1
sg996
I1
sg997
S'going to held'
p1019
sg999
F1.0
ssS'<subj> waste'
p1020
(dp1021
g896
g897
sg898
I6
sg899
I6
sg900
S'waste'
p1022
sg902
F1.0
ssS'lives from <np>'
p1023
(dp1024
S'type'
p1025
S'np'
p1026
sS'freq'
p1027
I1
sS'subj_freq'
p1028
I1
sS'display'
p1029
S'lives from'
p1030
sS'prob'
p1031
F1.0
ssS'to spend <dobj>'
p1032
(dp1033
g779
I2
sg780
I3
sg781
S'dobj'
p1034
sg783
S'to spend'
p1035
sg785
F0.6666666666666666
ssS'<subj> do things'
p1036
(dp1037
S'type'
p1038
S'subj'
p1039
sS'freq'
p1040
I21
sS'subj_freq'
p1041
I21
sS'display'
p1042
S'do things'
p1043
sS'prob'
p1044
F1.0
ssS'<subj> made offerings'
p1045
(dp1046
S'type'
p1047
S'subj'
p1048
sS'freq'
p1049
I1
sS'subj_freq'
p1050
I1
sS'display'
p1051
S'made offerings'
p1052
sS'prob'
p1053
F1.0
ssS'is located in <np>'
p1054
(dp1055
g70
I0
sg71
I3
sg72
S'np'
p1056
sg74
S'is located in'
p1057
sg76
F0.0
ssS'<subj> seeing'
p1058
(dp1059
S'subj_freq'
p1060
I7
sS'freq'
p1061
I7
sS'type'
p1062
S'subj'
p1063
sS'display'
p1064
S'seeing'
p1065
sS'prob'
p1066
F1.0
ssS'<subj> been attributed'
p1067
(dp1068
g948
I3
sg949
I3
sg950
g951
sg952
S'been attributed'
p1069
sg954
F1.0
ssS'<subj> led'
p1070
(dp1071
g761
I9
sg762
I9
sg763
g764
sg765
S'led'
p1072
sg767
F1.0
ssS'<subj> do'
p1073
(dp1074
S'type'
p1075
S'subj'
p1076
sS'freq'
p1077
I254
sS'subj_freq'
p1078
I254
sS'display'
p1079
S'do'
p1080
sS'prob'
p1081
F1.0
ssS'<subj> poses absence'
p1082
(dp1083
g801
I9
sg802
I9
sg803
g804
sg805
S'poses absence'
p1084
sg807
F1.0
ssS'<subj> attend'
p1085
(dp1086
S'type'
p1087
S'subj'
p1088
sS'freq'
p1089
I2
sS'subj_freq'
p1090
I2
sS'display'
p1091
S'attend'
p1092
sS'prob'
p1093
F1.0
ssS'<subj> used Daniel'
p1094
(dp1095
g1002
I7
sg1003
I7
sg1004
S'subj'
p1096
sg1006
S'used Daniel'
p1097
sg1008
F1.0
ssS'lost <dobj>'
p1098
(dp1099
S'subj_freq'
p1100
I55
sS'freq'
p1101
I55
sS'type'
p1102
S'dobj'
p1103
sS'display'
p1104
S'lost'
p1105
sS'prob'
p1106
F1.0
ssS'celebrating <dobj>'
p1107
(dp1108
S'type'
p1109
S'dobj'
p1110
sS'freq'
p1111
I2
sS'subj_freq'
p1112
I2
sS'display'
p1113
S'celebrating'
p1114
sS'prob'
p1115
F1.0
ssS'<subj> become'
p1116
(dp1117
g88
S'subj'
p1118
sg90
I65
sg91
I65
sg92
S'become'
p1119
sg94
F1.0
ssS'<subj> reduced fish'
p1120
(dp1121
g948
I3
sg949
I3
sg950
g951
sg952
S'reduced fish'
p1122
sg954
F1.0
ssS'to escape <dobj>'
p1123
(dp1124
g275
I1
sg276
I1
sg277
g278
sg279
S'to escape'
p1125
sg281
F1.0
ssS'<subj> meets land'
p1126
(dp1127
S'type'
p1128
S'subj'
p1129
sS'freq'
p1130
I1
sS'subj_freq'
p1131
I1
sS'display'
p1132
S'meets land'
p1133
sS'prob'
p1134
F1.0
ssS'<subj> send nature'
p1135
(dp1136
S'subj_freq'
p1137
I1
sS'freq'
p1138
I1
sS'type'
p1139
S'subj'
p1140
sS'display'
p1141
S'send nature'
p1142
sS'prob'
p1143
F1.0
ssS'<subj> threw'
p1144
(dp1145
S'type'
p1146
S'subj'
p1147
sS'freq'
p1148
I7
sS'subj_freq'
p1149
I7
sS'display'
p1150
S'threw'
p1151
sS'prob'
p1152
F1.0
ssS'<subj> took'
p1153
(dp1154
S'type'
p1155
S'subj'
p1156
sS'freq'
p1157
I1
sS'subj_freq'
p1158
I0
sS'display'
p1159
S'took'
p1160
sS'prob'
p1161
F0.0
ssS'<subj> helps paralysis'
p1162
(dp1163
g524
I9
sg525
I9
sg526
g527
sg528
S'helps paralysis'
p1164
sg530
F1.0
ssS'located <dobj>'
p1165
(dp1166
g70
I4
sg71
I7
sg72
S'dobj'
p1167
sg74
S'located'
p1168
sg76
F0.5714285714285714
ssS'to misled <dobj>'
p1169
(dp1170
S'type'
p1171
S'dobj'
p1172
sS'freq'
p1173
I21
sS'subj_freq'
p1174
I21
sS'display'
p1175
S'to misled'
p1176
sS'prob'
p1177
F1.0
ssS'dwellers of <np>'
p1178
(dp1179
S'type'
p1180
S'np'
p1181
sS'freq'
p1182
I1
sS'subj_freq'
p1183
I1
sS'display'
p1184
S'dwellers of'
p1185
sS'prob'
p1186
F1.0
ssS'<subj> gearing'
p1187
(dp1188
S'type'
p1189
S'subj'
p1190
sS'freq'
p1191
I1
sS'subj_freq'
p1192
I0
sS'display'
p1193
S'gearing'
p1194
sS'prob'
p1195
F0.0
ssS'belongs <dobj>'
p1196
(dp1197
g164
g883
sg166
I7
sg167
I7
sg168
S'belongs'
p1198
sg170
F1.0
ssS'<subj> beginning'
p1199
(dp1200
g909
S'subj'
p1201
sg911
I3
sg912
I2
sg913
S'beginning'
p1202
sg915
F0.6666666666666666
ssS'<subj> be interpreted'
p1203
(dp1204
S'type'
p1205
S'subj'
p1206
sS'freq'
p1207
I7
sS'subj_freq'
p1208
I7
sS'display'
p1209
S'be interpreted'
p1210
sS'prob'
p1211
F1.0
ssS'excited <dobj>'
p1212
(dp1213
g266
I21
sg267
I21
sg268
S'dobj'
p1214
sg270
S'excited'
p1215
sg272
F1.0
ssS'<subj> converted'
p1216
(dp1217
g847
I4
sg848
I9
sg849
g850
sg851
S'converted'
p1218
sg853
F0.4444444444444444
ssS'analyze <dobj>'
p1219
(dp1220
g564
g565
sg566
I19
sg567
I19
sg568
S'analyze'
p1221
sg570
F1.0
ssS'<subj> need to make'
p1222
(dp1223
g564
S'subj'
p1224
sg566
I19
sg567
I19
sg568
S'need to make'
p1225
sg570
F1.0
ssS'<subj> are presented'
p1226
(dp1227
g704
S'subj'
p1228
sg706
I9
sg707
I9
sg708
S'are presented'
p1229
sg710
F1.0
ssS'takes <dobj>'
p1230
(dp1231
S'subj_freq'
p1232
I0
sS'freq'
p1233
I2
sS'type'
p1234
S'dobj'
p1235
sS'display'
p1236
S'takes'
p1237
sS'prob'
p1238
F0.0
ssS'<subj> called'
p1239
(dp1240
S'subj_freq'
p1241
I3
sS'freq'
p1242
I3
sS'type'
p1243
S'subj'
p1244
sS'display'
p1245
S'called'
p1246
sS'prob'
p1247
F1.0
ssS'<subj> buy'
p1248
(dp1249
g48
S'subj'
p1250
sg50
I7
sg51
I7
sg52
S'buy'
p1251
sg54
F1.0
ssS'<subj> watching'
p1252
(dp1253
g106
I29
sg107
I29
sg108
g477
sg110
S'watching'
p1254
sg112
F1.0
ssV<subj> forces
p1255
(dp1256
S'type'
p1257
S'subj'
p1258
sS'freq'
p1259
I2
sS'subj_freq'
p1260
I2
sS'display'
p1261
Vforces
p1262
sS'prob'
p1263
F1.0
ssS'known <dobj>'
p1264
(dp1265
S'subj_freq'
p1266
I6
sS'freq'
p1267
I7
sS'type'
p1268
S'dobj'
p1269
sS'display'
p1270
S'known'
p1271
sS'prob'
p1272
F0.8571428571428571
ssS'solving <dobj>'
p1273
(dp1274
g537
I21
sg538
I21
sg539
S'dobj'
p1275
sg541
S'solving'
p1276
sg543
F1.0
ssS'work by <np>'
p1277
(dp1278
S'type'
p1279
S'np'
p1280
sS'freq'
p1281
I1
sS'subj_freq'
p1282
I0
sS'display'
p1283
S'work by'
p1284
sS'prob'
p1285
F0.0
ssS'<subj> saves'
p1286
(dp1287
S'subj_freq'
p1288
I7
sS'freq'
p1289
I7
sS'type'
p1290
S'subj'
p1291
sS'display'
p1292
S'saves'
p1293
sS'prob'
p1294
F1.0
ssS'to explore <dobj>'
p1295
(dp1296
g390
I1
sg391
I1
sg392
g393
sg394
S'to explore'
p1297
sg396
F1.0
ssS'amazed <dobj>'
p1298
(dp1299
g315
S'dobj'
p1300
sg317
I2
sg318
I2
sg319
S'amazed'
p1301
sg321
F1.0
ssS'spend <dobj>'
p1302
(dp1303
g779
I4
sg780
I5
sg781
g1034
sg783
S'spend'
p1304
sg785
F0.8
ssS'to bathing <dobj>'
p1305
(dp1306
S'subj_freq'
p1307
I0
sS'freq'
p1308
I1
sS'type'
p1309
S'dobj'
p1310
sS'display'
p1311
S'to bathing'
p1312
sS'prob'
p1313
F0.0
ssS'<subj> have claim'
p1314
(dp1315
g1171
S'subj'
p1316
sg1173
I21
sg1174
I21
sg1175
S'have claim'
p1317
sg1177
F1.0
ssS'<subj> exhibits'
p1318
(dp1319
S'subj_freq'
p1320
I1
sS'freq'
p1321
I1
sS'type'
p1322
S'subj'
p1323
sS'display'
p1324
S'exhibits'
p1325
sS'prob'
p1326
F1.0
ssS'smitten <dobj>'
p1327
(dp1328
S'type'
p1329
S'dobj'
p1330
sS'freq'
p1331
I1
sS'subj_freq'
p1332
I1
sS'display'
p1333
S'smitten'
p1334
sS'prob'
p1335
F1.0
ssS'according to required <dobj>'
p1336
(dp1337
g97
I7
sg98
I7
sg99
g438
sg101
S'according to required'
p1338
sg103
F1.0
ssS'<subj> bring joy'
p1339
(dp1340
S'subj_freq'
p1341
I1
sS'freq'
p1342
I1
sS'type'
p1343
S'subj'
p1344
sS'display'
p1345
S'bring joy'
p1346
sS'prob'
p1347
F1.0
ssS'<subj> made Gujarat'
p1348
(dp1349
g1047
g1048
sg1049
I1
sg1050
I1
sg1051
S'made Gujarat'
p1350
sg1053
F1.0
ssS'send <dobj>'
p1351
(dp1352
g1137
I1
sg1138
I1
sg1139
S'dobj'
p1353
sg1141
S'send'
p1354
sg1143
F1.0
ssS'get <dobj>'
p1355
(dp1356
g524
I27
sg525
I31
sg526
S'dobj'
p1357
sg528
S'get'
p1358
sg530
F0.8709677419354839
ssS'live <dobj>'
p1359
(dp1360
g164
g883
sg166
I16
sg167
I16
sg168
S'live'
p1361
sg170
F1.0
ssS'says <dobj>'
p1362
(dp1363
g57
I9
sg58
I9
sg59
g60
sg61
S'says'
p1364
sg63
F1.0
ssS'stand <dobj>'
p1365
(dp1366
g333
g334
sg335
I22
sg336
I22
sg337
S'stand'
p1367
sg339
F1.0
ssS'<subj> sharing'
p1368
(dp1369
g381
S'subj'
p1370
sg383
I10
sg384
I10
sg385
S'sharing'
p1371
sg387
F1.0
ssS'capture <dobj>'
p1372
(dp1373
S'subj_freq'
p1374
I4
sS'freq'
p1375
I4
sS'type'
p1376
S'dobj'
p1377
sS'display'
p1378
S'capture'
p1379
sS'prob'
p1380
F1.0
ssS'<subj> hate'
p1381
(dp1382
g128
g129
sg130
I9
sg131
I9
sg132
S'hate'
p1383
sg134
F1.0
ssS'fail to realize <dobj>'
p1384
(dp1385
S'subj_freq'
p1386
I27
sS'freq'
p1387
I27
sS'type'
p1388
S'dobj'
p1389
sS'display'
p1390
S'fail to realize'
p1391
sS'prob'
p1392
F1.0
ssS"<subj> 's Carnival"
p1393
(dp1394
S'subj_freq'
p1395
I1
sS'freq'
p1396
I1
sS'type'
p1397
S'subj'
p1398
sS'display'
p1399
S"'s Carnival"
p1400
sS'prob'
p1401
F1.0
ssS'originated <dobj>'
p1402
(dp1403
g3
S'dobj'
p1404
sg5
I1
sg6
I1
sg7
S'originated'
p1405
sg9
F1.0
ssS'making war on <np>'
p1406
(dp1407
S'type'
p1408
S'np'
p1409
sS'freq'
p1410
I21
sS'subj_freq'
p1411
I21
sS'display'
p1412
S'making war on'
p1413
sS'prob'
p1414
F1.0
ssS'friend of <np>'
p1415
(dp1416
g636
S'np'
p1417
sg638
I2
sg639
I2
sg640
S'friend of'
p1418
sg642
F1.0
ssS'getting <dobj>'
p1419
(dp1420
S'type'
p1421
S'dobj'
p1422
sS'freq'
p1423
I8
sS'subj_freq'
p1424
I8
sS'display'
p1425
S'getting'
p1426
sS'prob'
p1427
F1.0
ssS'to taking <dobj>'
p1428
(dp1429
S'subj_freq'
p1430
I2
sS'freq'
p1431
I2
sS'type'
p1432
S'dobj'
p1433
sS'display'
p1434
S'to taking'
p1435
sS'prob'
p1436
F1.0
ssS'to invite <dobj>'
p1437
(dp1438
S'type'
p1439
S'dobj'
p1440
sS'freq'
p1441
I1
sS'subj_freq'
p1442
I1
sS'display'
p1443
S'to invite'
p1444
sS'prob'
p1445
F1.0
ssS'<subj> helps understanding'
p1446
(dp1447
S'type'
p1448
S'subj'
p1449
sS'freq'
p1450
I2
sS'subj_freq'
p1451
I2
sS'display'
p1452
S'helps understanding'
p1453
sS'prob'
p1454
F1.0
ssS'look <dobj>'
p1455
(dp1456
S'subj_freq'
p1457
I4
sS'freq'
p1458
I4
sS'type'
p1459
S'dobj'
p1460
sS'display'
p1461
S'look'
p1462
sS'prob'
p1463
F1.0
ssS'<subj> lies middle'
p1464
(dp1465
g1060
I7
sg1061
I7
sg1062
g1063
sg1064
S'lies middle'
p1466
sg1066
F1.0
ssS"<subj> 're triumph"
p1467
(dp1468
S'subj_freq'
p1469
I7
sS'freq'
p1470
I7
sS'type'
p1471
S'subj'
p1472
sS'display'
p1473
S"'re triumph"
p1474
sS'prob'
p1475
F1.0
ssS'done <dobj>'
p1476
(dp1477
g1469
I11
sg1470
I11
sg1471
S'dobj'
p1478
sg1473
S'done'
p1479
sg1475
F1.0
ssS'was inaugurated by <np>'
p1480
(dp1481
S'type'
p1482
S'np'
p1483
sS'freq'
p1484
I2
sS'subj_freq'
p1485
I0
sS'display'
p1486
S'was inaugurated by'
p1487
sS'prob'
p1488
F0.0
ssS'<subj> claim increase'
p1489
(dp1490
S'type'
p1491
S'subj'
p1492
sS'freq'
p1493
I7
sS'subj_freq'
p1494
I7
sS'display'
p1495
S'claim increase'
p1496
sS'prob'
p1497
F1.0
ssS'<subj> changed'
p1498
(dp1499
S'subj_freq'
p1500
I7
sS'freq'
p1501
I7
sS'type'
p1502
S'subj'
p1503
sS'display'
p1504
S'changed'
p1505
sS'prob'
p1506
F1.0
ssS'enter <dobj>'
p1507
(dp1508
g468
S'dobj'
p1509
sg470
I4
sg471
I4
sg472
S'enter'
p1510
sg474
F1.0
ssS'<subj> was happened'
p1511
(dp1512
g57
I9
sg58
I9
sg59
g985
sg61
S'was happened'
p1513
sg63
F1.0
ssS'does <dobj>'
p1514
(dp1515
g555
I47
sg556
I47
sg557
S'dobj'
p1516
sg559
S'does'
p1517
sg561
F1.0
ssS'<subj> making war'
p1518
(dp1519
g1408
S'subj'
p1520
sg1410
I21
sg1411
I21
sg1412
S'making war'
p1521
sg1414
F1.0
ssS'<subj> become incomprehensible'
p1522
(dp1523
g88
g1118
sg90
I42
sg91
I42
sg92
S'become incomprehensible'
p1524
sg94
F1.0
ssS'<subj> helps'
p1525
(dp1526
g524
I11
sg525
I11
sg526
g527
sg528
S'helps'
p1527
sg530
F1.0
ssS'being <dobj>'
p1528
(dp1529
S'type'
p1530
S'dobj'
p1531
sS'freq'
p1532
I21
sS'subj_freq'
p1533
I21
sS'display'
p1534
S'being'
p1535
sS'prob'
p1536
F1.0
ssS'help <dobj>'
p1537
(dp1538
g713
I7
sg714
I7
sg715
S'dobj'
p1539
sg717
S'help'
p1540
sg719
F1.0
ssS'rise in <np>'
p1541
(dp1542
g1060
I7
sg1061
I7
sg1062
S'np'
p1543
sg1064
S'rise in'
p1544
sg1066
F1.0
ssS"<subj> 's initiative"
p1545
(dp1546
S'type'
p1547
S'subj'
p1548
sS'freq'
p1549
I1
sS'subj_freq'
p1550
I1
sS'display'
p1551
S"'s initiative"
p1552
sS'prob'
p1553
F1.0
ssS'<subj> fight terrorism'
p1554
(dp1555
g455
S'subj'
p1556
sg457
I7
sg458
I7
sg459
S'fight terrorism'
p1557
sg461
F1.0
ssS'involves <dobj>'
p1558
(dp1559
S'subj_freq'
p1560
I3
sS'freq'
p1561
I3
sS'type'
p1562
S'dobj'
p1563
sS'display'
p1564
S'involves'
p1565
sS'prob'
p1566
F1.0
ssS'<subj> made conscience'
p1567
(dp1568
g918
I21
sg919
I21
sg920
S'subj'
p1569
sg922
S'made conscience'
p1570
sg924
F1.0
ssS'produces <dobj>'
p1571
(dp1572
S'subj_freq'
p1573
I7
sS'freq'
p1574
I7
sS'type'
p1575
S'dobj'
p1576
sS'display'
p1577
S'produces'
p1578
sS'prob'
p1579
F1.0
ssS'want to hold <dobj>'
p1580
(dp1581
g155
I7
sg156
I7
sg157
S'dobj'
p1582
sg159
S'want to hold'
p1583
sg161
F1.0
ssS'conserve <dobj>'
p1584
(dp1585
S'type'
p1586
S'dobj'
p1587
sS'freq'
p1588
I4
sS'subj_freq'
p1589
I4
sS'display'
p1590
S'conserve'
p1591
sS'prob'
p1592
F1.0
ssS'wait <dobj>'
p1593
(dp1594
S'type'
p1595
S'dobj'
p1596
sS'freq'
p1597
I7
sS'subj_freq'
p1598
I4
sS'display'
p1599
S'wait'
p1600
sS'prob'
p1601
F0.5714285714285714
ssVforces <dobj>
p1602
(dp1603
g1257
S'dobj'
p1604
sg1259
I2
sg1260
I2
sg1261
Vforces
p1605
sg1263
F1.0
ssS'<subj> witnessed fact'
p1606
(dp1607
g57
I9
sg58
I9
sg59
g985
sg61
S'witnessed fact'
p1608
sg63
F1.0
ssS'come <dobj>'
p1609
(dp1610
g57
I15
sg58
I15
sg59
g60
sg61
S'come'
p1611
sg63
F1.0
ssS'<subj> appears'
p1612
(dp1613
g874
I22
sg875
I22
sg876
g877
sg878
S'appears'
p1614
sg880
F1.0
ssS'<subj> was hidden'
p1615
(dp1616
g970
S'subj'
p1617
sg972
I4
sg973
I4
sg974
S'was hidden'
p1618
sg976
F1.0
ssS'<subj> want evolution'
p1619
(dp1620
S'subj_freq'
p1621
I23
sS'freq'
p1622
I23
sS'type'
p1623
S'subj'
p1624
sS'display'
p1625
S'want evolution'
p1626
sS'prob'
p1627
F1.0
ssS'<subj> received award'
p1628
(dp1629
S'subj_freq'
p1630
I2
sS'freq'
p1631
I2
sS'type'
p1632
S'subj'
p1633
sS'display'
p1634
S'received award'
p1635
sS'prob'
p1636
F1.0
ssS'<subj> left'
p1637
(dp1638
S'type'
p1639
S'subj'
p1640
sS'freq'
p1641
I11
sS'subj_freq'
p1642
I11
sS'display'
p1643
S'left'
p1644
sS'prob'
p1645
F1.0
ssS'<subj> offer communities'
p1646
(dp1647
S'subj_freq'
p1648
I9
sS'freq'
p1649
I9
sS'type'
p1650
S'subj'
p1651
sS'display'
p1652
S'offer communities'
p1653
sS'prob'
p1654
F1.0
ssS'<subj> have women'
p1655
(dp1656
g137
I4
sg138
I4
sg139
g140
sg141
S'have women'
p1657
sg143
F1.0
ssS'prepared <dobj>'
p1658
(dp1659
S'type'
p1660
S'dobj'
p1661
sS'freq'
p1662
I1
sS'subj_freq'
p1663
I1
sS'display'
p1664
S'prepared'
p1665
sS'prob'
p1666
F1.0
ssS'<subj> uses'
p1667
(dp1668
S'subj_freq'
p1669
I17
sS'freq'
p1670
I17
sS'type'
p1671
S'subj'
p1672
sS'display'
p1673
S'uses'
p1674
sS'prob'
p1675
F1.0
ssS'<subj> fight'
p1676
(dp1677
g455
g1556
sg457
I7
sg458
I7
sg459
S'fight'
p1678
sg461
F1.0
ssS'wanted <dobj>'
p1679
(dp1680
S'subj_freq'
p1681
I7
sS'freq'
p1682
I7
sS'type'
p1683
S'dobj'
p1684
sS'display'
p1685
S'wanted'
p1686
sS'prob'
p1687
F1.0
ssS'comes <dobj>'
p1688
(dp1689
S'subj_freq'
p1690
I1
sS'freq'
p1691
I1
sS'type'
p1692
S'dobj'
p1693
sS'display'
p1694
S'comes'
p1695
sS'prob'
p1696
F1.0
ssS'<subj> reject'
p1697
(dp1698
g1171
g1316
sg1173
I21
sg1174
I21
sg1175
S'reject'
p1699
sg1177
F1.0
ssS'<subj> been maintained'
p1700
(dp1701
S'subj_freq'
p1702
I0
sS'freq'
p1703
I4
sS'type'
p1704
S'subj'
p1705
sS'display'
p1706
S'been maintained'
p1707
sS'prob'
p1708
F0.0
ssS'to hit <dobj>'
p1709
(dp1710
S'type'
p1711
S'dobj'
p1712
sS'freq'
p1713
I21
sS'subj_freq'
p1714
I21
sS'display'
p1715
S'to hit'
p1716
sS'prob'
p1717
F1.0
ssS'defends <dobj>'
p1718
(dp1719
g761
I9
sg762
I9
sg763
S'dobj'
p1720
sg765
S'defends'
p1721
sg767
F1.0
ssS'<subj> wants'
p1722
(dp1723
S'type'
p1724
S'subj'
p1725
sS'freq'
p1726
I7
sS'subj_freq'
p1727
I7
sS'display'
p1728
S'wants'
p1729
sS'prob'
p1730
F1.0
ssS'<subj> saw Sir'
p1731
(dp1732
g731
g732
sg733
I7
sg734
I7
sg735
S'saw Sir'
p1733
sg737
F1.0
ssS'<subj> have be touched'
p1734
(dp1735
g1500
I7
sg1501
I7
sg1502
g1503
sg1504
S'have be touched'
p1736
sg1506
F1.0
ssS'<subj> relax'
p1737
(dp1738
S'subj_freq'
p1739
I2
sS'freq'
p1740
I2
sS'type'
p1741
S'subj'
p1742
sS'display'
p1743
S'relax'
p1744
sS'prob'
p1745
F1.0
ssS'<subj> visit'
p1746
(dp1747
S'subj_freq'
p1748
I9
sS'freq'
p1749
I9
sS'type'
p1750
S'subj'
p1751
sS'display'
p1752
S'visit'
p1753
sS'prob'
p1754
F1.0
ssS'<subj> win gift'
p1755
(dp1756
S'subj_freq'
p1757
I2
sS'freq'
p1758
I2
sS'type'
p1759
S'subj'
p1760
sS'display'
p1761
S'win gift'
p1762
sS'prob'
p1763
F1.0
ssS'<subj> prepared'
p1764
(dp1765
g1660
S'subj'
p1766
sg1662
I1
sg1663
I1
sg1664
S'prepared'
p1767
sg1666
F1.0
ssS'meets <dobj>'
p1768
(dp1769
S'subj_freq'
p1770
I5
sS'freq'
p1771
I5
sS'type'
p1772
S'dobj'
p1773
sS'display'
p1774
S'meets'
p1775
sS'prob'
p1776
F1.0
ssS'site of <np>'
p1777
(dp1778
S'subj_freq'
p1779
I0
sS'freq'
p1780
I1
sS'type'
p1781
S'np'
p1782
sS'display'
p1783
S'site of'
p1784
sS'prob'
p1785
F0.0
ssS'tomorrow for <np>'
p1786
(dp1787
g1748
I5
sg1749
I5
sg1750
S'np'
p1788
sg1752
S'tomorrow for'
p1789
sg1754
F1.0
ssS'seems to evolved <dobj>'
p1790
(dp1791
g408
S'dobj'
p1792
sg410
I21
sg411
I21
sg412
S'seems to evolved'
p1793
sg414
F1.0
ssS'<subj> is delighted'
p1794
(dp1795
S'type'
p1796
S'subj'
p1797
sS'freq'
p1798
I1
sS'subj_freq'
p1799
I1
sS'display'
p1800
S'is delighted'
p1801
sS'prob'
p1802
F1.0
ssS'thinks <dobj>'
p1803
(dp1804
g57
I9
sg58
I9
sg59
g60
sg61
S'thinks'
p1805
sg63
F1.0
ssS'<subj> fail to realize'
p1806
(dp1807
g1386
I27
sg1387
I27
sg1388
S'subj'
p1808
sg1390
S'fail to realize'
p1809
sg1392
F1.0
ssS'<subj> bothered'
p1810
(dp1811
g896
g897
sg898
I6
sg899
I6
sg900
S'bothered'
p1812
sg902
F1.0
ssS'<subj> thought'
p1813
(dp1814
g1038
g1039
sg1040
I46
sg1041
I46
sg1042
S'thought'
p1815
sg1044
F1.0
ssS'develop <dobj>'
p1816
(dp1817
g39
I9
sg40
I9
sg41
g42
sg43
S'develop'
p1818
sg45
F1.0
ssS'<subj> devoted politicians'
p1819
(dp1820
g594
I9
sg595
I9
sg596
g597
sg598
S'devoted politicians'
p1821
sg600
F1.0
ssS'<subj> did'
p1822
(dp1823
g649
I16
sg650
I16
sg651
g652
sg653
S'did'
p1824
sg655
F1.0
ssS'<subj> believe debate'
p1825
(dp1826
g537
I21
sg538
I21
sg539
g540
sg541
S'believe debate'
p1827
sg543
F1.0
ssS'packed <dobj>'
p1828
(dp1829
g676
g677
sg678
I2
sg679
I2
sg680
S'packed'
p1830
sg682
F1.0
ssV<subj> 're grade
p1831
(dp1832
g1257
g1258
sg1259
I2
sg1260
I2
sg1261
V're grade
p1833
sg1263
F1.0
ssS'<subj> remind'
p1834
(dp1835
S'type'
p1836
S'subj'
p1837
sS'freq'
p1838
I4
sS'subj_freq'
p1839
I4
sS'display'
p1840
S'remind'
p1841
sS'prob'
p1842
F1.0
ssS'<subj> have pain'
p1843
(dp1844
S'subj_freq'
p1845
I7
sS'freq'
p1846
I7
sS'type'
p1847
S'subj'
p1848
sS'display'
p1849
S'have pain'
p1850
sS'prob'
p1851
F1.0
ssS'participating <dobj>'
p1852
(dp1853
S'subj_freq'
p1854
I2
sS'freq'
p1855
I2
sS'type'
p1856
S'dobj'
p1857
sS'display'
p1858
S'participating'
p1859
sS'prob'
p1860
F1.0
ssS'<subj> conserves'
p1861
(dp1862
S'type'
p1863
S'subj'
p1864
sS'freq'
p1865
I4
sS'subj_freq'
p1866
I4
sS'display'
p1867
S'conserves'
p1868
sS'prob'
p1869
F1.0
ssS'<subj> makes'
p1870
(dp1871
S'subj_freq'
p1872
I4
sS'freq'
p1873
I4
sS'type'
p1874
S'subj'
p1875
sS'display'
p1876
S'makes'
p1877
sS'prob'
p1878
F1.0
ssS'Year in <np>'
p1879
(dp1880
g511
S'np'
p1881
sg513
I1
sg514
I1
sg515
S'Year in'
p1882
sg517
F1.0
ssS'open <dobj>'
p1883
(dp1884
S'type'
p1885
S'dobj'
p1886
sS'freq'
p1887
I4
sS'subj_freq'
p1888
I4
sS'display'
p1889
S'open'
p1890
sS'prob'
p1891
F1.0
ssS'<subj> gave'
p1892
(dp1893
g1060
I7
sg1061
I7
sg1062
g1063
sg1064
S'gave'
p1894
sg1066
F1.0
ssS'<subj> doing ones'
p1895
(dp1896
g106
I21
sg107
I21
sg108
g477
sg110
S'doing ones'
p1897
sg112
F1.0
ssS'<subj> spread'
p1898
(dp1899
g239
I1
sg240
I1
sg241
S'subj'
p1900
sg243
S'spread'
p1901
sg245
F1.0
ssS'<subj> preserve'
p1902
(dp1903
S'type'
p1904
S'subj'
p1905
sS'freq'
p1906
I21
sS'subj_freq'
p1907
I21
sS'display'
p1908
S'preserve'
p1909
sS'prob'
p1910
F1.0
ssS'<subj> eliminated'
p1911
(dp1912
g106
I21
sg107
I21
sg108
g477
sg110
S'eliminated'
p1913
sg112
F1.0
ssS'<subj> be shown'
p1914
(dp1915
S'type'
p1916
S'subj'
p1917
sS'freq'
p1918
I21
sS'subj_freq'
p1919
I21
sS'display'
p1920
S'be shown'
p1921
sS'prob'
p1922
F1.0
ssS'do <dobj>'
p1923
(dp1924
g1075
S'dobj'
p1925
sg1077
I254
sg1078
I254
sg1079
S'do'
p1926
sg1081
F1.0
ssS'<subj> created'
p1927
(dp1928
g502
g503
sg504
I5
sg505
I1
sg506
S'created'
p1929
sg508
F0.2
ssS'keep <dobj>'
p1930
(dp1931
S'type'
p1932
S'dobj'
p1933
sS'freq'
p1934
I10
sS'subj_freq'
p1935
I10
sS'display'
p1936
S'keep'
p1937
sS'prob'
p1938
F1.0
ssS'become <dobj>'
p1939
(dp1940
g88
S'dobj'
p1941
sg90
I65
sg91
I65
sg92
S'become'
p1942
sg94
F1.0
ssS'providing <dobj>'
p1943
(dp1944
g333
g334
sg335
I21
sg336
I21
sg337
S'providing'
p1945
sg339
F1.0
ssS'<subj> having collections'
p1946
(dp1947
S'type'
p1948
S'subj'
p1949
sS'freq'
p1950
I1
sS'subj_freq'
p1951
I1
sS'display'
p1952
S'having collections'
p1953
sS'prob'
p1954
F1.0
ssS'<subj> faces'
p1955
(dp1956
S'subj_freq'
p1957
I2
sS'freq'
p1958
I2
sS'type'
p1959
S'subj'
p1960
sS'display'
p1961
S'faces'
p1962
sS'prob'
p1963
F1.0
ssS'<subj> enjoy beauty'
p1964
(dp1965
S'subj_freq'
p1966
I2
sS'freq'
p1967
I2
sS'type'
p1968
S'subj'
p1969
sS'display'
p1970
S'enjoy beauty'
p1971
sS'prob'
p1972
F1.0
ssS'<subj> lie'
p1973
(dp1974
g1932
S'subj'
p1975
sg1934
I9
sg1935
I9
sg1936
S'lie'
p1976
sg1938
F1.0
ssS'lies <dobj>'
p1977
(dp1978
g594
I17
sg595
I17
sg596
S'dobj'
p1979
sg598
S'lies'
p1980
sg600
F1.0
ssS'<subj> surrounded hills'
p1981
(dp1982
g779
I2
sg780
I2
sg781
g782
sg783
S'surrounded hills'
p1983
sg785
F1.0
ssS'<subj> offer'
p1984
(dp1985
g1648
I10
sg1649
I10
sg1650
g1651
sg1652
S'offer'
p1986
sg1654
F1.0
ssS'surrounded <dobj>'
p1987
(dp1988
g779
I2
sg780
I2
sg781
g1034
sg783
S'surrounded'
p1989
sg785
F1.0
ssS'answer with <np>'
p1990
(dp1991
S'subj_freq'
p1992
I0
sS'freq'
p1993
I1
sS'type'
p1994
S'np'
p1995
sS'display'
p1996
S'answer with'
p1997
sS'prob'
p1998
F0.0
ssS'sounds control over <np>'
p1999
(dp2000
g606
S'np'
p2001
sg608
I10
sg609
I10
sg610
S'sounds control over'
p2002
sg612
F1.0
ssS'saw <dobj>'
p2003
(dp2004
g731
S'dobj'
p2005
sg733
I7
sg734
I7
sg735
S'saw'
p2006
sg737
F1.0
ssS'hidden <dobj>'
p2007
(dp2008
g970
g971
sg972
I5
sg973
I5
sg974
S'hidden'
p2009
sg976
F1.0
ssS'<subj> sounds sort'
p2010
(dp2011
g606
S'subj'
p2012
sg608
I22
sg609
I22
sg610
S'sounds sort'
p2013
sg612
F1.0
ssS'walk <dobj>'
p2014
(dp2015
g146
g147
sg148
I2
sg149
I2
sg150
S'walk'
p2016
sg152
F1.0
ssS'<subj> grown'
p2017
(dp2018
S'type'
p2019
S'subj'
p2020
sS'freq'
p2021
I1
sS'subj_freq'
p2022
I1
sS'display'
p2023
S'grown'
p2024
sS'prob'
p2025
F1.0
ssS'<subj> get'
p2026
(dp2027
g524
I27
sg525
I31
sg526
g527
sg528
S'get'
p2028
sg530
F0.8709677419354839
ssS'delight in <np>'
p2029
(dp2030
S'subj_freq'
p2031
I1
sS'freq'
p2032
I1
sS'type'
p2033
S'np'
p2034
sS'display'
p2035
S'delight in'
p2036
sS'prob'
p2037
F1.0
ssS'<subj> creating'
p2038
(dp2039
g1648
I13
sg1649
I13
sg1650
g1651
sg1652
S'creating'
p2040
sg1654
F1.0
ssS"<subj> 's technology"
p2041
(dp2042
S'type'
p2043
S'subj'
p2044
sS'freq'
p2045
I9
sS'subj_freq'
p2046
I9
sS'display'
p2047
S"'s technology"
p2048
sS'prob'
p2049
F1.0
ssS'<subj> suppose'
p2050
(dp2051
S'subj_freq'
p2052
I7
sS'freq'
p2053
I7
sS'type'
p2054
S'subj'
p2055
sS'display'
p2056
S'suppose'
p2057
sS'prob'
p2058
F1.0
ssS'Kingdom of <np>'
p2059
(dp2060
S'type'
p2061
S'np'
p2062
sS'freq'
p2063
I1
sS'subj_freq'
p2064
I1
sS'display'
p2065
S'Kingdom of'
p2066
sS'prob'
p2067
F1.0
ssS'see <dobj>'
p2068
(dp2069
g333
g334
sg335
I61
sg336
I60
sg337
S'see'
p2070
sg339
F0.9836065573770492
ssS'<subj> sharing experience'
p2071
(dp2072
S'subj_freq'
p2073
I1
sS'freq'
p2074
I1
sS'type'
p2075
S'subj'
p2076
sS'display'
p2077
S'sharing experience'
p2078
sS'prob'
p2079
F1.0
ssS'<subj> belongs opinion'
p2080
(dp2081
g164
g165
sg166
I7
sg167
I7
sg168
S'belongs opinion'
p2082
sg170
F1.0
ssS'touched <dobj>'
p2083
(dp2084
g1500
I7
sg1501
I7
sg1502
S'dobj'
p2085
sg1504
S'touched'
p2086
sg1506
F1.0
ssS'<subj> prevent'
p2087
(dp2088
g838
S'subj'
p2089
sg840
I21
sg841
I21
sg842
S'prevent'
p2090
sg844
F1.0
ssS'<subj> maintained'
p2091
(dp2092
g1702
I0
sg1703
I4
sg1704
g1705
sg1706
S'maintained'
p2093
sg1708
F0.0
ssS'<subj> saves someone'
p2094
(dp2095
g1288
I7
sg1289
I7
sg1290
g1291
sg1292
S'saves someone'
p2096
sg1294
F1.0
ssS'<subj> presented'
p2097
(dp2098
g704
g1228
sg706
I9
sg707
I9
sg708
S'presented'
p2099
sg710
F1.0
ssS'<subj> known'
p2100
(dp2101
g1266
I6
sg1267
I7
sg1268
S'subj'
p2102
sg1270
S'known'
p2103
sg1272
F0.8571428571428571
ssS'<subj> moved Ohio'
p2104
(dp2105
g1002
I7
sg1003
I7
sg1004
g1096
sg1006
S'moved Ohio'
p2106
sg1008
F1.0
ssS'believe <dobj>'
p2107
(dp2108
g537
I30
sg538
I30
sg539
g1275
sg541
S'believe'
p2109
sg543
F1.0
ssS'<subj> knows'
p2110
(dp2111
g1724
g1725
sg1726
I7
sg1727
I7
sg1728
S'knows'
p2112
sg1730
F1.0
ssS'<subj> allowing'
p2113
(dp2114
g814
S'subj'
p2115
sg816
I1
sg817
I1
sg818
S'allowing'
p2116
sg820
F1.0
ssS'<subj> managing work'
p2117
(dp2118
S'type'
p2119
S'subj'
p2120
sS'freq'
p2121
I4
sS'subj_freq'
p2122
I4
sS'display'
p2123
S'managing work'
p2124
sS'prob'
p2125
F1.0
ssS'to visit <dobj>'
p2126
(dp2127
S'subj_freq'
p2128
I4
sS'freq'
p2129
I4
sS'type'
p2130
S'dobj'
p2131
sS'display'
p2132
S'to visit'
p2133
sS'prob'
p2134
F1.0
ssS'vacation with <np>'
p2135
(dp2136
S'type'
p2137
S'np'
p2138
sS'freq'
p2139
I1
sS'subj_freq'
p2140
I1
sS'display'
p2141
S'vacation with'
p2142
sS'prob'
p2143
F1.0
ssS'going <dobj>'
p2144
(dp2145
g351
g352
sg353
I12
sg354
I12
sg355
S'going'
p2146
sg357
F1.0
ssS'undo <dobj>'
p2147
(dp2148
g257
I21
sg258
I21
sg259
S'dobj'
p2149
sg261
S'undo'
p2150
sg263
F1.0
ssS'needed <dobj>'
p2151
(dp2152
g481
S'dobj'
p2153
sg483
I28
sg484
I28
sg485
S'needed'
p2154
sg487
F1.0
ssS'<subj> creating eternity'
p2155
(dp2156
g399
I4
sg400
I4
sg401
g402
sg403
S'creating eternity'
p2157
sg405
F1.0
ssS'<subj> have time'
p2158
(dp2159
g896
g897
sg898
I6
sg899
I6
sg900
S'have time'
p2160
sg902
F1.0
ssS'<subj> elaborate designs'
p2161
(dp2162
S'subj_freq'
p2163
I2
sS'freq'
p2164
I2
sS'type'
p2165
S'subj'
p2166
sS'display'
p2167
S'elaborate designs'
p2168
sS'prob'
p2169
F1.0
ssS'<subj> seems to evolved'
p2170
(dp2171
g408
g409
sg410
I21
sg411
I21
sg412
S'seems to evolved'
p2172
sg414
F1.0
ssS'go <dobj>'
p2173
(dp2174
S'type'
p2175
S'dobj'
p2176
sS'freq'
p2177
I2
sS'subj_freq'
p2178
I2
sS'display'
p2179
S'go'
p2180
sS'prob'
p2181
F1.0
ssS'awaiting <dobj>'
p2182
(dp2183
S'subj_freq'
p2184
I1
sS'freq'
p2185
I1
sS'type'
p2186
S'dobj'
p2187
sS'display'
p2188
S'awaiting'
p2189
sS'prob'
p2190
F1.0
ssS'began <dobj>'
p2191
(dp2192
S'type'
p2193
S'dobj'
p2194
sS'freq'
p2195
I3
sS'subj_freq'
p2196
I1
sS'display'
p2197
S'began'
p2198
sS'prob'
p2199
F0.3333333333333333
ssS'<subj> end'
p2200
(dp2201
S'type'
p2202
S'subj'
p2203
sS'freq'
p2204
I3
sS'subj_freq'
p2205
I3
sS'display'
p2206
S'end'
p2207
sS'prob'
p2208
F1.0
ssS'<subj> confirm'
p2209
(dp2210
S'subj_freq'
p2211
I7
sS'freq'
p2212
I7
sS'type'
p2213
S'subj'
p2214
sS'display'
p2215
S'confirm'
p2216
sS'prob'
p2217
F1.0
ssS'performing <dobj>'
p2218
(dp2219
S'type'
p2220
S'dobj'
p2221
sS'freq'
p2222
I1
sS'subj_freq'
p2223
I1
sS'display'
p2224
S'performing'
p2225
sS'prob'
p2226
F1.0
ssS'fighters on <np>'
p2227
(dp2228
S'subj_freq'
p2229
I1
sS'freq'
p2230
I1
sS'type'
p2231
S'np'
p2232
sS'display'
p2233
S'fighters on'
p2234
sS'prob'
p2235
F1.0
ssS'<subj> have been attributed'
p2236
(dp2237
g948
I3
sg949
I3
sg950
g951
sg952
S'have been attributed'
p2238
sg954
F1.0
ssS'<subj> work'
p2239
(dp2240
S'subj_freq'
p2241
I0
sS'freq'
p2242
I1
sS'type'
p2243
S'subj'
p2244
sS'display'
p2245
S'work'
p2246
sS'prob'
p2247
F0.0
ssS'<subj> see birds'
p2248
(dp2249
S'subj_freq'
p2250
I2
sS'freq'
p2251
I2
sS'type'
p2252
S'subj'
p2253
sS'display'
p2254
S'see birds'
p2255
sS'prob'
p2256
F1.0
ssS'<subj> say experience'
p2257
(dp2258
g212
I19
sg213
I19
sg214
g215
sg216
S'say experience'
p2259
sg218
F1.0
ssS'like <dobj>'
p2260
(dp2261
g649
I10
sg650
I10
sg651
S'dobj'
p2262
sg653
S'like'
p2263
sg655
F1.0
ssS'continue <dobj>'
p2264
(dp2265
g927
g928
sg929
I7
sg930
I7
sg931
S'continue'
p2266
sg933
F1.0
ssS'<subj> meets incomprehensible'
p2267
(dp2268
g1128
g1129
sg1130
I1
sg1131
I1
sg1132
S'meets incomprehensible'
p2269
sg1134
F1.0
ssS'to prevent <dobj>'
p2270
(dp2271
g838
g839
sg840
I21
sg841
I21
sg842
S'to prevent'
p2272
sg844
F1.0
ssS'<subj> held'
p2273
(dp2274
S'subj_freq'
p2275
I1
sS'freq'
p2276
I2
sS'type'
p2277
S'subj'
p2278
sS'display'
p2279
S'held'
p2280
sS'prob'
p2281
F0.5
ssS'came <dobj>'
p2282
(dp2283
g731
g2005
sg733
I7
sg734
I7
sg735
S'came'
p2284
sg737
F1.0
ssS'<subj> construct'
p2285
(dp2286
S'subj_freq'
p2287
I0
sS'freq'
p2288
I21
sS'type'
p2289
S'subj'
p2290
sS'display'
p2291
S'construct'
p2292
sS'prob'
p2293
F0.0
ssS'faces <dobj>'
p2294
(dp2295
g1957
I2
sg1958
I2
sg1959
S'dobj'
p2296
sg1961
S'faces'
p2297
sg1963
F1.0
ssS'to cool <dobj>'
p2298
(dp2299
S'type'
p2300
S'dobj'
p2301
sS'freq'
p2302
I1
sS'subj_freq'
p2303
I1
sS'display'
p2304
S'to cool'
p2305
sS'prob'
p2306
F1.0
ssS'<subj> means'
p2307
(dp2308
g1386
I41
sg1387
I41
sg1388
g1808
sg1390
S'means'
p2309
sg1392
F1.0
ssS'<subj> got problem'
p2310
(dp2311
g57
I9
sg58
I9
sg59
g985
sg61
S'got problem'
p2312
sg63
F1.0
ssS'<subj> has been maintained'
p2313
(dp2314
g1702
I0
sg1703
I4
sg1704
g1705
sg1706
S'has been maintained'
p2315
sg1708
F0.0
ssS'sees <dobj>'
p2316
(dp2317
g88
g1941
sg90
I42
sg91
I42
sg92
S'sees'
p2318
sg94
F1.0
ssS'<subj> have boats'
p2319
(dp2320
S'subj_freq'
p2321
I1
sS'freq'
p2322
I1
sS'type'
p2323
S'subj'
p2324
sS'display'
p2325
S'have boats'
p2326
sS'prob'
p2327
F1.0
ssS'to reach <dobj>'
p2328
(dp2329
g106
I21
sg107
I21
sg108
g109
sg110
S'to reach'
p2330
sg112
F1.0
ssS'apply <dobj>'
p2331
(dp2332
g649
I9
sg650
I9
sg651
g2262
sg653
S'apply'
p2333
sg655
F1.0
ssS'<subj> are connected'
p2334
(dp2335
g106
I21
sg107
I21
sg108
g477
sg110
S'are connected'
p2336
sg112
F1.0
ssS'<subj> open tourist'
p2337
(dp2338
g1885
S'subj'
p2339
sg1887
I4
sg1888
I4
sg1889
S'open tourist'
p2340
sg1891
F1.0
ssS'<subj> wanted to express'
p2341
(dp2342
g1681
I7
sg1682
I7
sg1683
S'subj'
p2343
sg1685
S'wanted to express'
p2344
sg1687
F1.0
ssS'<subj> took place'
p2345
(dp2346
g1155
g1156
sg1157
I1
sg1158
I0
sg1159
S'took place'
p2347
sg1161
F0.0
ssS'<subj> continue'
p2348
(dp2349
g927
S'subj'
p2350
sg929
I7
sg930
I7
sg931
S'continue'
p2351
sg933
F1.0
ssS'<subj> are discussed'
p2352
(dp2353
g293
g294
sg295
I21
sg296
I21
sg297
S'are discussed'
p2354
sg299
F1.0
ssS'<subj> walks tourists'
p2355
(dp2356
g146
g797
sg148
I1
sg149
I1
sg150
S'walks tourists'
p2357
sg152
F1.0
ssS'governing <dobj>'
p2358
(dp2359
g257
I21
sg258
I21
sg259
g2149
sg261
S'governing'
p2360
sg263
F1.0
ssV<subj> have work
p2361
(dp2362
g1257
g1258
sg1259
I2
sg1260
I2
sg1261
Vhave work
p2363
sg1263
F1.0
ssS'soul on <np>'
p2364
(dp2365
S'type'
p2366
S'np'
p2367
sS'freq'
p2368
I1
sS'subj_freq'
p2369
I0
sS'display'
p2370
S'soul on'
p2371
sS'prob'
p2372
F0.0
ssS'<subj> preserving'
p2373
(dp2374
S'subj_freq'
p2375
I2
sS'freq'
p2376
I2
sS'type'
p2377
S'subj'
p2378
sS'display'
p2379
S'preserving'
p2380
sS'prob'
p2381
F1.0
ssS'hold <dobj>'
p2382
(dp2383
g155
I7
sg156
I7
sg157
g1582
sg159
S'hold'
p2384
sg161
F1.0
ssS'become work on <np>'
p2385
(dp2386
g248
I13
sg249
I13
sg250
S'np'
p2387
sg252
S'become work on'
p2388
sg254
F1.0
ssS"'m <dobj>"
p2389
(dp2390
g874
I77
sg875
I77
sg876
S'dobj'
p2391
sg878
S"'m"
p2392
sg880
F1.0
ssS'got <dobj>'
p2393
(dp2394
g57
I9
sg58
I9
sg59
g60
sg61
S'got'
p2395
sg63
F1.0
ssS'shows <dobj>'
p2396
(dp2397
g1469
I7
sg1470
I7
sg1471
g1478
sg1473
S'shows'
p2398
sg1475
F1.0
ssS'<subj> thinking'
p2399
(dp2400
g221
S'subj'
p2401
sg223
I21
sg224
I21
sg225
S'thinking'
p2402
sg227
F1.0
ssS'<subj> cut'
p2403
(dp2404
g194
g311
sg196
I4
sg197
I4
sg198
S'cut'
p2405
sg200
F1.0
ssVblown <dobj>
p2406
(dp2407
g1257
g1604
sg1259
I2
sg1260
I2
sg1261
Vblown
p2408
sg1263
F1.0
ssS'<subj> killing'
p2409
(dp2410
S'type'
p2411
S'subj'
p2412
sS'freq'
p2413
I1
sS'subj_freq'
p2414
I1
sS'display'
p2415
S'killing'
p2416
sS'prob'
p2417
F1.0
ssS'<subj> wrecked'
p2418
(dp2419
g948
I3
sg949
I3
sg950
g951
sg952
S'wrecked'
p2420
sg954
F1.0
ssS'held <dobj>'
p2421
(dp2422
g2275
I1
sg2276
I2
sg2277
S'dobj'
p2423
sg2279
S'held'
p2424
sg2281
F0.5
ssS'<subj> make energy'
p2425
(dp2426
S'subj_freq'
p2427
I1
sS'freq'
p2428
I1
sS'type'
p2429
S'subj'
p2430
sS'display'
p2431
S'make energy'
p2432
sS'prob'
p2433
F1.0
ssS'uses <dobj>'
p2434
(dp2435
g1669
I17
sg1670
I17
sg1671
S'dobj'
p2436
sg1673
S'uses'
p2437
sg1675
F1.0
ssS'<subj> offers water'
p2438
(dp2439
g1307
I0
sg1308
I1
sg1309
S'subj'
p2440
sg1311
S'offers water'
p2441
sg1313
F0.0
ssS'sky for <np>'
p2442
(dp2443
g230
S'np'
p2444
sg232
I1
sg233
I1
sg234
S'sky for'
p2445
sg236
F1.0
ssS'having <dobj>'
p2446
(dp2447
S'type'
p2448
S'dobj'
p2449
sS'freq'
p2450
I8
sS'subj_freq'
p2451
I8
sS'display'
p2452
S'having'
p2453
sS'prob'
p2454
F1.0
ssS'<subj> know'
p2455
(dp2456
g408
g409
sg410
I39
sg411
I39
sg412
S'know'
p2457
sg414
F1.0
ssS'makes <dobj>'
p2458
(dp2459
g1872
I4
sg1873
I4
sg1874
S'dobj'
p2460
sg1876
S'makes'
p2461
sg1878
F1.0
ssS'<subj> portraying feet'
p2462
(dp2463
S'type'
p2464
S'subj'
p2465
sS'freq'
p2466
I1
sS'subj_freq'
p2467
I0
sS'display'
p2468
S'portraying feet'
p2469
sS'prob'
p2470
F0.0
ssS'<subj> shown'
p2471
(dp2472
g537
I42
sg538
I42
sg539
g540
sg541
S'shown'
p2473
sg543
F1.0
ssS'<subj> was began'
p2474
(dp2475
g57
I9
sg58
I9
sg59
g985
sg61
S'was began'
p2476
sg63
F1.0
ssS'<subj> connected privacy'
p2477
(dp2478
g106
I21
sg107
I21
sg108
g477
sg110
S'connected privacy'
p2479
sg112
F1.0
ssS'<subj> shows'
p2480
(dp2481
g1469
I7
sg1470
I7
sg1471
g1472
sg1473
S'shows'
p2482
sg1475
F1.0
ssS'gets <dobj>'
p2483
(dp2484
S'type'
p2485
S'dobj'
p2486
sS'freq'
p2487
I1
sS'subj_freq'
p2488
I1
sS'display'
p2489
S'gets'
p2490
sS'prob'
p2491
F1.0
ssV<subj> posted
p2492
(dp2493
g1257
g1258
sg1259
I2
sg1260
I2
sg1261
Vposted
p2494
sg1263
F1.0
ssS'<subj> had fun'
p2495
(dp2496
S'subj_freq'
p2497
I1
sS'freq'
p2498
I1
sS'type'
p2499
S'subj'
p2500
sS'display'
p2501
S'had fun'
p2502
sS'prob'
p2503
F1.0
ssS'<subj> stay Gujarat'
p2504
(dp2505
S'subj_freq'
p2506
I1
sS'freq'
p2507
I1
sS'type'
p2508
S'subj'
p2509
sS'display'
p2510
S'stay Gujarat'
p2511
sS'prob'
p2512
F1.0
ssS'suggests <dobj>'
p2513
(dp2514
S'type'
p2515
S'dobj'
p2516
sS'freq'
p2517
I17
sS'subj_freq'
p2518
I0
sS'display'
p2519
S'suggests'
p2520
sS'prob'
p2521
F0.0
ssS'<subj> think to think'
p2522
(dp2523
S'type'
p2524
S'subj'
p2525
sS'freq'
p2526
I9
sS'subj_freq'
p2527
I9
sS'display'
p2528
S'think to think'
p2529
sS'prob'
p2530
F1.0
ssS'<subj> hit gallon'
p2531
(dp2532
g1711
S'subj'
p2533
sg1713
I21
sg1714
I21
sg1715
S'hit gallon'
p2534
sg1717
F1.0
ssS'<subj> wait'
p2535
(dp2536
g1595
S'subj'
p2537
sg1597
I7
sg1598
I4
sg1599
S'wait'
p2538
sg1601
F0.5714285714285714
ssS'<subj> was conceded'
p2539
(dp2540
g119
g120
sg121
I7
sg122
I7
sg123
S'was conceded'
p2541
sg125
F1.0
ssS'took <dobj>'
p2542
(dp2543
g1155
S'dobj'
p2544
sg1157
I1
sg1158
I0
sg1159
S'took'
p2545
sg1161
F0.0
ssS'reject <dobj>'
p2546
(dp2547
g1171
g1172
sg1173
I21
sg1174
I21
sg1175
S'reject'
p2548
sg1177
F1.0
ssS'<subj> raise'
p2549
(dp2550
g887
g888
sg889
I4
sg890
I4
sg891
S'raise'
p2551
sg893
F1.0
ssS'printed <dobj>'
p2552
(dp2553
S'type'
p2554
S'dobj'
p2555
sS'freq'
p2556
I1
sS'subj_freq'
p2557
I1
sS'display'
p2558
S'printed'
p2559
sS'prob'
p2560
F1.0
ssS'<subj> have tickets'
p2561
(dp2562
g909
g1201
sg911
I1
sg912
I0
sg913
S'have tickets'
p2563
sg915
F0.0
ssS'misled <dobj>'
p2564
(dp2565
g1171
g1172
sg1173
I21
sg1174
I21
sg1175
S'misled'
p2566
sg1177
F1.0
ssS'wanted to express <dobj>'
p2567
(dp2568
g1681
I7
sg1682
I7
sg1683
g1684
sg1685
S'wanted to express'
p2569
sg1687
F1.0
ssS'awaits <dobj>'
p2570
(dp2571
S'subj_freq'
p2572
I1
sS'freq'
p2573
I1
sS'type'
p2574
S'dobj'
p2575
sS'display'
p2576
S'awaits'
p2577
sS'prob'
p2578
F1.0
ssS'<subj> have luxury'
p2579
(dp2580
S'type'
p2581
S'subj'
p2582
sS'freq'
p2583
I4
sS'subj_freq'
p2584
I4
sS'display'
p2585
S'have luxury'
p2586
sS'prob'
p2587
F1.0
ssS'lie <dobj>'
p2588
(dp2589
g1932
g1933
sg1934
I9
sg1935
I9
sg1936
S'lie'
p2590
sg1938
F1.0
ssS'to stop <dobj>'
p2591
(dp2592
g918
I21
sg919
I21
sg920
S'dobj'
p2593
sg922
S'to stop'
p2594
sg924
F1.0
ssS'<subj> think genius'
p2595
(dp2596
S'type'
p2597
S'subj'
p2598
sS'freq'
p2599
I7
sS'subj_freq'
p2600
I7
sS'display'
p2601
S'think genius'
p2602
sS'prob'
p2603
F1.0
ssS'<subj> become canvas'
p2604
(dp2605
g1180
S'subj'
p2606
sg1182
I1
sg1183
I1
sg1184
S'become canvas'
p2607
sg1186
F1.0
ssS'standing <dobj>'
p2608
(dp2609
S'subj_freq'
p2610
I2
sS'freq'
p2611
I2
sS'type'
p2612
S'dobj'
p2613
sS'display'
p2614
S'standing'
p2615
sS'prob'
p2616
F1.0
ssS'distinguished <dobj>'
p2617
(dp2618
g2163
I2
sg2164
I2
sg2165
S'dobj'
p2619
sg2167
S'distinguished'
p2620
sg2169
F1.0
ssS'heed <dobj>'
p2621
(dp2622
g927
g928
sg929
I7
sg930
I7
sg931
S'heed'
p2623
sg933
F1.0
ssS'<subj> stay variety'
p2624
(dp2625
S'type'
p2626
S'subj'
p2627
sS'freq'
p2628
I1
sS'subj_freq'
p2629
I1
sS'display'
p2630
S'stay variety'
p2631
sS'prob'
p2632
F1.0
ssS'<subj> has be spent'
p2633
(dp2634
g212
I19
sg213
I19
sg214
g215
sg216
S'has be spent'
p2635
sg218
F1.0
ssS'<subj> moved'
p2636
(dp2637
g1002
I7
sg1003
I7
sg1004
g1096
sg1006
S'moved'
p2638
sg1008
F1.0
ssS'Minister of <np>'
p2639
(dp2640
S'subj_freq'
p2641
I0
sS'freq'
p2642
I1
sS'type'
p2643
S'np'
p2644
sS'display'
p2645
S'Minister of'
p2646
sS'prob'
p2647
F0.0
ssS'<subj> think room'
p2648
(dp2649
g2524
g2525
sg2526
I9
sg2527
I9
sg2528
S'think room'
p2650
sg2530
F1.0
ssS'invite <dobj>'
p2651
(dp2652
g546
S'dobj'
p2653
sg548
I3
sg549
I3
sg550
S'invite'
p2654
sg552
F1.0
ssS'<subj> buy assertion'
p2655
(dp2656
g48
g1250
sg50
I7
sg51
I7
sg52
S'buy assertion'
p2657
sg54
F1.0
ssS'<subj> spent'
p2658
(dp2659
g212
I19
sg213
I19
sg214
g215
sg216
S'spent'
p2660
sg218
F1.0
ssS'<subj> knowing'
p2661
(dp2662
g770
I1
sg771
I1
sg772
S'subj'
p2663
sg774
S'knowing'
p2664
sg776
F1.0
ssS'doing <dobj>'
p2665
(dp2666
g106
I21
sg107
I21
sg108
g109
sg110
S'doing'
p2667
sg112
F1.0
ssS'<subj> going to begin'
p2668
(dp2669
S'type'
p2670
S'subj'
p2671
sS'freq'
p2672
I1
sS'subj_freq'
p2673
I1
sS'display'
p2674
S'going to begin'
p2675
sS'prob'
p2676
F1.0
ssS'to watch <dobj>'
p2677
(dp2678
S'type'
p2679
S'dobj'
p2680
sS'freq'
p2681
I2
sS'subj_freq'
p2682
I2
sS'display'
p2683
S'to watch'
p2684
sS'prob'
p2685
F1.0
ssVwatched <dobj>
p2686
(dp2687
g1257
g1604
sg1259
I2
sg1260
I2
sg1261
Vwatched
p2688
sg1263
F1.0
ssS'<subj> spreading'
p2689
(dp2690
g363
I2
sg364
I2
sg365
S'subj'
p2691
sg367
S'spreading'
p2692
sg369
F1.0
ssS'<subj> elaborate'
p2693
(dp2694
g2163
I2
sg2164
I2
sg2165
g2166
sg2167
S'elaborate'
p2695
sg2169
F1.0
ssS'ensure <dobj>'
p2696
(dp2697
g564
g565
sg566
I20
sg567
I20
sg568
S'ensure'
p2698
sg570
F1.0
ssS"<subj> 's pleasure"
p2699
(dp2700
S'subj_freq'
p2701
I3
sS'freq'
p2702
I3
sS'type'
p2703
S'subj'
p2704
sS'display'
p2705
S"'s pleasure"
p2706
sS'prob'
p2707
F1.0
ssS'<subj> spend'
p2708
(dp2709
g779
I4
sg780
I5
sg781
g782
sg783
S'spend'
p2710
sg785
F0.8
ssS'<subj> held travel'
p2711
(dp2712
g993
g1018
sg995
I1
sg996
I1
sg997
S'held travel'
p2713
sg999
F1.0
ssS'to create <dobj>'
p2714
(dp2715
S'subj_freq'
p2716
I2
sS'freq'
p2717
I2
sS'type'
p2718
S'dobj'
p2719
sS'display'
p2720
S'to create'
p2721
sS'prob'
p2722
F1.0
ssS'waste <dobj>'
p2723
(dp2724
g896
S'dobj'
p2725
sg898
I6
sg899
I6
sg900
S'waste'
p2726
sg902
F1.0
ssS'learned <dobj>'
p2727
(dp2728
g524
I13
sg525
I13
sg526
g1357
sg528
S'learned'
p2729
sg530
F1.0
ssS'<subj> learning'
p2730
(dp2731
S'subj_freq'
p2732
I8
sS'freq'
p2733
I8
sS'type'
p2734
S'subj'
p2735
sS'display'
p2736
S'learning'
p2737
sS'prob'
p2738
F1.0
ssS'<subj> leads visitor'
p2739
(dp2740
S'subj_freq'
p2741
I0
sS'freq'
p2742
I1
sS'type'
p2743
S'subj'
p2744
sS'display'
p2745
S'leads visitor'
p2746
sS'prob'
p2747
F0.0
ssS'<subj> stay'
p2748
(dp2749
g490
S'subj'
p2750
sg492
I4
sg493
I4
sg494
S'stay'
p2751
sg496
F1.0
ssS'helps <dobj>'
p2752
(dp2753
g524
I11
sg525
I11
sg526
g1357
sg528
S'helps'
p2754
sg530
F1.0
ssS'<subj> is located'
p2755
(dp2756
g70
I2
sg71
I5
sg72
g73
sg74
S'is located'
p2757
sg76
F0.4
ssS'<subj> restored'
p2758
(dp2759
S'type'
p2760
S'subj'
p2761
sS'freq'
p2762
I2
sS'subj_freq'
p2763
I2
sS'display'
p2764
S'restored'
p2765
sS'prob'
p2766
F1.0
ssS'atoms in <np>'
p2767
(dp2768
g2448
S'np'
p2769
sg2450
I7
sg2451
I7
sg2452
S'atoms in'
p2770
sg2454
F1.0
ssS'to win <dobj>'
p2771
(dp2772
S'subj_freq'
p2773
I4
sS'freq'
p2774
I4
sS'type'
p2775
S'dobj'
p2776
sS'display'
p2777
S'to win'
p2778
sS'prob'
p2779
F1.0
ssS'continue to maintain <dobj>'
p2780
(dp2781
g927
g928
sg929
I7
sg930
I7
sg931
S'continue to maintain'
p2782
sg933
F1.0
ssS'<subj> get chance'
p2783
(dp2784
S'type'
p2785
S'subj'
p2786
sS'freq'
p2787
I1
sS'subj_freq'
p2788
I1
sS'display'
p2789
S'get chance'
p2790
sS'prob'
p2791
F1.0
ssS'copied <dobj>'
p2792
(dp2793
g865
I21
sg866
I21
sg867
S'dobj'
p2794
sg869
S'copied'
p2795
sg871
F1.0
ssS'hit <dobj>'
p2796
(dp2797
g1711
g1712
sg1713
I21
sg1714
I21
sg1715
S'hit'
p2798
sg1717
F1.0
ssS'to wait <dobj>'
p2799
(dp2800
g1595
g1596
sg1597
I7
sg1598
I4
sg1599
S'to wait'
p2801
sg1601
F0.5714285714285714
ssS'need to remember <dobj>'
p2802
(dp2803
S'type'
p2804
S'dobj'
p2805
sS'freq'
p2806
I6
sS'subj_freq'
p2807
I6
sS'display'
p2808
S'need to remember'
p2809
sS'prob'
p2810
F1.0
ssS'fight <dobj>'
p2811
(dp2812
g455
g456
sg457
I7
sg458
I7
sg459
S'fight'
p2813
sg461
F1.0
ssS'<subj> cool'
p2814
(dp2815
g2300
S'subj'
p2816
sg2302
I1
sg2303
I1
sg2304
S'cool'
p2817
sg2306
F1.0
ssS'<subj> lies'
p2818
(dp2819
g594
I17
sg595
I17
sg596
g597
sg598
S'lies'
p2820
sg600
F1.0
ssS'<subj> added memories'
p2821
(dp2822
S'subj_freq'
p2823
I0
sS'freq'
p2824
I1
sS'type'
p2825
S'subj'
p2826
sS'display'
p2827
S'added memories'
p2828
sS'prob'
p2829
F0.0
ssS'<subj> guess picnic'
p2830
(dp2831
S'subj_freq'
p2832
I0
sS'freq'
p2833
I1
sS'type'
p2834
S'subj'
p2835
sS'display'
p2836
S'guess picnic'
p2837
sS'prob'
p2838
F0.0
ssS'forget <dobj>'
p2839
(dp2840
S'subj_freq'
p2841
I8
sS'freq'
p2842
I8
sS'type'
p2843
S'dobj'
p2844
sS'display'
p2845
S'forget'
p2846
sS'prob'
p2847
F1.0
ssS'theory of <np>'
p2848
(dp2849
g524
I9
sg525
I9
sg526
S'np'
p2850
sg528
S'theory of'
p2851
sg530
F1.0
ssS'speech at <np>'
p2852
(dp2853
g2427
I1
sg2428
I1
sg2429
S'np'
p2854
sg2431
S'speech at'
p2855
sg2433
F1.0
ssS'<subj> incurred amount'
p2856
(dp2857
S'type'
p2858
S'subj'
p2859
sS'freq'
p2860
I2
sS'subj_freq'
p2861
I0
sS'display'
p2862
S'incurred amount'
p2863
sS'prob'
p2864
F0.0
ssS'<subj> say'
p2865
(dp2866
g1916
g1917
sg1918
I68
sg1919
I68
sg1920
S'say'
p2867
sg1922
F1.0
ssS'lit <dobj>'
p2868
(dp2869
g1395
I1
sg1396
I1
sg1397
S'dobj'
p2870
sg1399
S'lit'
p2871
sg1401
F1.0
ssS'using <dobj>'
p2872
(dp2873
g788
I0
sg789
I2
sg790
S'dobj'
p2874
sg792
S'using'
p2875
sg794
F0.0
ssS'<subj> is shown'
p2876
(dp2877
g1916
g1917
sg1918
I21
sg1919
I21
sg1920
S'is shown'
p2878
sg1922
F1.0
ssS'celebration at <np>'
p2879
(dp2880
S'type'
p2881
S'np'
p2882
sS'freq'
p2883
I2
sS'subj_freq'
p2884
I2
sS'display'
p2885
S'celebration at'
p2886
sS'prob'
p2887
F1.0
ssS'shot in <np>'
p2888
(dp2889
g1137
I1
sg1138
I1
sg1139
S'np'
p2890
sg1141
S'shot in'
p2891
sg1143
F1.0
ssS'to make <dobj>'
p2892
(dp2893
S'type'
p2894
S'dobj'
p2895
sS'freq'
p2896
I17
sS'subj_freq'
p2897
I17
sS'display'
p2898
S'to make'
p2899
sS'prob'
p2900
F1.0
ssS'seems <dobj>'
p2901
(dp2902
g408
g1792
sg410
I29
sg411
I29
sg412
S'seems'
p2903
sg414
F1.0
ssS'waves with <np>'
p2904
(dp2905
g970
S'np'
p2906
sg972
I4
sg973
I4
sg974
S'waves with'
p2907
sg976
F1.0
ssS'denied <dobj>'
p2908
(dp2909
g1171
g1172
sg1173
I21
sg1174
I21
sg1175
S'denied'
p2910
sg1177
F1.0
ssS'arrive <dobj>'
p2911
(dp2912
S'type'
p2913
S'dobj'
p2914
sS'freq'
p2915
I7
sS'subj_freq'
p2916
I7
sS'display'
p2917
S'arrive'
p2918
sS'prob'
p2919
F1.0
ssS'<subj> like ideas'
p2920
(dp2921
g2427
I1
sg2428
I1
sg2429
g2430
sg2431
S'like ideas'
p2922
sg2433
F1.0
ssS'<subj> explained Ted'
p2923
(dp2924
S'subj_freq'
p2925
I9
sS'freq'
p2926
I9
sS'type'
p2927
S'subj'
p2928
sS'display'
p2929
S'explained Ted'
p2930
sS'prob'
p2931
F1.0
ssVread <dobj>
p2932
(dp2933
g1257
g1604
sg1259
I2
sg1260
I2
sg1261
Vread
p2934
sg1263
F1.0
ssS'<subj> celebrated'
p2935
(dp2936
g658
S'subj'
p2937
sg660
I7
sg661
I7
sg662
S'celebrated'
p2938
sg664
F1.0
ssS'recommend <dobj>'
p2939
(dp2940
g2128
I2
sg2129
I2
sg2130
g2131
sg2132
S'recommend'
p2941
sg2134
F1.0
ssS'<subj> discover'
p2942
(dp2943
S'subj_freq'
p2944
I2
sS'freq'
p2945
I2
sS'type'
p2946
S'subj'
p2947
sS'display'
p2948
S'discover'
p2949
sS'prob'
p2950
F1.0
ssS'<subj> celebrated devotion'
p2951
(dp2952
S'type'
p2953
S'subj'
p2954
sS'freq'
p2955
I1
sS'subj_freq'
p2956
I1
sS'display'
p2957
S'celebrated devotion'
p2958
sS'prob'
p2959
F1.0
ssS'<subj> is cut'
p2960
(dp2961
g194
g311
sg196
I4
sg197
I4
sg198
S'is cut'
p2962
sg200
F1.0
ssS'<subj> be held'
p2963
(dp2964
g993
g1018
sg995
I1
sg996
I1
sg997
S'be held'
p2965
sg999
F1.0
ssS'<subj> gather'
p2966
(dp2967
g1660
g1766
sg1662
I1
sg1663
I1
sg1664
S'gather'
p2968
sg1666
F1.0
ssS'<subj> reached'
p2969
(dp2970
S'type'
p2971
S'subj'
p2972
sS'freq'
p2973
I25
sS'subj_freq'
p2974
I25
sS'display'
p2975
S'reached'
p2976
sS'prob'
p2977
F1.0
ssS'<subj> shows things'
p2978
(dp2979
g1469
I7
sg1470
I7
sg1471
g1472
sg1473
S'shows things'
p2980
sg1475
F1.0
ssS'watch <dobj>'
p2981
(dp2982
g2679
g2680
sg2681
I2
sg2682
I2
sg2683
S'watch'
p2983
sg2685
F1.0
ssS'changed <dobj>'
p2984
(dp2985
g1500
I7
sg1501
I7
sg1502
g2085
sg1504
S'changed'
p2986
sg1506
F1.0
ssS'<subj> been unveiled'
p2987
(dp2988
S'subj_freq'
p2989
I1
sS'freq'
p2990
I1
sS'type'
p2991
S'subj'
p2992
sS'display'
p2993
S'been unveiled'
p2994
sS'prob'
p2995
F1.0
ssS'<subj> look'
p2996
(dp2997
g1457
I4
sg1458
I4
sg1459
S'subj'
p2998
sg1461
S'look'
p2999
sg1463
F1.0
ssS'<subj> places India'
p3000
(dp3001
g752
g753
sg754
I4
sg755
I4
sg756
S'places India'
p3002
sg758
F1.0
ssS'exhibits <dobj>'
p3003
(dp3004
g1320
I1
sg1321
I1
sg1322
S'dobj'
p3005
sg1324
S'exhibits'
p3006
sg1326
F1.0
ssS'<subj> make'
p3007
(dp3008
g564
g1224
sg566
I43
sg567
I43
sg568
S'make'
p3009
sg570
F1.0
ssS'state <dobj>'
p3010
(dp3011
S'type'
p3012
S'dobj'
p3013
sS'freq'
p3014
I23
sS'subj_freq'
p3015
I23
sS'display'
p3016
S'state'
p3017
sS'prob'
p3018
F1.0
ssS'<subj> be spotted'
p3019
(dp3020
S'type'
p3021
S'subj'
p3022
sS'freq'
p3023
I2
sS'subj_freq'
p3024
I2
sS'display'
p3025
S'be spotted'
p3026
sS'prob'
p3027
F1.0
ssS'cheat <dobj>'
p3028
(dp3029
g57
I18
sg58
I18
sg59
g60
sg61
S'cheat'
p3030
sg63
F1.0
ssS'to build <dobj>'
p3031
(dp3032
g455
g456
sg457
I7
sg458
I7
sg459
S'to build'
p3033
sg461
F1.0
ssS'<subj> find discord'
p3034
(dp3035
g1060
I7
sg1061
I7
sg1062
g1063
sg1064
S'find discord'
p3036
sg1066
F1.0
ssS'blessings with <np>'
p3037
(dp3038
S'subj_freq'
p3039
I1
sS'freq'
p3040
I1
sS'type'
p3041
S'np'
p3042
sS'display'
p3043
S'blessings with'
p3044
sS'prob'
p3045
F1.0
ssS'devoted <dobj>'
p3046
(dp3047
g594
I9
sg595
I9
sg596
g1979
sg598
S'devoted'
p3048
sg600
F1.0
ssS'<subj> is written'
p3049
(dp3050
S'type'
p3051
S'subj'
p3052
sS'freq'
p3053
I6
sS'subj_freq'
p3054
I6
sS'display'
p3055
S'is written'
p3056
sS'prob'
p3057
F1.0
ssS'appears <dobj>'
p3058
(dp3059
g874
I22
sg875
I22
sg876
g2391
sg878
S'appears'
p3060
sg880
F1.0
ssS'received <dobj>'
p3061
(dp3062
g1630
I2
sg1631
I2
sg1632
S'dobj'
p3063
sg1634
S'received'
p3064
sg1636
F1.0
ssS'portraying <dobj>'
p3065
(dp3066
g2464
S'dobj'
p3067
sg2466
I1
sg2467
I0
sg2468
S'portraying'
p3068
sg2470
F0.0
ssS'provides <dobj>'
p3069
(dp3070
g417
S'dobj'
p3071
sg419
I2
sg420
I2
sg421
S'provides'
p3072
sg423
F1.0
ssS'role in <np>'
p3073
(dp3074
S'subj_freq'
p3075
I1
sS'freq'
p3076
I1
sS'type'
p3077
S'np'
p3078
sS'display'
p3079
S'role in'
p3080
sS'prob'
p3081
F1.0
ssS'<subj> watching show'
p3082
(dp3083
S'type'
p3084
S'subj'
p3085
sS'freq'
p3086
I2
sS'subj_freq'
p3087
I2
sS'display'
p3088
S'watching show'
p3089
sS'prob'
p3090
F1.0
ssS'required <dobj>'
p3091
(dp3092
g97
I7
sg98
I7
sg99
g438
sg101
S'required'
p3093
sg103
F1.0
ssS'to define <dobj>'
p3094
(dp3095
g743
S'dobj'
p3096
sg745
I7
sg746
I7
sg747
S'to define'
p3097
sg749
F1.0
ssS'<subj> focused Ted'
p3098
(dp3099
g351
g645
sg353
I7
sg354
I7
sg355
S'focused Ted'
p3100
sg357
F1.0
ssS'<subj> excited'
p3101
(dp3102
g266
I21
sg267
I21
sg268
g269
sg270
S'excited'
p3103
sg272
F1.0
ssS'is located at <np>'
p3104
(dp3105
g1770
I2
sg1771
I2
sg1772
S'np'
p3106
sg1774
S'is located at'
p3107
sg1776
F1.0
ssS'<subj> being built'
p3108
(dp3109
g2321
I1
sg2322
I1
sg2323
g2324
sg2325
S'being built'
p3110
sg2327
F1.0
ssS'explain <dobj>'
p3111
(dp3112
g2841
I7
sg2842
I7
sg2843
g2844
sg2845
S'explain'
p3113
sg2847
F1.0
ssS'<subj> are considered'
p3114
(dp3115
S'type'
p3116
S'subj'
p3117
sS'freq'
p3118
I1
sS'subj_freq'
p3119
I1
sS'display'
p3120
S'are considered'
p3121
sS'prob'
p3122
F1.0
ssS'<subj> find'
p3123
(dp3124
g155
I20
sg156
I20
sg157
g158
sg159
S'find'
p3125
sg161
F1.0
ssS'guess <dobj>'
p3126
(dp3127
S'subj_freq'
p3128
I3
sS'freq'
p3129
I4
sS'type'
p3130
S'dobj'
p3131
sS'display'
p3132
S'guess'
p3133
sS'prob'
p3134
F0.75
ssS'to spot <dobj>'
p3135
(dp3136
S'subj_freq'
p3137
I1
sS'freq'
p3138
I1
sS'type'
p3139
S'dobj'
p3140
sS'display'
p3141
S'to spot'
p3142
sS'prob'
p3143
F1.0
ssS'<subj> explore'
p3144
(dp3145
g390
I2
sg391
I2
sg392
S'subj'
p3146
sg394
S'explore'
p3147
sg396
F1.0
ssS'<subj> belongs to do'
p3148
(dp3149
g164
g165
sg166
I7
sg167
I7
sg168
S'belongs to do'
p3150
sg170
F1.0
ssS'used <dobj>'
p3151
(dp3152
g1002
I7
sg1003
I9
sg1004
g1005
sg1006
S'used'
p3153
sg1008
F0.7777777777777778
ssS'<subj> visiting'
p3154
(dp3155
S'type'
p3156
S'subj'
p3157
sS'freq'
p3158
I6
sS'subj_freq'
p3159
I6
sS'display'
p3160
S'visiting'
p3161
sS'prob'
p3162
F1.0
ssS'<subj> helps people'
p3163
(dp3164
g524
I9
sg525
I9
sg526
g527
sg528
S'helps people'
p3165
sg530
F1.0
ssS'<subj> has been unveiled'
p3166
(dp3167
g2989
I1
sg2990
I1
sg2991
g2992
sg2993
S'has been unveiled'
p3168
sg2995
F1.0
ssS'taken <dobj>'
p3169
(dp3170
g2427
I1
sg2428
I1
sg2429
S'dobj'
p3171
sg2431
S'taken'
p3172
sg2433
F1.0
ssS'<subj> are built'
p3173
(dp3174
S'type'
p3175
S'subj'
p3176
sS'freq'
p3177
I1
sS'subj_freq'
p3178
I0
sS'display'
p3179
S'are built'
p3180
sS'prob'
p3181
F0.0
ssS'<subj> capture'
p3182
(dp3183
g1374
I4
sg1375
I4
sg1376
S'subj'
p3184
sg1378
S'capture'
p3185
sg1380
F1.0
ssS'<subj> fly year'
p3186
(dp3187
S'subj_freq'
p3188
I2
sS'freq'
p3189
I2
sS'type'
p3190
S'subj'
p3191
sS'display'
p3192
S'fly year'
p3193
sS'prob'
p3194
F1.0
ssS'to stay <dobj>'
p3195
(dp3196
g490
g491
sg492
I2
sg493
I2
sg494
S'to stay'
p3197
sg496
F1.0
ssS'<subj> brings'
p3198
(dp3199
S'subj_freq'
p3200
I1
sS'freq'
p3201
I1
sS'type'
p3202
S'subj'
p3203
sS'display'
p3204
S'brings'
p3205
sS'prob'
p3206
F1.0
ssS'<subj> was reached'
p3207
(dp3208
g2971
g2972
sg2973
I25
sg2974
I25
sg2975
S'was reached'
p3209
sg2977
F1.0
ssS'deserves <dobj>'
p3210
(dp3211
g203
g204
sg205
I8
sg206
I8
sg207
S'deserves'
p3212
sg209
F1.0
ssS'buy <dobj>'
p3213
(dp3214
g48
S'dobj'
p3215
sg50
I7
sg51
I7
sg52
S'buy'
p3216
sg54
F1.0
ssS'<subj> probing'
p3217
(dp3218
g88
g1118
sg90
I42
sg91
I42
sg92
S'probing'
p3219
sg94
F1.0
ssS'suppose <dobj>'
p3220
(dp3221
g2052
I7
sg2053
I7
sg2054
S'dobj'
p3222
sg2056
S'suppose'
p3223
sg2058
F1.0
ssS'feel <dobj>'
p3224
(dp3225
g2971
S'dobj'
p3226
sg2973
I40
sg2974
I40
sg2975
S'feel'
p3227
sg2977
F1.0
ssS'exercise <dobj>'
p3228
(dp3229
g2524
S'dobj'
p3230
sg2526
I9
sg2527
I9
sg2528
S'exercise'
p3231
sg2530
F1.0
ssS'<subj> decides'
p3232
(dp3233
S'type'
p3234
S'subj'
p3235
sS'freq'
p3236
I9
sS'subj_freq'
p3237
I9
sS'display'
p3238
S'decides'
p3239
sS'prob'
p3240
F1.0
ssS'told <dobj>'
p3241
(dp3242
g212
I19
sg213
I19
sg214
S'dobj'
p3243
sg216
S'told'
p3244
sg218
F1.0
ssS'incurred <dobj>'
p3245
(dp3246
g2858
S'dobj'
p3247
sg2860
I2
sg2861
I0
sg2862
S'incurred'
p3248
sg2864
F0.0
ssV<subj> have to is
p3249
(dp3250
g1257
g1258
sg1259
I2
sg1260
I2
sg1261
Vhave to is
p3251
sg1263
F1.0
ssS'<subj> walking Cuba'
p3252
(dp3253
g970
g1617
sg972
I4
sg973
I4
sg974
S'walking Cuba'
p3254
sg976
F1.0
ssS'exploring <dobj>'
p3255
(dp3256
S'subj_freq'
p3257
I1
sS'freq'
p3258
I1
sS'type'
p3259
S'dobj'
p3260
sS'display'
p3261
S'exploring'
p3262
sS'prob'
p3263
F1.0
ssS'done to reduced <dobj>'
p3264
(dp3265
g948
I3
sg949
I3
sg950
S'dobj'
p3266
sg952
S'done to reduced'
p3267
sg954
F1.0
ssS'<subj> creating structures'
p3268
(dp3269
g1648
I9
sg1649
I9
sg1650
g1651
sg1652
S'creating structures'
p3270
sg1654
F1.0
ssS'<subj> be explored'
p3271
(dp3272
g39
I9
sg40
I9
sg41
g464
sg43
S'be explored'
p3273
sg45
F1.0
ssS'needed to teach <dobj>'
p3274
(dp3275
g481
g2153
sg483
I21
sg484
I21
sg485
S'needed to teach'
p3276
sg487
F1.0
ssS'reduced <dobj>'
p3277
(dp3278
g948
I3
sg949
I3
sg950
g3266
sg952
S'reduced'
p3279
sg954
F1.0
ssS'<subj> see lot'
p3280
(dp3281
g302
I21
sg303
I21
sg304
g305
sg306
S'see lot'
p3282
sg308
F1.0
ssS'<subj> originated'
p3283
(dp3284
g3
g4
sg5
I1
sg6
I1
sg7
S'originated'
p3285
sg9
F1.0
ssS'<subj> participating'
p3286
(dp3287
g1854
I2
sg1855
I2
sg1856
S'subj'
p3288
sg1858
S'participating'
p3289
sg1860
F1.0
ssS'<subj> explains'
p3290
(dp3291
g88
g1118
sg90
I42
sg91
I42
sg92
S'explains'
p3292
sg94
F1.0
ssS'<subj> distinguished'
p3293
(dp3294
g2163
I2
sg2164
I2
sg2165
g2166
sg2167
S'distinguished'
p3295
sg2169
F1.0
ssS'<subj> bless'
p3296
(dp3297
g381
g1370
sg383
I9
sg384
I9
sg385
S'bless'
p3298
sg387
F1.0
ssS'attached <dobj>'
p3299
(dp3300
g3051
S'dobj'
p3301
sg3053
I6
sg3054
I6
sg3055
S'attached'
p3302
sg3057
F1.0
ssS'<subj> open'
p3303
(dp3304
g1885
g2339
sg1887
I4
sg1888
I4
sg1889
S'open'
p3305
sg1891
F1.0
ssS'saw education by <np>'
p3306
(dp3307
g731
S'np'
p3308
sg733
I7
sg734
I7
sg735
S'saw education by'
p3309
sg737
F1.0
ssS'<subj> was knew'
p3310
(dp3311
g119
g120
sg121
I7
sg122
I7
sg123
S'was knew'
p3312
sg125
F1.0
ssS'<subj> ensure'
p3313
(dp3314
g564
g1224
sg566
I20
sg567
I20
sg568
S'ensure'
p3315
sg570
F1.0
ssS'<subj> brings faith'
p3316
(dp3317
g3200
I1
sg3201
I1
sg3202
g3203
sg3204
S'brings faith'
p3318
sg3206
F1.0
ssS'wants <dobj>'
p3319
(dp3320
g1724
S'dobj'
p3321
sg1726
I7
sg1727
I7
sg1728
S'wants'
p3322
sg1730
F1.0
ssS'learn <dobj>'
p3323
(dp3324
g624
S'dobj'
p3325
sg626
I9
sg627
I9
sg628
S'learn'
p3326
sg630
F1.0
ssS'sun at <np>'
p3327
(dp3328
g856
S'np'
p3329
sg858
I1
sg859
I1
sg860
S'sun at'
p3330
sg862
F1.0
ssS'preserving <dobj>'
p3331
(dp3332
g2375
I2
sg2376
I2
sg2377
S'dobj'
p3333
sg2379
S'preserving'
p3334
sg2381
F1.0
ssS'called <dobj>'
p3335
(dp3336
g1241
I3
sg1242
I3
sg1243
S'dobj'
p3337
sg1245
S'called'
p3338
sg1247
F1.0
ssS'evaluate <dobj>'
p3339
(dp3340
S'type'
p3341
S'dobj'
p3342
sS'freq'
p3343
I2
sS'subj_freq'
p3344
I2
sS'display'
p3345
S'evaluate'
p3346
sS'prob'
p3347
F1.0
ssS'<subj> realize'
p3348
(dp3349
g970
g1617
sg972
I4
sg973
I4
sg974
S'realize'
p3350
sg976
F1.0
ssS'<subj> witnessed'
p3351
(dp3352
g57
I9
sg58
I9
sg59
g985
sg61
S'witnessed'
p3353
sg63
F1.0
ssS'surprised <dobj>'
p3354
(dp3355
g3
g1404
sg5
I1
sg6
I1
sg7
S'surprised'
p3356
sg9
F1.0
ssS'to accepted <dobj>'
p3357
(dp3358
g1002
I7
sg1003
I7
sg1004
g1005
sg1006
S'to accepted'
p3359
sg1008
F1.0
ssS'<subj> feel'
p3360
(dp3361
g2971
g2972
sg2973
I40
sg2974
I40
sg2975
S'feel'
p3362
sg2977
F1.0
ssS'agree <dobj>'
p3363
(dp3364
g1025
S'dobj'
p3365
sg1027
I1
sg1028
I1
sg1029
S'agree'
p3366
sg1031
F1.0
ssS'end <dobj>'
p3367
(dp3368
g2202
S'dobj'
p3369
sg2204
I3
sg2205
I3
sg2206
S'end'
p3370
sg2208
F1.0
ssS'<subj> need to try'
p3371
(dp3372
S'subj_freq'
p3373
I23
sS'freq'
p3374
I23
sS'type'
p3375
S'subj'
p3376
sS'display'
p3377
S'need to try'
p3378
sS'prob'
p3379
F1.0
ssS'win <dobj>'
p3380
(dp3381
g2773
I4
sg2774
I4
sg2775
g2776
sg2777
S'win'
p3382
sg2779
F1.0
ssS'<subj> standing rows'
p3383
(dp3384
g2610
I2
sg2611
I2
sg2612
S'subj'
p3385
sg2614
S'standing rows'
p3386
sg2616
F1.0
ssS'<subj> make friends'
p3387
(dp3388
S'type'
p3389
S'subj'
p3390
sS'freq'
p3391
I1
sS'subj_freq'
p3392
I1
sS'display'
p3393
S'make friends'
p3394
sS'prob'
p3395
F1.0
ssS'<subj> considered'
p3396
(dp3397
S'type'
p3398
S'subj'
p3399
sS'freq'
p3400
I2
sS'subj_freq'
p3401
I2
sS'display'
p3402
S'considered'
p3403
sS'prob'
p3404
F1.0
ssS'<subj> listening to stop'
p3405
(dp3406
g918
I21
sg919
I21
sg920
g1569
sg922
S'listening to stop'
p3407
sg924
F1.0
ssS'<subj> think opportunity'
p3408
(dp3409
g1060
I7
sg1061
I7
sg1062
g1063
sg1064
S'think opportunity'
p3410
sg1066
F1.0
ssS'<subj> delighted'
p3411
(dp3412
g1796
g1797
sg1798
I1
sg1799
I1
sg1800
S'delighted'
p3413
sg1802
F1.0
ssS'cool <dobj>'
p3414
(dp3415
g2300
g2301
sg2302
I1
sg2303
I1
sg2304
S'cool'
p3416
sg2306
F1.0
ssS'<subj> be undone'
p3417
(dp3418
g257
I21
sg258
I21
sg259
g260
sg261
S'be undone'
p3419
sg263
F1.0
ssS'think to think <dobj>'
p3420
(dp3421
g2524
g3230
sg2526
I9
sg2527
I9
sg2528
S'think to think'
p3422
sg2530
F1.0
ssS'soldiers for <np>'
p3423
(dp3424
S'subj_freq'
p3425
I1
sS'freq'
p3426
I1
sS'type'
p3427
S'np'
p3428
sS'display'
p3429
S'soldiers for'
p3430
sS'prob'
p3431
F1.0
ssS'<subj> have canvas'
p3432
(dp3433
g1180
g2606
sg1182
I1
sg1183
I1
sg1184
S'have canvas'
p3434
sg1186
F1.0
ssS'start <dobj>'
p3435
(dp3436
S'type'
p3437
S'dobj'
p3438
sS'freq'
p3439
I7
sS'subj_freq'
p3440
I7
sS'display'
p3441
S'start'
p3442
sS'prob'
p3443
F1.0
ssS'fly <dobj>'
p3444
(dp3445
g2925
I11
sg2926
I11
sg2927
S'dobj'
p3446
sg2929
S'fly'
p3447
sg2931
F1.0
ssS'<subj> governing'
p3448
(dp3449
g257
I21
sg258
I21
sg259
g260
sg261
S'governing'
p3450
sg263
F1.0
ssS'<subj> prevent terrorism'
p3451
(dp3452
g838
g2089
sg840
I21
sg841
I21
sg842
S'prevent terrorism'
p3453
sg844
F1.0
ssS'inaugurated <dobj>'
p3454
(dp3455
g1482
S'dobj'
p3456
sg1484
I6
sg1485
I3
sg1486
S'inaugurated'
p3457
sg1488
F0.5
ssS'<subj> have reason'
p3458
(dp3459
g896
g897
sg898
I6
sg899
I6
sg900
S'have reason'
p3460
sg902
F1.0
ssS'<subj> hit'
p3461
(dp3462
g1711
g2533
sg1713
I21
sg1714
I21
sg1715
S'hit'
p3463
sg1717
F1.0
ssS'<subj> take dancers'
p3464
(dp3465
S'type'
p3466
S'subj'
p3467
sS'freq'
p3468
I1
sS'subj_freq'
p3469
I1
sS'display'
p3470
S'take dancers'
p3471
sS'prob'
p3472
F1.0
ssS'<subj> presents creation'
p3473
(dp3474
S'subj_freq'
p3475
I1
sS'freq'
p3476
I1
sS'type'
p3477
S'subj'
p3478
sS'display'
p3479
S'presents creation'
p3480
sS'prob'
p3481
F1.0
ssS'tapping <dobj>'
p3482
(dp3483
S'type'
p3484
S'dobj'
p3485
sS'freq'
p3486
I1
sS'subj_freq'
p3487
I0
sS'display'
p3488
S'tapping'
p3489
sS'prob'
p3490
F0.0
ssS'offers <dobj>'
p3491
(dp3492
S'subj_freq'
p3493
I5
sS'freq'
p3494
I6
sS'type'
p3495
S'dobj'
p3496
sS'display'
p3497
S'offers'
p3498
sS'prob'
p3499
F0.8333333333333334
ssS'name from <np>'
p3500
(dp3501
g2858
S'np'
p3502
sg2860
I2
sg2861
I0
sg2862
S'name from'
p3503
sg2864
F0.0
ssS'<subj> keep'
p3504
(dp3505
g1932
g1975
sg1934
I10
sg1935
I10
sg1936
S'keep'
p3506
sg1938
F1.0
ssS'enchant <dobj>'
p3507
(dp3508
S'type'
p3509
S'dobj'
p3510
sS'freq'
p3511
I1
sS'subj_freq'
p3512
I1
sS'display'
p3513
S'enchant'
p3514
sS'prob'
p3515
F1.0
ssS'affected <dobj>'
p3516
(dp3517
S'type'
p3518
S'dobj'
p3519
sS'freq'
p3520
I2
sS'subj_freq'
p3521
I2
sS'display'
p3522
S'affected'
p3523
sS'prob'
p3524
F1.0
ssS'passion for <np>'
p3525
(dp3526
S'subj_freq'
p3527
I2
sS'freq'
p3528
I2
sS'type'
p3529
S'np'
p3530
sS'display'
p3531
S'passion for'
p3532
sS'prob'
p3533
F1.0
ssS'<subj> send'
p3534
(dp3535
g1137
I1
sg1138
I1
sg1139
g1140
sg1141
S'send'
p3536
sg1143
F1.0
ssS'<subj> stand'
p3537
(dp3538
g333
S'subj'
p3539
sg335
I22
sg336
I22
sg337
S'stand'
p3540
sg339
F1.0
ssS'<subj> giving'
p3541
(dp3542
g3137
I2
sg3138
I2
sg3139
S'subj'
p3543
sg3141
S'giving'
p3544
sg3143
F1.0
ssS'<subj> thinks'
p3545
(dp3546
g57
I9
sg58
I9
sg59
g985
sg61
S'thinks'
p3547
sg63
F1.0
ssS'<subj> have problem'
p3548
(dp3549
g399
I4
sg400
I4
sg401
g402
sg403
S'have problem'
p3550
sg405
F1.0
ssS'giving <dobj>'
p3551
(dp3552
g3137
I2
sg3138
I2
sg3139
g3140
sg3141
S'giving'
p3553
sg3143
F1.0
ssS'is known for <np>'
p3554
(dp3555
S'type'
p3556
S'np'
p3557
sS'freq'
p3558
I2
sS'subj_freq'
p3559
I2
sS'display'
p3560
S'is known for'
p3561
sS'prob'
p3562
F1.0
ssS'returned <dobj>'
p3563
(dp3564
g2411
S'dobj'
p3565
sg2413
I1
sg2414
I1
sg2415
S'returned'
p3566
sg2417
F1.0
ssS'<subj> was designed'
p3567
(dp3568
g691
g692
sg693
I1
sg694
I1
sg695
S'was designed'
p3569
sg697
F1.0
ssS'<subj> attached'
p3570
(dp3571
g3051
g3052
sg3053
I6
sg3054
I6
sg3055
S'attached'
p3572
sg3057
F1.0
ssS'<subj> required wealth'
p3573
(dp3574
g97
I7
sg98
I7
sg99
g100
sg101
S'required wealth'
p3575
sg103
F1.0
ssS'<subj> be attributed'
p3576
(dp3577
g429
g533
sg431
I7
sg432
I7
sg433
S'be attributed'
p3578
sg435
F1.0
ssS'visit <dobj>'
p3579
(dp3580
g1748
I9
sg1749
I9
sg1750
S'dobj'
p3581
sg1752
S'visit'
p3582
sg1754
F1.0
ssS'<subj> analyze'
p3583
(dp3584
g564
g1224
sg566
I19
sg567
I19
sg568
S'analyze'
p3585
sg570
F1.0
ssS'<subj> guess'
p3586
(dp3587
g3128
I3
sg3129
I4
sg3130
S'subj'
p3588
sg3132
S'guess'
p3589
sg3134
F0.75
ssS'<subj> offers Great'
p3590
(dp3591
S'subj_freq'
p3592
I1
sS'freq'
p3593
I1
sS'type'
p3594
S'subj'
p3595
sS'display'
p3596
S'offers Great'
p3597
sS'prob'
p3598
F1.0
ssS'<subj> awaiting'
p3599
(dp3600
g2184
I1
sg2185
I1
sg2186
S'subj'
p3601
sg2188
S'awaiting'
p3602
sg2190
F1.0
ssV<subj> watched
p3603
(dp3604
g1257
g1258
sg1259
I2
sg1260
I2
sg1261
Vwatched
p3605
sg1263
F1.0
ssS'<subj> shining'
p3606
(dp3607
g146
g797
sg148
I1
sg149
I1
sg150
S'shining'
p3608
sg152
F1.0
ssS'<subj> reduced'
p3609
(dp3610
g948
I3
sg949
I3
sg950
g951
sg952
S'reduced'
p3611
sg954
F1.0
ssS'yard at <np>'
p3612
(dp3613
g2321
I1
sg2322
I1
sg2323
S'np'
p3614
sg2325
S'yard at'
p3615
sg2327
F1.0
ssS'<subj> exhibits works'
p3616
(dp3617
g1320
I1
sg1321
I1
sg1322
g1323
sg1324
S'exhibits works'
p3618
sg1326
F1.0
ssS'<subj> hidden sort'
p3619
(dp3620
g970
g1617
sg972
I4
sg973
I4
sg974
S'hidden sort'
p3621
sg976
F1.0
ssS'relax <dobj>'
p3622
(dp3623
g1739
I2
sg1740
I2
sg1741
S'dobj'
p3624
sg1743
S'relax'
p3625
sg1745
F1.0
ssS'wish <dobj>'
p3626
(dp3627
S'subj_freq'
p3628
I32
sS'freq'
p3629
I32
sS'type'
p3630
S'dobj'
p3631
sS'display'
p3632
S'wish'
p3633
sS'prob'
p3634
F1.0
ssS'<subj> wish'
p3635
(dp3636
g3628
I32
sg3629
I32
sg3630
S'subj'
p3637
sg3632
S'wish'
p3638
sg3634
F1.0
ssS'<subj> displaying'
p3639
(dp3640
g676
S'subj'
p3641
sg678
I2
sg679
I2
sg680
S'displaying'
p3642
sg682
F1.0
ssS'<subj> start b'
p3643
(dp3644
g3437
S'subj'
p3645
sg3439
I6
sg3440
I6
sg3441
S'start b'
p3646
sg3443
F1.0
ssS'<subj> making senses'
p3647
(dp3648
g3051
g3052
sg3053
I6
sg3054
I6
sg3055
S'making senses'
p3649
sg3057
F1.0
ssS'preserve <dobj>'
p3650
(dp3651
g1904
S'dobj'
p3652
sg1906
I21
sg1907
I21
sg1908
S'preserve'
p3653
sg1910
F1.0
ssS'killing <dobj>'
p3654
(dp3655
g2411
g3565
sg2413
I1
sg2414
I1
sg2415
S'killing'
p3656
sg2417
F1.0
ssS'seeing <dobj>'
p3657
(dp3658
g1060
I7
sg1061
I7
sg1062
S'dobj'
p3659
sg1064
S'seeing'
p3660
sg1066
F1.0
ssS'<subj> having'
p3661
(dp3662
g2448
S'subj'
p3663
sg2450
I8
sg2451
I8
sg2452
S'having'
p3664
sg2454
F1.0
ssS'<subj> according studies'
p3665
(dp3666
g97
I7
sg98
I7
sg99
g100
sg101
S'according studies'
p3667
sg103
F1.0
ssS'construct <dobj>'
p3668
(dp3669
g2287
I0
sg2288
I21
sg2289
S'dobj'
p3670
sg2291
S'construct'
p3671
sg2293
F0.0
ssS'<subj> saw'
p3672
(dp3673
g731
g732
sg733
I7
sg734
I7
sg735
S'saw'
p3674
sg737
F1.0
ssS'legacy with <np>'
p3675
(dp3676
g2581
S'np'
p3677
sg2583
I4
sg2584
I4
sg2585
S'legacy with'
p3678
sg2587
F1.0
ssS'seem <dobj>'
p3679
(dp3680
S'subj_freq'
p3681
I8
sS'freq'
p3682
I8
sS'type'
p3683
S'dobj'
p3684
sS'display'
p3685
S'seem'
p3686
sS'prob'
p3687
F1.0
ssS'delighted <dobj>'
p3688
(dp3689
g1796
S'dobj'
p3690
sg1798
I1
sg1799
I1
sg1800
S'delighted'
p3691
sg1802
F1.0
ssS'grown <dobj>'
p3692
(dp3693
g2019
S'dobj'
p3694
sg2021
I1
sg2022
I1
sg2023
S'grown'
p3695
sg2025
F1.0
ssS'added <dobj>'
p3696
(dp3697
g137
I5
sg138
I6
sg139
S'dobj'
p3698
sg141
S'added'
p3699
sg143
F0.8333333333333334
ssS'<subj> bringing power'
p3700
(dp3701
S'type'
p3702
S'subj'
p3703
sS'freq'
p3704
I23
sS'subj_freq'
p3705
I23
sS'display'
p3706
S'bringing power'
p3707
sS'prob'
p3708
F1.0
ssS'speak <dobj>'
p3709
(dp3710
S'type'
p3711
S'dobj'
p3712
sS'freq'
p3713
I7
sS'subj_freq'
p3714
I7
sS'display'
p3715
S'speak'
p3716
sS'prob'
p3717
F1.0
ssS'involves use of <np>'
p3718
(dp3719
S'type'
p3720
S'np'
p3721
sS'freq'
p3722
I2
sS'subj_freq'
p3723
I2
sS'display'
p3724
S'involves use of'
p3725
sS'prob'
p3726
F1.0
ssS'sites from <np>'
p3727
(dp3728
g3128
I2
sg3129
I2
sg3130
S'np'
p3729
sg3132
S'sites from'
p3730
sg3134
F1.0
ssS'<subj> find scene'
p3731
(dp3732
g2610
I2
sg2611
I2
sg2612
g3385
sg2614
S'find scene'
p3733
sg2616
F1.0
ssS'pays <dobj>'
p3734
(dp3735
g137
I4
sg138
I4
sg139
g3698
sg141
S'pays'
p3736
sg143
F1.0
ssS'<subj> had sort'
p3737
(dp3738
g970
g1617
sg972
I4
sg973
I4
sg974
S'had sort'
p3739
sg976
F1.0
ssS'<subj> presents'
p3740
(dp3741
S'type'
p3742
S'subj'
p3743
sS'freq'
p3744
I3
sS'subj_freq'
p3745
I3
sS'display'
p3746
S'presents'
p3747
sS'prob'
p3748
F1.0
ssS'<subj> announce winner'
p3749
(dp3750
g3341
S'subj'
p3751
sg3343
I2
sg3344
I2
sg3345
S'announce winner'
p3752
sg3347
F1.0
ssS'<subj> want'
p3753
(dp3754
g1621
I49
sg1622
I49
sg1623
g1624
sg1625
S'want'
p3755
sg1627
F1.0
ssS'<subj> announce'
p3756
(dp3757
g3341
g3751
sg3343
I2
sg3344
I2
sg3345
S'announce'
p3758
sg3347
F1.0
ssS'styles of <np>'
p3759
(dp3760
g3175
S'np'
p3761
sg3177
I1
sg3178
I0
sg3179
S'styles of'
p3762
sg3181
F0.0
ssS'given <dobj>'
p3763
(dp3764
g722
S'dobj'
p3765
sg724
I10
sg725
I10
sg726
S'given'
p3766
sg728
F1.0
ssS'<subj> learned'
p3767
(dp3768
g524
I13
sg525
I13
sg526
g527
sg528
S'learned'
p3769
sg530
F1.0
ssS'realize <dobj>'
p3770
(dp3771
g970
g971
sg972
I4
sg973
I4
sg974
S'realize'
p3772
sg976
F1.0
ssS'<subj> varied'
p3773
(dp3774
S'type'
p3775
S'subj'
p3776
sS'freq'
p3777
I3
sS'subj_freq'
p3778
I3
sS'display'
p3779
S'varied'
p3780
sS'prob'
p3781
F1.0
ssS'<subj> spot'
p3782
(dp3783
g3137
I1
sg3138
I1
sg3139
g3543
sg3141
S'spot'
p3784
sg3143
F1.0
ssS'<subj> agree'
p3785
(dp3786
g1025
S'subj'
p3787
sg1027
I1
sg1028
I1
sg1029
S'agree'
p3788
sg1031
F1.0
ssS'<subj> struck'
p3789
(dp3790
S'subj_freq'
p3791
I21
sS'freq'
p3792
I21
sS'type'
p3793
S'subj'
p3794
sS'display'
p3795
S'struck'
p3796
sS'prob'
p3797
F1.0
ssV<subj> blown
p3798
(dp3799
g1257
g1258
sg1259
I2
sg1260
I2
sg1261
Vblown
p3800
sg1263
F1.0
ssS'explained <dobj>'
p3801
(dp3802
g2925
I9
sg2926
I9
sg2927
g3446
sg2929
S'explained'
p3803
sg2931
F1.0
ssS'<subj> places'
p3804
(dp3805
g752
g753
sg754
I4
sg755
I4
sg756
S'places'
p3806
sg758
F1.0
ssS'<subj> varied birds'
p3807
(dp3808
S'type'
p3809
S'subj'
p3810
sS'freq'
p3811
I1
sS'subj_freq'
p3812
I1
sS'display'
p3813
S'varied birds'
p3814
sS'prob'
p3815
F1.0
ssS'led book that <np>'
p3816
(dp3817
g761
I9
sg762
I9
sg763
S'np'
p3818
sg765
S'led book that'
p3819
sg767
F1.0
ssS'<subj> carved stone'
p3820
(dp3821
g615
I0
sg616
I1
sg617
g618
sg619
S'carved stone'
p3822
sg621
F0.0
ssS'flying <dobj>'
p3823
(dp3824
S'type'
p3825
S'dobj'
p3826
sS'freq'
p3827
I1
sS'subj_freq'
p3828
I1
sS'display'
p3829
S'flying'
p3830
sS'prob'
p3831
F1.0
ssS'<subj> stay food'
p3832
(dp3833
g2626
g2627
sg2628
I1
sg2629
I1
sg2630
S'stay food'
p3834
sg2632
F1.0
ssS'<subj> amazed Festival'
p3835
(dp3836
g315
g316
sg317
I2
sg318
I2
sg319
S'amazed Festival'
p3837
sg321
F1.0
ssS'need to told <dobj>'
p3838
(dp3839
g212
I19
sg213
I19
sg214
g3243
sg216
S'need to told'
p3840
sg218
F1.0
ssS'built <dobj>'
p3841
(dp3842
S'subj_freq'
p3843
I1
sS'freq'
p3844
I4
sS'type'
p3845
S'dobj'
p3846
sS'display'
p3847
S'built'
p3848
sS'prob'
p3849
F0.25
ssS'led <dobj>'
p3850
(dp3851
g761
I9
sg762
I9
sg763
g1720
sg765
S'led'
p3852
sg767
F1.0
ssS'to need <dobj>'
p3853
(dp3854
S'subj_freq'
p3855
I1
sS'freq'
p3856
I1
sS'type'
p3857
S'dobj'
p3858
sS'display'
p3859
S'to need'
p3860
sS'prob'
p3861
F1.0
ssS'<subj> involves'
p3862
(dp3863
g1560
I3
sg1561
I3
sg1562
S'subj'
p3864
sg1564
S'involves'
p3865
sg1566
F1.0
ssS'<subj> need to remember'
p3866
(dp3867
g2804
S'subj'
p3868
sg2806
I6
sg2807
I6
sg2808
S'need to remember'
p3869
sg2810
F1.0
ssS'to do <dobj>'
p3870
(dp3871
g1038
S'dobj'
p3872
sg1040
I49
sg1041
I49
sg1042
S'to do'
p3873
sg1044
F1.0
ssS'left <dobj>'
p3874
(dp3875
g1639
S'dobj'
p3876
sg1641
I11
sg1642
I11
sg1643
S'left'
p3877
sg1645
F1.0
ssS'<subj> is gave'
p3878
(dp3879
g1060
I7
sg1061
I7
sg1062
g1063
sg1064
S'is gave'
p3880
sg1066
F1.0
ssS'decides <dobj>'
p3881
(dp3882
g3234
S'dobj'
p3883
sg3236
I9
sg3237
I9
sg3238
S'decides'
p3884
sg3240
F1.0
ssS'<subj> making'
p3885
(dp3886
g1408
g1520
sg1410
I34
sg1411
I34
sg1412
S'making'
p3887
sg1414
F1.0
ssS'<subj> changing'
p3888
(dp3889
g39
I10
sg40
I10
sg41
g464
sg43
S'changing'
p3890
sg45
F1.0
ssS'<subj> stop'
p3891
(dp3892
g918
I21
sg919
I21
sg920
g1569
sg922
S'stop'
p3893
sg924
F1.0
ssS'<subj> done'
p3894
(dp3895
g1469
I11
sg1470
I11
sg1471
g1472
sg1473
S'done'
p3896
sg1475
F1.0
ssS'spot <dobj>'
p3897
(dp3898
g3137
I1
sg3138
I1
sg3139
g3140
sg3141
S'spot'
p3899
sg3143
F1.0
ssS'to remind <dobj>'
p3900
(dp3901
g1836
S'dobj'
p3902
sg1838
I4
sg1839
I4
sg1840
S'to remind'
p3903
sg1842
F1.0
ssS'<subj> please details'
p3904
(dp3905
S'type'
p3906
S'subj'
p3907
sS'freq'
p3908
I2
sS'subj_freq'
p3909
I2
sS'display'
p3910
S'please details'
p3911
sS'prob'
p3912
F1.0
ssS'<subj> wanted'
p3913
(dp3914
g1681
I7
sg1682
I7
sg1683
g2343
sg1685
S'wanted'
p3915
sg1687
F1.0
ssS'<subj> see things'
p3916
(dp3917
g333
g3539
sg335
I21
sg336
I21
sg337
S'see things'
p3918
sg339
F1.0
ssS'<subj> walking'
p3919
(dp3920
g970
g1617
sg972
I4
sg973
I4
sg974
S'walking'
p3921
sg976
F1.0
ssS'connected <dobj>'
p3922
(dp3923
g106
I25
sg107
I25
sg108
g109
sg110
S'connected'
p3924
sg112
F1.0
ssS'<subj> please experience'
p3925
(dp3926
S'subj_freq'
p3927
I2
sS'freq'
p3928
I2
sS'type'
p3929
S'subj'
p3930
sS'display'
p3931
S'please experience'
p3932
sS'prob'
p3933
F1.0
ssS'<subj> are depressed'
p3934
(dp3935
g302
I21
sg303
I21
sg304
g305
sg306
S'are depressed'
p3936
sg308
F1.0
ssS'<subj> make fluctuations'
p3937
(dp3938
g564
g1224
sg566
I19
sg567
I19
sg568
S'make fluctuations'
p3939
sg570
F1.0
ssS'fill <dobj>'
p3940
(dp3941
g30
I2
sg31
I2
sg32
S'dobj'
p3942
sg34
S'fill'
p3943
sg36
F1.0
ssS'<subj> getting proportion'
p3944
(dp3945
g1421
S'subj'
p3946
sg1423
I7
sg1424
I7
sg1425
S'getting proportion'
p3947
sg1427
F1.0
ssS'listening to stop <dobj>'
p3948
(dp3949
g918
I21
sg919
I21
sg920
g2593
sg922
S'listening to stop'
p3950
sg924
F1.0
ssS'to arrive <dobj>'
p3951
(dp3952
g2913
g2914
sg2915
I7
sg2916
I7
sg2917
S'to arrive'
p3953
sg2919
F1.0
ssS'<subj> win stand'
p3954
(dp3955
g1757
I2
sg1758
I2
sg1759
g1760
sg1761
S'win stand'
p3956
sg1763
F1.0
ssS'<subj> feel conclusion'
p3957
(dp3958
g2971
g2972
sg2973
I25
sg2974
I25
sg2975
S'feel conclusion'
p3959
sg2977
F1.0
ssS'<subj> classified'
p3960
(dp3961
S'subj_freq'
p3962
I0
sS'freq'
p3963
I1
sS'type'
p3964
S'subj'
p3965
sS'display'
p3966
S'classified'
p3967
sS'prob'
p3968
F0.0
ssS'<subj> taking breeze'
p3969
(dp3970
g1430
I2
sg1431
I2
sg1432
S'subj'
p3971
sg1434
S'taking breeze'
p3972
sg1436
F1.0
ssS'<subj> returned'
p3973
(dp3974
g2411
g2412
sg2413
I1
sg2414
I1
sg2415
S'returned'
p3975
sg2417
F1.0
ssS'to enjoy <dobj>'
p3976
(dp3977
S'type'
p3978
S'dobj'
p3979
sS'freq'
p3980
I1
sS'subj_freq'
p3981
I1
sS'display'
p3982
S'to enjoy'
p3983
sS'prob'
p3984
F1.0
ssS'<subj> lost'
p3985
(dp3986
g1100
I55
sg1101
I55
sg1102
S'subj'
p3987
sg1104
S'lost'
p3988
sg1106
F1.0
ssS'<subj> takes'
p3989
(dp3990
g1232
I0
sg1233
I2
sg1234
S'subj'
p3991
sg1236
S'takes'
p3992
sg1238
F0.0
ssS'<subj> has tourist'
p3993
(dp3994
g1885
g2339
sg1887
I4
sg1888
I4
sg1889
S'has tourist'
p3995
sg1891
F1.0
ssS'<subj> bathing'
p3996
(dp3997
g1307
I0
sg1308
I1
sg1309
g2440
sg1311
S'bathing'
p3998
sg1313
F0.0
ssS'carved <dobj>'
p3999
(dp4000
g615
I0
sg616
I1
sg617
S'dobj'
p4001
sg619
S'carved'
p4002
sg621
F0.0
ssS'<subj> conserve'
p4003
(dp4004
g1586
S'subj'
p4005
sg1588
I4
sg1589
I4
sg1590
S'conserve'
p4006
sg1592
F1.0
ssS'<subj> depressed youngsters'
p4007
(dp4008
g302
I21
sg303
I21
sg304
g305
sg306
S'depressed youngsters'
p4009
sg308
F1.0
ssS'to ensure <dobj>'
p4010
(dp4011
g564
g565
sg566
I19
sg567
I19
sg568
S'to ensure'
p4012
sg570
F1.0
ssS'struck <dobj>'
p4013
(dp4014
g3791
I21
sg3792
I21
sg3793
S'dobj'
p4015
sg3795
S'struck'
p4016
sg3797
F1.0
ssS'learning <dobj>'
p4017
(dp4018
g2732
I8
sg2733
I8
sg2734
S'dobj'
p4019
sg2736
S'learning'
p4020
sg2738
F1.0
ssS'<subj> restored time'
p4021
(dp4022
g2760
g2761
sg2762
I2
sg2763
I2
sg2764
S'restored time'
p4023
sg2766
F1.0
ssS'started <dobj>'
p4024
(dp4025
S'type'
p4026
S'dobj'
p4027
sS'freq'
p4028
I2
sS'subj_freq'
p4029
I0
sS'display'
p4030
S'started'
p4031
sS'prob'
p4032
F0.0
ssS'<subj> have are waste'
p4033
(dp4034
g896
g897
sg898
I6
sg899
I6
sg900
S'have are waste'
p4035
sg902
F1.0
ssS'<subj> cheat'
p4036
(dp4037
g57
I18
sg58
I18
sg59
g985
sg61
S'cheat'
p4038
sg63
F1.0
ssS'<subj> invite entries'
p4039
(dp4040
g546
g547
sg548
I2
sg549
I2
sg550
S'invite entries'
p4041
sg552
F1.0
ssS'deserves to fill <dobj>'
p4042
(dp4043
g203
g204
sg205
I7
sg206
I7
sg207
S'deserves to fill'
p4044
sg209
F1.0
ssS'bring <dobj>'
p4045
(dp4046
g1341
I3
sg1342
I3
sg1343
S'dobj'
p4047
sg1345
S'bring'
p4048
sg1347
F1.0
ssS'<subj> meets breadth'
p4049
(dp4050
g1770
I2
sg1771
I2
sg1772
S'subj'
p4051
sg1774
S'meets breadth'
p4052
sg1776
F1.0
ssS'<subj> sharing God'
p4053
(dp4054
g381
g1370
sg383
I7
sg384
I7
sg385
S'sharing God'
p4055
sg387
F1.0
ssS'<subj> learned to play'
p4056
(dp4057
g970
g1617
sg972
I4
sg973
I4
sg974
S'learned to play'
p4058
sg976
F1.0
ssS'<subj> know crops'
p4059
(dp4060
g801
I9
sg802
I9
sg803
g804
sg805
S'know crops'
p4061
sg807
F1.0
ssS'<subj> deserves to fill'
p4062
(dp4063
g203
S'subj'
p4064
sg205
I7
sg206
I7
sg207
S'deserves to fill'
p4065
sg209
F1.0
ssS'<subj> unveiled'
p4066
(dp4067
g594
I10
sg595
I10
sg596
g597
sg598
S'unveiled'
p4068
sg600
F1.0
ssS'to see <dobj>'
p4069
(dp4070
g606
g607
sg608
I50
sg609
I50
sg610
S'to see'
p4071
sg612
F1.0
ssS'to creating <dobj>'
p4072
(dp4073
g1648
I9
sg1649
I9
sg1650
S'dobj'
p4074
sg1652
S'to creating'
p4075
sg1654
F1.0
ssS'<subj> dedicated'
p4076
(dp4077
g636
g637
sg638
I3
sg639
I3
sg640
S'dedicated'
p4078
sg642
F1.0
ssS'leads <dobj>'
p4079
(dp4080
g555
I21
sg556
I22
sg557
g1516
sg559
S'leads'
p4081
sg561
F0.9545454545454546
ssS'<subj> apply'
p4082
(dp4083
g649
I9
sg650
I9
sg651
g652
sg653
S'apply'
p4084
sg655
F1.0
ssS'<subj> being'
p4085
(dp4086
g1530
S'subj'
p4087
sg1532
I21
sg1533
I21
sg1534
S'being'
p4088
sg1536
F1.0
ssS'<subj> want to hold'
p4089
(dp4090
g155
I7
sg156
I7
sg157
g158
sg159
S'want to hold'
p4091
sg161
F1.0
ssS'spent <dobj>'
p4092
(dp4093
g212
I19
sg213
I19
sg214
g3243
sg216
S'spent'
p4094
sg218
F1.0
ssS'kind with <np>'
p4095
(dp4096
S'type'
p4097
S'np'
p4098
sS'freq'
p4099
I1
sS'subj_freq'
p4100
I1
sS'display'
p4101
S'kind with'
p4102
sS'prob'
p4103
F1.0
ssS'<subj> received'
p4104
(dp4105
g1630
I2
sg1631
I2
sg1632
g1633
sg1634
S'received'
p4106
sg1636
F1.0
ssS'<subj> describe'
p4107
(dp4108
S'subj_freq'
p4109
I7
sS'freq'
p4110
I7
sS'type'
p4111
S'subj'
p4112
sS'display'
p4113
S'describe'
p4114
sS'prob'
p4115
F1.0
ssS'<subj> governing ruling'
p4116
(dp4117
g257
I21
sg258
I21
sg259
g260
sg261
S'governing ruling'
p4118
sg263
F1.0
ssS'<subj> evaluate'
p4119
(dp4120
g3341
g3751
sg3343
I2
sg3344
I2
sg3345
S'evaluate'
p4121
sg3347
F1.0
ssS'sending <dobj>'
p4122
(dp4123
g455
g456
sg457
I7
sg458
I7
sg459
S'sending'
p4124
sg461
F1.0
ssS'buds after <np>'
p4125
(dp4126
S'type'
p4127
S'np'
p4128
sS'freq'
p4129
I1
sS'subj_freq'
p4130
I1
sS'display'
p4131
S'buds after'
p4132
sS'prob'
p4133
F1.0
ssVposted <dobj>
p4134
(dp4135
g1257
g1604
sg1259
I2
sg1260
I2
sg1261
Vposted
p4136
sg1263
F1.0
ssS'writing <dobj>'
p4137
(dp4138
g2427
I1
sg2428
I1
sg2429
g3171
sg2431
S'writing'
p4139
sg2433
F1.0
ssS'<subj> fell sun'
p4140
(dp4141
g691
g692
sg693
I1
sg694
I1
sg695
S'fell sun'
p4142
sg697
F1.0
ssS'<subj> see railing'
p4143
(dp4144
S'type'
p4145
S'subj'
p4146
sS'freq'
p4147
I1
sS'subj_freq'
p4148
I1
sS'display'
p4149
S'see railing'
p4150
sS'prob'
p4151
F1.0
ssS'wrecked <dobj>'
p4152
(dp4153
g948
I3
sg949
I3
sg950
g3266
sg952
S'wrecked'
p4154
sg954
F1.0
ssS'delight while <np>'
p4155
(dp4156
S'subj_freq'
p4157
I1
sS'freq'
p4158
I1
sS'type'
p4159
S'np'
p4160
sS'display'
p4161
S'delight while'
p4162
sS'prob'
p4163
F1.0
ssS'raise <dobj>'
p4164
(dp4165
g887
S'dobj'
p4166
sg889
I4
sg890
I4
sg891
S'raise'
p4167
sg893
F1.0
ssS'to offer <dobj>'
p4168
(dp4169
g1648
I9
sg1649
I9
sg1650
g4074
sg1652
S'to offer'
p4170
sg1654
F1.0
ssS'<subj> walks'
p4171
(dp4172
g146
g797
sg148
I1
sg149
I1
sg150
S'walks'
p4173
sg152
F1.0
ssS"<subj> 've age"
p4174
(dp4175
S'subj_freq'
p4176
I9
sS'freq'
p4177
I9
sS'type'
p4178
S'subj'
p4179
sS'display'
p4180
S"'ve age"
p4181
sS'prob'
p4182
F1.0
ssS'<subj> meets'
p4183
(dp4184
g1770
I5
sg1771
I5
sg1772
g4051
sg1774
S'meets'
p4185
sg1776
F1.0
ssS'quit <dobj>'
p4186
(dp4187
g713
I4
sg714
I4
sg715
g1539
sg717
S'quit'
p4188
sg719
F1.0
ssS'<subj> recommend'
p4189
(dp4190
g2128
I2
sg2129
I2
sg2130
S'subj'
p4191
sg2132
S'recommend'
p4192
sg2134
F1.0
ssS'depressed <dobj>'
p4193
(dp4194
g302
I21
sg303
I21
sg304
g905
sg306
S'depressed'
p4195
sg308
F1.0
ssS'<subj> fight term'
p4196
(dp4197
g455
g1556
sg457
I7
sg458
I7
sg459
S'fight term'
p4198
sg461
F1.0
ssS"<subj> 's spending"
p4199
(dp4200
S'subj_freq'
p4201
I1
sS'freq'
p4202
I1
sS'type'
p4203
S'subj'
p4204
sS'display'
p4205
S"'s spending"
p4206
sS'prob'
p4207
F1.0
ssS'<subj> devoted'
p4208
(dp4209
g594
I9
sg595
I9
sg596
g597
sg598
S'devoted'
p4210
sg600
F1.0
ssS'<subj> await Gujarat'
p4211
(dp4212
g79
I2
sg80
I2
sg81
S'subj'
p4213
sg83
S'await Gujarat'
p4214
sg85
F1.0
ssS'<subj> await rhythm'
p4215
(dp4216
g79
I2
sg80
I2
sg81
g4213
sg83
S'await rhythm'
p4217
sg85
F1.0
ssS'thought <dobj>'
p4218
(dp4219
g1038
g3872
sg1040
I46
sg1041
I46
sg1042
S'thought'
p4220
sg1044
F1.0
ssS'is required for <np>'
p4221
(dp4222
g97
I7
sg98
I7
sg99
S'np'
p4223
sg101
S'is required for'
p4224
sg103
F1.0
ssS'turns <dobj>'
p4225
(dp4226
g284
I3
sg285
I3
sg286
S'dobj'
p4227
sg288
S'turns'
p4228
sg290
F1.0
ssS'<subj> continue to maintain'
p4229
(dp4230
g927
g2350
sg929
I7
sg930
I7
sg931
S'continue to maintain'
p4231
sg933
F1.0
ssS'to hold <dobj>'
p4232
(dp4233
g155
I7
sg156
I7
sg157
g1582
sg159
S'to hold'
p4234
sg161
F1.0
ssS'discussed <dobj>'
p4235
(dp4236
g293
S'dobj'
p4237
sg295
I21
sg296
I21
sg297
S'discussed'
p4238
sg299
F1.0
ssS'food of <np>'
p4239
(dp4240
g2832
I0
sg2833
I1
sg2834
S'np'
p4241
sg2836
S'food of'
p4242
sg2838
F0.0
ssS'<subj> reach'
p4243
(dp4244
g106
I22
sg107
I22
sg108
g477
sg110
S'reach'
p4245
sg112
F1.0
ssS'<subj> lit'
p4246
(dp4247
g1395
I1
sg1396
I1
sg1397
g1398
sg1399
S'lit'
p4248
sg1401
F1.0
ssS'<subj> exhibiting coins'
p4249
(dp4250
g582
g583
sg584
I1
sg585
I0
sg586
S'exhibiting coins'
p4251
sg588
F0.0
ssS'<subj> feel essence'
p4252
(dp4253
S'type'
p4254
S'subj'
p4255
sS'freq'
p4256
I1
sS'subj_freq'
p4257
I1
sS'display'
p4258
S'feel essence'
p4259
sS'prob'
p4260
F1.0
ssS'<subj> flying'
p4261
(dp4262
g3825
S'subj'
p4263
sg3827
I1
sg3828
I1
sg3829
S'flying'
p4264
sg3831
F1.0
ssS'<subj> win contest'
p4265
(dp4266
g2773
I2
sg2774
I2
sg2775
S'subj'
p4267
sg2777
S'win contest'
p4268
sg2779
F1.0
ssS'<subj> call'
p4269
(dp4270
S'subj_freq'
p4271
I2
sS'freq'
p4272
I2
sS'type'
p4273
S'subj'
p4274
sS'display'
p4275
S'call'
p4276
sS'prob'
p4277
F1.0
ssS'<subj> are given'
p4278
(dp4279
g722
g723
sg724
I7
sg725
I7
sg726
S'are given'
p4280
sg728
F1.0
ssS'gave <dobj>'
p4281
(dp4282
g1060
I7
sg1061
I7
sg1062
g3659
sg1064
S'gave'
p4283
sg1066
F1.0
ssS'to exercise <dobj>'
p4284
(dp4285
g2524
g3230
sg2526
I9
sg2527
I9
sg2528
S'to exercise'
p4286
sg2530
F1.0
ssS'<subj> take country'
p4287
(dp4288
S'type'
p4289
S'subj'
p4290
sS'freq'
p4291
I2
sS'subj_freq'
p4292
I2
sS'display'
p4293
S'take country'
p4294
sS'prob'
p4295
F1.0
ssS'find <dobj>'
p4296
(dp4297
g155
I20
sg156
I20
sg157
g1582
sg159
S'find'
p4298
sg161
F1.0
ssS'<subj> belongs life'
p4299
(dp4300
g164
g165
sg166
I7
sg167
I7
sg168
S'belongs life'
p4301
sg170
F1.0
ssS'thinking process of <np>'
p4302
(dp4303
g221
S'np'
p4304
sg223
I21
sg224
I21
sg225
S'thinking process of'
p4305
sg227
F1.0
ssS'loved <dobj>'
p4306
(dp4307
g1836
g3902
sg1838
I6
sg1839
I6
sg1840
S'loved'
p4308
sg1842
F1.0
ssS'<subj> visiting clock'
p4309
(dp4310
S'type'
p4311
S'subj'
p4312
sS'freq'
p4313
I1
sS'subj_freq'
p4314
I1
sS'display'
p4315
S'visiting clock'
p4316
sS'prob'
p4317
F1.0
ssS'<subj> has life'
p4318
(dp4319
g1639
g1640
sg1641
I5
sg1642
I5
sg1643
S'has life'
p4320
sg1645
F1.0
ssS'<subj> made toys'
p4321
(dp4322
S'subj_freq'
p4323
I1
sS'freq'
p4324
I1
sS'type'
p4325
S'subj'
p4326
sS'display'
p4327
S'made toys'
p4328
sS'prob'
p4329
F1.0
ssS'<subj> be done'
p4330
(dp4331
g1469
I7
sg1470
I7
sg1471
g1472
sg1473
S'be done'
p4332
sg1475
F1.0
ssS'<subj> has year'
p4333
(dp4334
g1702
I0
sg1703
I4
sg1704
g1705
sg1706
S'has year'
p4335
sg1708
F0.0
ssS'<subj> spotted'
p4336
(dp4337
g3021
g3022
sg3023
I4
sg3024
I4
sg3025
S'spotted'
p4338
sg3027
F1.0
ssS'<subj> lived'
p4339
(dp4340
g1845
I7
sg1846
I7
sg1847
g1848
sg1849
S'lived'
p4341
sg1851
F1.0
ssS'<subj> contribute'
p4342
(dp4343
S'type'
p4344
S'subj'
p4345
sS'freq'
p4346
I9
sS'subj_freq'
p4347
I9
sS'display'
p4348
S'contribute'
p4349
sS'prob'
p4350
F1.0
ssS'know <dobj>'
p4351
(dp4352
g408
g1792
sg410
I39
sg411
I39
sg412
S'know'
p4353
sg414
F1.0
ssS'<subj> has love'
p4354
(dp4355
g57
I9
sg58
I9
sg59
g985
sg61
S'has love'
p4356
sg63
F1.0
ssS'knows <dobj>'
p4357
(dp4358
g1724
g3321
sg1726
I7
sg1727
I7
sg1728
S'knows'
p4359
sg1730
F1.0
ssS'<subj> watch'
p4360
(dp4361
g2679
S'subj'
p4362
sg2681
I2
sg2682
I2
sg2683
S'watch'
p4363
sg2685
F1.0
ssS'considered <dobj>'
p4364
(dp4365
g3398
S'dobj'
p4366
sg3400
I2
sg3401
I2
sg3402
S'considered'
p4367
sg3404
F1.0
ssS'need to make <dobj>'
p4368
(dp4369
g564
g565
sg566
I19
sg567
I19
sg568
S'need to make'
p4370
sg570
F1.0
ssS'<subj> have Ted'
p4371
(dp4372
g351
g645
sg353
I7
sg354
I7
sg355
S'have Ted'
p4373
sg357
F1.0
ssS'create <dobj>'
p4374
(dp4375
g2716
I2
sg2717
I2
sg2718
g2719
sg2720
S'create'
p4376
sg2722
F1.0
ssS'<subj> fly cloud'
p4377
(dp4378
g2925
I9
sg2926
I9
sg2927
g2928
sg2929
S'fly cloud'
p4379
sg2931
F1.0
ssS'set <dobj>'
p4380
(dp4381
g1966
I2
sg1967
I2
sg1968
S'dobj'
p4382
sg1970
S'set'
p4383
sg1972
F1.0
ssS'<subj> misled'
p4384
(dp4385
g1171
g1316
sg1173
I21
sg1174
I21
sg1175
S'misled'
p4386
sg1177
F1.0
ssS"<subj> 's White"
p4387
(dp4388
g1992
I1
sg1993
I1
sg1994
S'subj'
p4389
sg1996
S"'s White"
p4390
sg1998
F1.0
ssS"<subj> 's east"
p4391
(dp4392
S'subj_freq'
p4393
I2
sS'freq'
p4394
I2
sS'type'
p4395
S'subj'
p4396
sS'display'
p4397
S"'s east"
p4398
sS'prob'
p4399
F1.0
ssS'experience by <np>'
p4400
(dp4401
g3527
I2
sg3528
I2
sg3529
g3530
sg3531
S'experience by'
p4402
sg3533
F1.0
ssS'forget world with <np>'
p4403
(dp4404
g2184
I1
sg2185
I1
sg2186
S'np'
p4405
sg2188
S'forget world with'
p4406
sg2190
F1.0
ssS'means <dobj>'
p4407
(dp4408
g1386
I41
sg1387
I41
sg1388
g1389
sg1390
S'means'
p4409
sg1392
F1.0
ssS'<subj> celebrated Institute'
p4410
(dp4411
g3775
g3776
sg3777
I2
sg3778
I2
sg3779
S'celebrated Institute'
p4412
sg3781
F1.0
ssS'<subj> depressed'
p4413
(dp4414
g302
I21
sg303
I21
sg304
g305
sg306
S'depressed'
p4415
sg308
F1.0
ssS'<subj> deserves'
p4416
(dp4417
g203
g4064
sg205
I8
sg206
I8
sg207
S'deserves'
p4418
sg209
F1.0
ssS'<subj> touched'
p4419
(dp4420
g1500
I7
sg1501
I7
sg1502
g1503
sg1504
S'touched'
p4421
sg1506
F1.0
ssS'<subj> is required'
p4422
(dp4423
g97
I7
sg98
I7
sg99
g100
sg101
S'is required'
p4424
sg103
F1.0
ssS"<subj> 's call"
p4425
(dp4426
S'type'
p4427
S'subj'
p4428
sS'freq'
p4429
I1
sS'subj_freq'
p4430
I1
sS'display'
p4431
S"'s call"
p4432
sS'prob'
p4433
F1.0
ssS'fell <dobj>'
p4434
(dp4435
g691
S'dobj'
p4436
sg693
I1
sg694
I1
sg695
S'fell'
p4437
sg697
F1.0
ssS'transforms <dobj>'
p4438
(dp4439
S'type'
p4440
S'dobj'
p4441
sS'freq'
p4442
I1
sS'subj_freq'
p4443
I1
sS'display'
p4444
S'transforms'
p4445
sS'prob'
p4446
F1.0
ssS'experience with <np>'
p4447
(dp4448
S'subj_freq'
p4449
I1
sS'freq'
p4450
I1
sS'type'
p4451
S'np'
p4452
sS'display'
p4453
S'experience with'
p4454
sS'prob'
p4455
F1.0
ssS'<subj> love'
p4456
(dp4457
S'type'
p4458
S'subj'
p4459
sS'freq'
p4460
I9
sS'subj_freq'
p4461
I9
sS'display'
p4462
S'love'
p4463
sS'prob'
p4464
F1.0
ssS'<subj> standing horses'
p4465
(dp4466
g2610
I2
sg2611
I2
sg2612
g3385
sg2614
S'standing horses'
p4467
sg2616
F1.0
ssS'<subj> are taken'
p4468
(dp4469
g2427
I1
sg2428
I1
sg2429
g2430
sg2431
S'are taken'
p4470
sg2433
F1.0
ssS'<subj> having weekend'
p4471
(dp4472
g1948
g1949
sg1950
I1
sg1951
I1
sg1952
S'having weekend'
p4473
sg1954
F1.0
ssS'<subj> win'
p4474
(dp4475
g2773
I4
sg2774
I4
sg2775
g4267
sg2777
S'win'
p4476
sg2779
F1.0
ssS'confirm <dobj>'
p4477
(dp4478
g2211
I7
sg2212
I7
sg2213
S'dobj'
p4479
sg2215
S'confirm'
p4480
sg2217
F1.0
ssS'<subj> creating God'
p4481
(dp4482
g399
I4
sg400
I4
sg401
g402
sg403
S'creating God'
p4483
sg405
F1.0
ssS'<subj> deserved'
p4484
(dp4485
g203
g4064
sg205
I7
sg206
I7
sg207
S'deserved'
p4486
sg209
F1.0
ssS"<subj> 's heritage"
p4487
(dp4488
S'type'
p4489
S'subj'
p4490
sS'freq'
p4491
I1
sS'subj_freq'
p4492
I1
sS'display'
p4493
S"'s heritage"
p4494
sS'prob'
p4495
F1.0
ssS'<subj> live'
p4496
(dp4497
g164
g165
sg166
I16
sg167
I16
sg168
S'live'
p4498
sg170
F1.0
ssS'<subj> appreciate'
p4499
(dp4500
g2321
I1
sg2322
I1
sg2323
g2324
sg2325
S'appreciate'
p4501
sg2327
F1.0
ssS'are presented in <np>'
p4502
(dp4503
g704
S'np'
p4504
sg706
I9
sg707
I9
sg708
S'are presented in'
p4505
sg710
F1.0
ssS'<subj> doing'
p4506
(dp4507
g106
I21
sg107
I21
sg108
g477
sg110
S'doing'
p4508
sg112
F1.0
ssS'<subj> added women'
p4509
(dp4510
g137
I5
sg138
I5
sg139
g140
sg141
S'added women'
p4511
sg143
F1.0
ssS"<subj> 's problem"
p4512
(dp4513
g606
g2012
sg608
I22
sg609
I22
sg610
S"'s problem"
p4514
sg612
F1.0
ssS'<subj> printed'
p4515
(dp4516
g2554
S'subj'
p4517
sg2556
I1
sg2557
I1
sg2558
S'printed'
p4518
sg2560
F1.0
ssS'Sea from <np>'
p4519
(dp4520
S'subj_freq'
p4521
I1
sS'freq'
p4522
I1
sS'type'
p4523
S'np'
p4524
sS'display'
p4525
S'Sea from'
p4526
sS'prob'
p4527
F1.0
ssS'<subj> written'
p4528
(dp4529
g3051
g3052
sg3053
I6
sg3054
I6
sg3055
S'written'
p4530
sg3057
F1.0
ssS'<subj> amazed'
p4531
(dp4532
g315
g316
sg317
I2
sg318
I2
sg319
S'amazed'
p4533
sg321
F1.0
ssS'<subj> is lit'
p4534
(dp4535
g1395
I1
sg1396
I1
sg1397
g1398
sg1399
S'is lit'
p4536
sg1401
F1.0
ssS'describe <dobj>'
p4537
(dp4538
g4109
I7
sg4110
I7
sg4111
S'dobj'
p4539
sg4113
S'describe'
p4540
sg4115
F1.0
ssS'<subj> deliver'
p4541
(dp4542
S'subj_freq'
p4543
I4
sS'freq'
p4544
I4
sS'type'
p4545
S'subj'
p4546
sS'display'
p4547
S'deliver'
p4548
sS'prob'
p4549
F1.0
ssS'<subj> surrounded cottages'
p4550
(dp4551
g779
I2
sg780
I2
sg781
g782
sg783
S'surrounded cottages'
p4552
sg785
F1.0
ssS'<subj> is eliminated'
p4553
(dp4554
g106
I21
sg107
I21
sg108
g477
sg110
S'is eliminated'
p4555
sg112
F1.0
ssS'<subj> await'
p4556
(dp4557
g79
I2
sg80
I2
sg81
g4213
sg83
S'await'
p4558
sg85
F1.0
ssS'<subj> many era'
p4559
(dp4560
g936
I1
sg937
I1
sg938
g939
sg940
S'many era'
p4561
sg942
F1.0
ssS'creating <dobj>'
p4562
(dp4563
g1648
I13
sg1649
I13
sg1650
g4074
sg1652
S'creating'
p4564
sg1654
F1.0
ssS'<subj> invite'
p4565
(dp4566
g546
g547
sg548
I3
sg549
I3
sg550
S'invite'
p4567
sg552
F1.0
ssS'<subj> bringing responsibility'
p4568
(dp4569
g3702
g3703
sg3704
I23
sg3705
I23
sg3706
S'bringing responsibility'
p4570
sg3708
F1.0
ssS'<subj> doing network'
p4571
(dp4572
g106
I21
sg107
I21
sg108
g477
sg110
S'doing network'
p4573
sg112
F1.0
ssS'<subj> pays'
p4574
(dp4575
g137
I4
sg138
I4
sg139
g140
sg141
S'pays'
p4576
sg143
F1.0
ssS'understand <dobj>'
p4577
(dp4578
g743
g3096
sg745
I7
sg746
I7
sg747
S'understand'
p4579
sg749
F1.0
ssS'<subj> comes'
p4580
(dp4581
g1690
I1
sg1691
I1
sg1692
S'subj'
p4582
sg1694
S'comes'
p4583
sg1696
F1.0
ssS'<subj> getting'
p4584
(dp4585
g1421
g3946
sg1423
I8
sg1424
I8
sg1425
S'getting'
p4586
sg1427
F1.0
ssS'<subj> be told'
p4587
(dp4588
g212
I19
sg213
I19
sg214
g215
sg216
S'be told'
p4589
sg218
F1.0
ssS'use of <np>'
p4590
(dp4591
g2515
S'np'
p4592
sg2517
I17
sg2518
I0
sg2519
S'use of'
p4593
sg2521
F0.0
ssS'build <dobj>'
p4594
(dp4595
g455
g456
sg457
I7
sg458
I7
sg459
S'build'
p4596
sg461
F1.0
ssS'<subj> bring lots'
p4597
(dp4598
S'type'
p4599
S'subj'
p4600
sS'freq'
p4601
I1
sS'subj_freq'
p4602
I1
sS'display'
p4603
S'bring lots'
p4604
sS'prob'
p4605
F1.0
ssS'going to begin <dobj>'
p4606
(dp4607
g2670
S'dobj'
p4608
sg2672
I1
sg2673
I1
sg2674
S'going to begin'
p4609
sg2676
F1.0
ssS'spotted <dobj>'
p4610
(dp4611
g3021
S'dobj'
p4612
sg3023
I4
sg3024
I4
sg3025
S'spotted'
p4613
sg3027
F1.0
ssS'<subj> produces'
p4614
(dp4615
g1573
I7
sg1574
I7
sg1575
S'subj'
p4616
sg1577
S'produces'
p4617
sg1579
F1.0
ssS'varied <dobj>'
p4618
(dp4619
g3775
S'dobj'
p4620
sg3777
I3
sg3778
I3
sg3779
S'varied'
p4621
sg3781
F1.0
ssS'<subj> writing Marvin'
p4622
(dp4623
g2427
I1
sg2428
I1
sg2429
g2430
sg2431
S'writing Marvin'
p4624
sg2433
F1.0
ssS'shining <dobj>'
p4625
(dp4626
g146
g147
sg148
I1
sg149
I1
sg150
S'shining'
p4627
sg152
F1.0
ssS'operate <dobj>'
p4628
(dp4629
g399
I4
sg400
I4
sg401
S'dobj'
p4630
sg403
S'operate'
p4631
sg405
F1.0
ssS'taking place for <np>'
p4632
(dp4633
S'type'
p4634
S'np'
p4635
sS'freq'
p4636
I1
sS'subj_freq'
p4637
I1
sS'display'
p4638
S'taking place for'
p4639
sS'prob'
p4640
F1.0
ssS'gather <dobj>'
p4641
(dp4642
g1660
g1661
sg1662
I1
sg1663
I1
sg1664
S'gather'
p4643
sg1666
F1.0
ssS'<subj> cost'
p4644
(dp4645
S'type'
p4646
S'subj'
p4647
sS'freq'
p4648
I1
sS'subj_freq'
p4649
I1
sS'display'
p4650
S'cost'
p4651
sS'prob'
p4652
F1.0
ssS'<subj> spend holidays'
p4653
(dp4654
g779
I2
sg780
I2
sg781
g782
sg783
S'spend holidays'
p4655
sg785
F1.0
ssS'<subj> required'
p4656
(dp4657
g97
I7
sg98
I7
sg99
g100
sg101
S'required'
p4658
sg103
F1.0
ssS'<subj> was connected'
p4659
(dp4660
g106
I21
sg107
I21
sg108
g477
sg110
S'was connected'
p4661
sg112
F1.0
ssS'spread across <np>'
p4662
(dp4663
g838
S'np'
p4664
sg840
I21
sg841
I21
sg842
S'spread across'
p4665
sg844
F1.0
ssV<subj> watched video
p4666
(dp4667
g1257
g1258
sg1259
I2
sg1260
I2
sg1261
Vwatched video
p4668
sg1263
F1.0
ssS'reach <dobj>'
p4669
(dp4670
g106
I22
sg107
I22
sg108
g109
sg110
S'reach'
p4671
sg112
F1.0
ssS'interview on <np>'
p4672
(dp4673
g1916
S'np'
p4674
sg1918
I21
sg1919
I21
sg1920
S'interview on'
p4675
sg1922
F1.0
ssS'<subj> gave reports'
p4676
(dp4677
g1060
I7
sg1061
I7
sg1062
g1063
sg1064
S'gave reports'
p4678
sg1066
F1.0
ssS'to discover <dobj>'
p4679
(dp4680
g2944
I2
sg2945
I2
sg2946
S'dobj'
p4681
sg2948
S'to discover'
p4682
sg2950
F1.0
ssV<subj> was blown
p4683
(dp4684
g1257
g1258
sg1259
I2
sg1260
I2
sg1261
Vwas blown
p4685
sg1263
F1.0
ssS'<subj> is classified'
p4686
(dp4687
g3962
I0
sg3963
I1
sg3964
g3965
sg3966
S'is classified'
p4688
sg3968
F0.0
ssS'<subj> is attached'
p4689
(dp4690
g3051
g3052
sg3053
I6
sg3054
I6
sg3055
S'is attached'
p4691
sg3057
F1.0
ssS'<subj> makes country'
p4692
(dp4693
S'type'
p4694
S'subj'
p4695
sS'freq'
p4696
I1
sS'subj_freq'
p4697
I1
sS'display'
p4698
S'makes country'
p4699
sS'prob'
p4700
F1.0
ssS'<subj> meets immensity'
p4701
(dp4702
g1128
g1129
sg1130
I1
sg1131
I1
sg1132
S'meets immensity'
p4703
sg1134
F1.0
ssS'contribute <dobj>'
p4704
(dp4705
g4344
S'dobj'
p4706
sg4346
I9
sg4347
I9
sg4348
S'contribute'
p4707
sg4350
F1.0
ssS'are taken out <np>'
p4708
(dp4709
g2427
I1
sg2428
I1
sg2429
g2854
sg2431
S'are taken out'
p4710
sg2433
F1.0
ssS'<subj> is known'
p4711
(dp4712
g3556
S'subj'
p4713
sg3558
I2
sg3559
I2
sg3560
S'is known'
p4714
sg3562
F1.0
ssS'watching years ago <np>'
p4715
(dp4716
g106
I21
sg107
I21
sg108
S'np'
p4717
sg110
S'watching years ago'
p4718
sg112
F1.0
ssS'<subj> awaiting outlook'
p4719
(dp4720
g2184
I1
sg2185
I1
sg2186
g3601
sg2188
S'awaiting outlook'
p4721
sg2190
F1.0
ssS'wants idea of <np>'
p4722
(dp4723
g1724
S'np'
p4724
sg1726
I7
sg1727
I7
sg1728
S'wants idea of'
p4725
sg1730
F1.0
ssS'<subj> undo'
p4726
(dp4727
g257
I21
sg258
I21
sg259
g260
sg261
S'undo'
p4728
sg263
F1.0
ssS'need <dobj>'
p4729
(dp4730
g408
g1792
sg410
I95
sg411
I95
sg412
S'need'
p4731
sg414
F1.0
ssS'<subj> bringing'
p4732
(dp4733
g3702
g3703
sg3704
I26
sg3705
I26
sg3706
S'bringing'
p4734
sg3708
F1.0
ssS'to work <dobj>'
p4735
(dp4736
g2241
I0
sg2242
I1
sg2243
S'dobj'
p4737
sg2245
S'to work'
p4738
sg2247
F0.0
ssS'<subj> be changed'
p4739
(dp4740
g1500
I7
sg1501
I7
sg1502
g1503
sg1504
S'be changed'
p4741
sg1506
F1.0
ssS'<subj> forget'
p4742
(dp4743
g2841
I8
sg2842
I8
sg2843
S'subj'
p4744
sg2845
S'forget'
p4745
sg2847
F1.0
ssS'<subj> loved'
p4746
(dp4747
g1836
g1837
sg1838
I6
sg1839
I6
sg1840
S'loved'
p4748
sg1842
F1.0
ssS'demonstrate <dobj>'
p4749
(dp4750
g823
I2
sg824
I2
sg825
S'dobj'
p4751
sg827
S'demonstrate'
p4752
sg829
F1.0
ssS'<subj> celebrated show'
p4753
(dp4754
g658
g2937
sg660
I2
sg661
I2
sg662
S'celebrated show'
p4755
sg664
F1.0
ssS"<subj> 's"
p4756
(dp4757
g573
I251
sg574
I251
sg575
S'subj'
p4758
sg577
S"'s"
p4759
sg579
F1.0
ssS'<subj> found'
p4760
(dp4761
g1002
I7
sg1003
I7
sg1004
g1096
sg1006
S'found'
p4762
sg1008
F1.0
ssS'is lit with <np>'
p4763
(dp4764
g1395
I1
sg1396
I1
sg1397
S'np'
p4765
sg1399
S'is lit with'
p4766
sg1401
F1.0
ssS'call <dobj>'
p4767
(dp4768
g4271
I2
sg4272
I2
sg4273
S'dobj'
p4769
sg4275
S'call'
p4770
sg4277
F1.0
ssS'<subj> seen'
p4771
(dp4772
S'type'
p4773
S'subj'
p4774
sS'freq'
p4775
I3
sS'subj_freq'
p4776
I1
sS'display'
p4777
S'seen'
p4778
sS'prob'
p4779
F0.3333333333333333
ssS'want <dobj>'
p4780
(dp4781
g1621
I49
sg1622
I49
sg1623
S'dobj'
p4782
sg1625
S'want'
p4783
sg1627
F1.0
ssS'<subj> going network'
p4784
(dp4785
g993
g1018
sg995
I1
sg996
I1
sg997
S'going network'
p4786
sg999
F1.0
ssS'<subj> listening'
p4787
(dp4788
g918
I21
sg919
I21
sg920
g1569
sg922
S'listening'
p4789
sg924
F1.0
ssS'<subj> seem to understand'
p4790
(dp4791
g3681
I8
sg3682
I8
sg3683
S'subj'
p4792
sg3685
S'seem to understand'
p4793
sg3687
F1.0
ssS'seen <dobj>'
p4794
(dp4795
g4773
S'dobj'
p4796
sg4775
I3
sg4776
I1
sg4777
S'seen'
p4797
sg4779
F0.3333333333333333
ssS'threw <dobj>'
p4798
(dp4799
g1146
S'dobj'
p4800
sg1148
I7
sg1149
I7
sg1150
S'threw'
p4801
sg1152
F1.0
ssS'<subj> need discipline'
p4802
(dp4803
g212
I19
sg213
I19
sg214
g215
sg216
S'need discipline'
p4804
sg218
F1.0
ssV<subj> read
p4805
(dp4806
g1257
g1258
sg1259
I2
sg1260
I2
sg1261
Vread
p4807
sg1263
F1.0
ssV<subj> 'm nurse
p4808
(dp4809
g1257
g1258
sg1259
I2
sg1260
I2
sg1261
V'm nurse
p4810
sg1263
F1.0
ssS'<subj> exercise right'
p4811
(dp4812
g2524
g2525
sg2526
I9
sg2527
I9
sg2528
S'exercise right'
p4813
sg2530
F1.0
ssS'exhibiting <dobj>'
p4814
(dp4815
g582
S'dobj'
p4816
sg584
I1
sg585
I0
sg586
S'exhibiting'
p4817
sg588
F0.0
ssS'lived <dobj>'
p4818
(dp4819
g1845
I7
sg1846
I7
sg1847
S'dobj'
p4820
sg1849
S'lived'
p4821
sg1851
F1.0
ssS'<subj> portraying side'
p4822
(dp4823
g2464
g2465
sg2466
I1
sg2467
I0
sg2468
S'portraying side'
p4824
sg2470
F0.0
ssS'<subj> was converted'
p4825
(dp4826
g847
I0
sg848
I5
sg849
g850
sg851
S'was converted'
p4827
sg853
F0.0
ssS'<subj> according classes'
p4828
(dp4829
g97
I7
sg98
I7
sg99
g100
sg101
S'according classes'
p4830
sg103
F1.0
ssS'<subj> affected'
p4831
(dp4832
g3518
S'subj'
p4833
sg3520
I2
sg3521
I2
sg3522
S'affected'
p4834
sg3524
F1.0
ssS'moved <dobj>'
p4835
(dp4836
g1002
I7
sg1003
I7
sg1004
g1005
sg1006
S'moved'
p4837
sg1008
F1.0
ssS'<subj> walk'
p4838
(dp4839
g146
g797
sg148
I2
sg149
I2
sg150
S'walk'
p4840
sg152
F1.0
ssS'<subj> has birds'
p4841
(dp4842
S'type'
p4843
S'subj'
p4844
sS'freq'
p4845
I1
sS'subj_freq'
p4846
I1
sS'display'
p4847
S'has birds'
p4848
sS'prob'
p4849
F1.0
ssS'conserves <dobj>'
p4850
(dp4851
g1863
S'dobj'
p4852
sg1865
I4
sg1866
I4
sg1867
S'conserves'
p4853
sg1869
F1.0
ssS'are used as <np>'
p4854
(dp4855
g615
I0
sg616
I1
sg617
S'np'
p4856
sg619
S'are used as'
p4857
sg621
F0.0
ssS'<subj> designed'
p4858
(dp4859
g4097
S'subj'
p4860
sg4099
I2
sg4100
I2
sg4101
S'designed'
p4861
sg4103
F1.0
ssS'<subj> develop'
p4862
(dp4863
g39
I9
sg40
I9
sg41
g464
sg43
S'develop'
p4864
sg45
F1.0
ssS'beginning <dobj>'
p4865
(dp4866
g909
g910
sg911
I3
sg912
I2
sg913
S'beginning'
p4867
sg915
F0.6666666666666666
ssS'<subj> made'
p4868
(dp4869
g918
I32
sg919
I32
sg920
g1569
sg922
S'made'
p4870
sg924
F1.0
ssS'<subj> carved caves'
p4871
(dp4872
g615
I0
sg616
I1
sg617
g618
sg619
S'carved caves'
p4873
sg621
F0.0
ssS'presents <dobj>'
p4874
(dp4875
g3742
S'dobj'
p4876
sg3744
I3
sg3745
I3
sg3746
S'presents'
p4877
sg3748
F1.0
ssS'<subj> cause'
p4878
(dp4879
g57
I9
sg58
I9
sg59
g985
sg61
S'cause'
p4880
sg63
F1.0
ssS'<subj> writing'
p4881
(dp4882
g2427
I1
sg2428
I1
sg2429
g2430
sg2431
S'writing'
p4883
sg2433
F1.0
ssS'<subj> offers Hill'
p4884
(dp4885
S'subj_freq'
p4886
I1
sS'freq'
p4887
I1
sS'type'
p4888
S'subj'
p4889
sS'display'
p4890
S'offers Hill'
p4891
sS'prob'
p4892
F1.0
ssS'taking <dobj>'
p4893
(dp4894
g248
I17
sg249
I17
sg250
S'dobj'
p4895
sg252
S'taking'
p4896
sg254
F1.0
ssS'Day on <np>'
p4897
(dp4898
S'subj_freq'
p4899
I0
sS'freq'
p4900
I4
sS'type'
p4901
S'np'
p4902
sS'display'
p4903
S'Day on'
p4904
sS'prob'
p4905
F0.0
ssS'selling <dobj>'
p4906
(dp4907
g4176
I16
sg4177
I16
sg4178
S'dobj'
p4908
sg4180
S'selling'
p4909
sg4182
F1.0
ssS'artists of <np>'
p4910
(dp4911
S'subj_freq'
p4912
I2
sS'freq'
p4913
I2
sS'type'
p4914
S'np'
p4915
sS'display'
p4916
S'artists of'
p4917
sS'prob'
p4918
F1.0
ssS'<subj> preserving glory'
p4919
(dp4920
g2375
I2
sg2376
I2
sg2377
g2378
sg2379
S'preserving glory'
p4921
sg2381
F1.0
ssS'glittering <dobj>'
p4922
(dp4923
S'subj_freq'
p4924
I1
sS'freq'
p4925
I1
sS'type'
p4926
S'dobj'
p4927
sS'display'
p4928
S'glittering'
p4929
sS'prob'
p4930
F1.0
ssS'<subj> was held'
p4931
(dp4932
g2275
I0
sg2276
I1
sg2277
g2278
sg2279
S'was held'
p4933
sg2281
F0.0
ssS'<subj> arrive'
p4934
(dp4935
g2913
S'subj'
p4936
sg2915
I7
sg2916
I7
sg2917
S'arrive'
p4937
sg2919
F1.0
ssS'<subj> focused'
p4938
(dp4939
g351
g645
sg353
I7
sg354
I7
sg355
S'focused'
p4940
sg357
F1.0
ssS'<subj> see'
p4941
(dp4942
g333
g3539
sg335
I61
sg336
I60
sg337
S'see'
p4943
sg339
F0.9836065573770492
ssS"<subj> 're"
p4944
(dp4945
g106
I55
sg107
I55
sg108
g477
sg110
S"'re"
p4946
sg112
F1.0
ssS'<subj> enjoy'
p4947
(dp4948
g1966
I4
sg1967
I4
sg1968
g1969
sg1970
S'enjoy'
p4949
sg1972
F1.0
ssS'<subj> smitten'
p4950
(dp4951
g1329
S'subj'
p4952
sg1331
I1
sg1332
I1
sg1333
S'smitten'
p4953
sg1335
F1.0
ssS'to operate <dobj>'
p4954
(dp4955
g399
I4
sg400
I4
sg401
g4630
sg403
S'to operate'
p4956
sg405
F1.0
ssS'welcoming <dobj>'
p4957
(dp4958
S'subj_freq'
p4959
I1
sS'freq'
p4960
I2
sS'type'
p4961
S'dobj'
p4962
sS'display'
p4963
S'welcoming'
p4964
sS'prob'
p4965
F0.5
ssS'<subj> knows idea'
p4966
(dp4967
g1724
g1725
sg1726
I7
sg1727
I7
sg1728
S'knows idea'
p4968
sg1730
F1.0
ssS'watching <dobj>'
p4969
(dp4970
g106
I29
sg107
I29
sg108
g109
sg110
S'watching'
p4971
sg112
F1.0
ssS'<subj> gives glimpse'
p4972
(dp4973
g2375
I2
sg2376
I2
sg2377
g2378
sg2379
S'gives glimpse'
p4974
sg2381
F1.0
ssS'<subj> seeing things'
p4975
(dp4976
g1060
I7
sg1061
I7
sg1062
g1063
sg1064
S'seeing things'
p4977
sg1066
F1.0
ssS'offer <dobj>'
p4978
(dp4979
g1648
I10
sg1649
I10
sg1650
g4074
sg1652
S'offer'
p4980
sg1654
F1.0
ssS'spend time in <np>'
p4981
(dp4982
g2760
S'np'
p4983
sg2762
I2
sg2763
I2
sg2764
S'spend time in'
p4984
sg2766
F1.0
ssS'classified <dobj>'
p4985
(dp4986
g3962
I0
sg3963
I1
sg3964
S'dobj'
p4987
sg3966
S'classified'
p4988
sg3968
F0.0
ssS'fail <dobj>'
p4989
(dp4990
g1386
I27
sg1387
I27
sg1388
g1389
sg1390
S'fail'
p4991
sg1392
F1.0
ssS'<subj> seem'
p4992
(dp4993
g3681
I8
sg3682
I8
sg3683
g4792
sg3685
S'seem'
p4994
sg3687
F1.0
ssS'<subj> having properties'
p4995
(dp4996
g2448
g3663
sg2450
I7
sg2451
I7
sg2452
S'having properties'
p4997
sg2454
F1.0
ssS'<subj> talking'
p4998
(dp4999
g1916
g1917
sg1918
I21
sg1919
I21
sg1920
S'talking'
p5000
sg1922
F1.0
ssS'discover <dobj>'
p5001
(dp5002
g2944
I2
sg2945
I2
sg2946
g4681
sg2948
S'discover'
p5003
sg2950
F1.0
ssS'<subj> bless occasion'
p5004
(dp5005
g1341
I1
sg1342
I1
sg1343
g1344
sg1345
S'bless occasion'
p5006
sg1347
F1.0
ssS'<subj> deserves time'
p5007
(dp5008
S'subj_freq'
p5009
I1
sS'freq'
p5010
I1
sS'type'
p5011
S'subj'
p5012
sS'display'
p5013
S'deserves time'
p5014
sS'prob'
p5015
F1.0
ssS'to spread <dobj>'
p5016
(dp5017
g239
I1
sg240
I1
sg241
g242
sg243
S'to spread'
p5018
sg245
F1.0
ssS'<subj> start'
p5019
(dp5020
g3437
g3645
sg3439
I7
sg3440
I7
sg3441
S'start'
p5021
sg3443
F1.0
ssS'deserts <dobj>'
p5022
(dp5023
g3592
I1
sg3593
I1
sg3594
S'dobj'
p5024
sg3596
S'deserts'
p5025
sg3598
F1.0
ssS'love for <np>'
p5026
(dp5027
S'type'
p5028
S'np'
p5029
sS'freq'
p5030
I5
sS'subj_freq'
p5031
I5
sS'display'
p5032
S'love for'
p5033
sS'prob'
p5034
F1.0
ssS'<subj> learned paralysis'
p5035
(dp5036
g524
I9
sg525
I9
sg526
g527
sg528
S'learned paralysis'
p5037
sg530
F1.0
ssS'<subj> have carbon'
p5038
(dp5039
S'subj_freq'
p5040
I0
sS'freq'
p5041
I9
sS'type'
p5042
S'subj'
p5043
sS'display'
p5044
S'have carbon'
p5045
sS'prob'
p5046
F0.0
ssS'<subj> bringing makers'
p5047
(dp5048
g823
I2
sg824
I2
sg825
g826
sg827
S'bringing makers'
p5049
sg829
F1.0
ssS'did <dobj>'
p5050
(dp5051
g649
I16
sg650
I16
sg651
g2262
sg653
S'did'
p5052
sg655
F1.0
ssS'<subj> saw talk'
p5053
(dp5054
g731
g732
sg733
I7
sg734
I7
sg735
S'saw talk'
p5055
sg737
F1.0
ssS'restored <dobj>'
p5056
(dp5057
g2760
S'dobj'
p5058
sg2762
I2
sg2763
I2
sg2764
S'restored'
p5059
sg2766
F1.0
ssS'to cut <dobj>'
p5060
(dp5061
g194
g195
sg196
I4
sg197
I4
sg198
S'to cut'
p5062
sg200
F1.0
ssS'<subj> wants technology'
p5063
(dp5064
g1724
g1725
sg1726
I7
sg1727
I7
sg1728
S'wants technology'
p5065
sg1730
F1.0
ssS'<subj> celebrate'
p5066
(dp5067
g342
S'subj'
p5068
sg344
I5
sg345
I5
sg346
S'celebrate'
p5069
sg348
F1.0
ssS'<subj> think'
p5070
(dp5071
g333
g3539
sg335
I75
sg336
I75
sg337
S'think'
p5072
sg339
F1.0
ssS'work <dobj>'
p5073
(dp5074
g2241
I0
sg2242
I1
sg2243
g4737
sg2245
S'work'
p5075
sg2247
F0.0
ssS'<subj> welcoming'
p5076
(dp5077
g4959
I1
sg4960
I2
sg4961
S'subj'
p5078
sg4963
S'welcoming'
p5079
sg4965
F0.5
ssS'<subj> means everybody'
p5080
(dp5081
g1904
g1905
sg1906
I9
sg1907
I9
sg1908
S'means everybody'
p5082
sg1910
F1.0
ssS'seem to understand <dobj>'
p5083
(dp5084
g3681
I8
sg3682
I8
sg3683
g3684
sg3685
S'seem to understand'
p5085
sg3687
F1.0
ssS'<subj> is used'
p5086
(dp5087
S'type'
p5088
S'subj'
p5089
sS'freq'
p5090
I1
sS'subj_freq'
p5091
I0
sS'display'
p5092
S'is used'
p5093
sS'prob'
p5094
F0.0
ssS'<subj> had arthritis'
p5095
(dp5096
S'type'
p5097
S'subj'
p5098
sS'freq'
p5099
I7
sS'subj_freq'
p5100
I7
sS'display'
p5101
S'had arthritis'
p5102
sS'prob'
p5103
F1.0
ssS'<subj> get life'
p5104
(dp5105
g248
I13
sg249
I13
sg250
g251
sg252
S'get life'
p5106
sg254
F1.0
ssS'Thanks for <np>'
p5107
(dp5108
g381
S'np'
p5109
sg383
I7
sg384
I7
sg385
S'Thanks for'
p5110
sg387
F1.0
ssS'<subj> explained'
p5111
(dp5112
g2925
I9
sg2926
I9
sg2927
g2928
sg2929
S'explained'
p5113
sg2931
F1.0
ssS'<subj> have search'
p5114
(dp5115
g408
g409
sg410
I21
sg411
I21
sg412
S'have search'
p5116
sg414
F1.0
ssS'<subj> lost powers'
p5117
(dp5118
g1100
I55
sg1101
I55
sg1102
g3987
sg1104
S'lost powers'
p5119
sg1106
F1.0
ssS'elaborate <dobj>'
p5120
(dp5121
g2163
I2
sg2164
I2
sg2165
g2619
sg2167
S'elaborate'
p5122
sg2169
F1.0
ssS'brings <dobj>'
p5123
(dp5124
g3200
I1
sg3201
I1
sg3202
S'dobj'
p5125
sg3204
S'brings'
p5126
sg3206
F1.0
ssS"<subj> 'm Japan"
p5127
(dp5128
g874
I22
sg875
I22
sg876
g877
sg878
S"'m Japan"
p5129
sg880
F1.0
ssS'<subj> come'
p5130
(dp5131
g57
I15
sg58
I15
sg59
g985
sg61
S'come'
p5132
sg63
F1.0
ssS'to keep <dobj>'
p5133
(dp5134
g1932
g1933
sg1934
I9
sg1935
I9
sg1936
S'to keep'
p5135
sg1938
F1.0
ssS'<subj> imposing'
p5136
(dp5137
S'type'
p5138
S'subj'
p5139
sS'freq'
p5140
I1
sS'subj_freq'
p5141
I1
sS'display'
p5142
S'imposing'
p5143
sS'prob'
p5144
F1.0
ssS'to deliver <dobj>'
p5145
(dp5146
g4543
I4
sg4544
I4
sg4545
S'dobj'
p5147
sg4547
S'to deliver'
p5148
sg4549
F1.0
ssS'designed <dobj>'
p5149
(dp5150
g4097
S'dobj'
p5151
sg4099
I2
sg4100
I2
sg4101
S'designed'
p5152
sg4103
F1.0
ssS'<subj> tapping feet'
p5153
(dp5154
g3484
S'subj'
p5155
sg3486
I1
sg3487
I0
sg3488
S'tapping feet'
p5156
sg3490
F0.0
ssS'becoming <dobj>'
p5157
(dp5158
g667
I1
sg668
I1
sg669
S'dobj'
p5159
sg671
S'becoming'
p5160
sg673
F1.0
ssS'<subj> beginning festival'
p5161
(dp5162
g909
g1201
sg911
I1
sg912
I0
sg913
S'beginning festival'
p5163
sg915
F0.0
ssS'<subj> was explained'
p5164
(dp5165
g2925
I9
sg2926
I9
sg2927
g2928
sg2929
S'was explained'
p5166
sg2931
F1.0
ssS'influence of <np>'
p5167
(dp5168
S'type'
p5169
S'np'
p5170
sS'freq'
p5171
I2
sS'subj_freq'
p5172
I2
sS'display'
p5173
S'influence of'
p5174
sS'prob'
p5175
F1.0
ssS'<subj> built'
p5176
(dp5177
g3843
I1
sg3844
I4
sg3845
S'subj'
p5178
sg3847
S'built'
p5179
sg3849
F0.25
ssS'<subj> hidden'
p5180
(dp5181
g970
g1617
sg972
I5
sg973
I5
sg974
S'hidden'
p5182
sg976
F1.0
ssS'<subj> portraying'
p5183
(dp5184
g2464
g2465
sg2466
I1
sg2467
I0
sg2468
S'portraying'
p5185
sg2470
F0.0
ssS'give <dobj>'
p5186
(dp5187
S'subj_freq'
p5188
I11
sS'freq'
p5189
I11
sS'type'
p5190
S'dobj'
p5191
sS'display'
p5192
S'give'
p5193
sS'prob'
p5194
F1.0
ssS'saves <dobj>'
p5195
(dp5196
g1288
I7
sg1289
I7
sg1290
S'dobj'
p5197
sg1292
S'saves'
p5198
sg1294
F1.0
ssS'dedicated <dobj>'
p5199
(dp5200
g636
S'dobj'
p5201
sg638
I3
sg639
I3
sg640
S'dedicated'
p5202
sg642
F1.0
ssS'<subj> tapping'
p5203
(dp5204
g3484
g5155
sg3486
I1
sg3487
I0
sg3488
S'tapping'
p5205
sg3490
F0.0
ssS'<subj> decides journalist'
p5206
(dp5207
g3234
g3235
sg3236
I9
sg3237
I9
sg3238
S'decides journalist'
p5208
sg3240
F1.0
ssS'heritage of <np>'
p5209
(dp5210
S'subj_freq'
p5211
I4
sS'freq'
p5212
I4
sS'type'
p5213
S'np'
p5214
sS'display'
p5215
S'heritage of'
p5216
sS'prob'
p5217
F1.0
ssS'to relax <dobj>'
p5218
(dp5219
g1739
I2
sg1740
I2
sg1741
g3624
sg1743
S'to relax'
p5220
sg1745
F1.0
ssS'architecture during <np>'
p5221
(dp5222
S'subj_freq'
p5223
I1
sS'freq'
p5224
I1
sS'type'
p5225
S'np'
p5226
sS'display'
p5227
S'architecture during'
p5228
sS'prob'
p5229
F1.0
ssS'left stuff in <np>'
p5230
(dp5231
g1639
S'np'
p5232
sg1641
I5
sg1642
I5
sg1643
S'left stuff in'
p5233
sg1645
F1.0
ssS'<subj> build'
p5234
(dp5235
g455
g1556
sg457
I7
sg458
I7
sg459
S'build'
p5236
sg461
F1.0
ssS'<subj> put'
p5237
(dp5238
g88
g1118
sg90
I42
sg91
I42
sg92
S'put'
p5239
sg94
F1.0
ssS'<subj> was was'
p5240
(dp5241
g970
g1617
sg972
I4
sg973
I4
sg974
S'was was'
p5242
sg976
F1.0
ssS'to making <dobj>'
p5243
(dp5244
g3051
g3301
sg3053
I6
sg3054
I6
sg3055
S'to making'
p5245
sg3057
F1.0
ssS'remind <dobj>'
p5246
(dp5247
g1836
g3902
sg1838
I4
sg1839
I4
sg1840
S'remind'
p5248
sg1842
F1.0
ssS'<subj> do privilege'
p5249
(dp5250
g164
g165
sg166
I7
sg167
I7
sg168
S'do privilege'
p5251
sg170
F1.0
ssS'<subj> says'
p5252
(dp5253
g57
I9
sg58
I9
sg59
g985
sg61
S'says'
p5254
sg63
F1.0
ssS"'re <dobj>"
p5255
(dp5256
g106
I55
sg107
I55
sg108
g109
sg110
S"'re"
p5257
sg112
F1.0
ssS'<subj> used'
p5258
(dp5259
g1002
I7
sg1003
I9
sg1004
g1096
sg1006
S'used'
p5260
sg1008
F0.7777777777777778
ssS'<subj> have powers'
p5261
(dp5262
S'type'
p5263
S'subj'
p5264
sS'freq'
p5265
I1
sS'subj_freq'
p5266
I1
sS'display'
p5267
S'have powers'
p5268
sS'prob'
p5269
F1.0
ssS'<subj> fly way'
p5270
(dp5271
g3188
I2
sg3189
I2
sg3190
g3191
sg3192
S'fly way'
p5272
sg3194
F1.0
ssS'<subj> quench'
p5273
(dp5274
S'subj_freq'
p5275
I1
sS'freq'
p5276
I1
sS'type'
p5277
S'subj'
p5278
sS'display'
p5279
S'quench'
p5280
sS'prob'
p5281
F1.0
ssS'<subj> make Beach'
p5282
(dp5283
g1739
I2
sg1740
I2
sg1741
g1742
sg1743
S'make Beach'
p5284
sg1745
F1.0
ssS'<subj> glittering proof'
p5285
(dp5286
g4924
I1
sg4925
I1
sg4926
S'subj'
p5287
sg4928
S'glittering proof'
p5288
sg4930
F1.0
ssS'<subj> do travel'
p5289
(dp5290
S'type'
p5291
S'subj'
p5292
sS'freq'
p5293
I1
sS'subj_freq'
p5294
I1
sS'display'
p5295
S'do travel'
p5296
sS'prob'
p5297
F1.0
ssS'<subj> suggests'
p5298
(dp5299
g2515
S'subj'
p5300
sg2517
I17
sg2518
I0
sg2519
S'suggests'
p5301
sg2521
F0.0
ssS'<subj> bring'
p5302
(dp5303
g1341
I3
sg1342
I3
sg1343
g1344
sg1345
S'bring'
p5304
sg1347
F1.0
ssS'appreciate <dobj>'
p5305
(dp5306
g2321
I1
sg2322
I1
sg2323
S'dobj'
p5307
sg2325
S'appreciate'
p5308
sg2327
F1.0
ssS'<subj> required happiness'
p5309
(dp5310
g97
I7
sg98
I7
sg99
g100
sg101
S'required happiness'
p5311
sg103
F1.0
ssS'to demonstrate <dobj>'
p5312
(dp5313
g823
I2
sg824
I2
sg825
g4751
sg827
S'to demonstrate'
p5314
sg829
F1.0
ssS"<subj> 's season"
p5315
(dp5316
S'type'
p5317
S'subj'
p5318
sS'freq'
p5319
I1
sS'subj_freq'
p5320
I1
sS'display'
p5321
S"'s season"
p5322
sS'prob'
p5323
F1.0
ssS'probing <dobj>'
p5324
(dp5325
g88
g1941
sg90
I42
sg91
I42
sg92
S'probing'
p5326
sg94
F1.0
ssS'<subj> portraying sculptures'
p5327
(dp5328
g2464
g2465
sg2466
I1
sg2467
I0
sg2468
S'portraying sculptures'
p5329
sg2470
F0.0
ssS'places <dobj>'
p5330
(dp5331
g752
S'dobj'
p5332
sg754
I4
sg755
I4
sg756
S'places'
p5333
sg758
F1.0
ssS'bless <dobj>'
p5334
(dp5335
g381
g382
sg383
I9
sg384
I9
sg385
S'bless'
p5336
sg387
F1.0
ssS'<subj> discover place'
p5337
(dp5338
g3257
I1
sg3258
I1
sg3259
S'subj'
p5339
sg3261
S'discover place'
p5340
sg3263
F1.0
ssS'<subj> speak'
p5341
(dp5342
g3711
S'subj'
p5343
sg3713
I7
sg3714
I7
sg3715
S'speak'
p5344
sg3717
F1.0
ssS'life with <np>'
p5345
(dp5346
S'type'
p5347
S'np'
p5348
sS'freq'
p5349
I4
sS'subj_freq'
p5350
I4
sS'display'
p5351
S'life with'
p5352
sS'prob'
p5353
F1.0
ssS'reached <dobj>'
p5354
(dp5355
g2971
g3226
sg2973
I25
sg2974
I25
sg2975
S'reached'
p5356
sg2977
F1.0
ssS'<subj> exploring'
p5357
(dp5358
g3257
I1
sg3258
I1
sg3259
g5339
sg3261
S'exploring'
p5359
sg3263
F1.0
ssS'cup from <np>'
p5360
(dp5361
g203
S'np'
p5362
sg205
I7
sg206
I7
sg207
S'cup from'
p5363
sg209
F1.0
ssS'<subj> booked'
p5364
(dp5365
g909
g1201
sg911
I1
sg912
I0
sg913
S'booked'
p5366
sg915
F0.0
ssS'bathing <dobj>'
p5367
(dp5368
g1307
I0
sg1308
I1
sg1309
g1310
sg1311
S'bathing'
p5369
sg1313
F0.0
ssS'home with <np>'
p5370
(dp5371
g30
I2
sg31
I2
sg32
S'np'
p5372
sg34
S'home with'
p5373
sg36
F1.0
ssS'enjoy <dobj>'
p5374
(dp5375
g1966
I4
sg1967
I4
sg1968
g4382
sg1970
S'enjoy'
p5376
sg1972
F1.0
ssS'<subj> deserts'
p5377
(dp5378
g3592
I1
sg3593
I1
sg3594
g3595
sg3596
S'deserts'
p5379
sg3598
F1.0
ssS'<subj> exercise'
p5380
(dp5381
g2524
g2525
sg2526
I9
sg2527
I9
sg2528
S'exercise'
p5382
sg2530
F1.0
ssS'love <dobj>'
p5383
(dp5384
g4458
S'dobj'
p5385
sg4460
I9
sg4461
I9
sg4462
S'love'
p5386
sg4464
F1.0
ssS'<subj> offers'
p5387
(dp5388
g3493
I5
sg3494
I6
sg3495
S'subj'
p5389
sg3497
S'offers'
p5390
sg3499
F0.8333333333333334
ssS'<subj> performing'
p5391
(dp5392
g2220
S'subj'
p5393
sg2222
I1
sg2223
I1
sg2224
S'performing'
p5394
sg2226
F1.0
ssS'<subj> fail'
p5395
(dp5396
g1386
I27
sg1387
I27
sg1388
g1808
sg1390
S'fail'
p5397
sg1392
F1.0
ssS'<subj> blessed'
p5398
(dp5399
g372
I1
sg373
I1
sg374
S'subj'
p5400
sg376
S'blessed'
p5401
sg378
F1.0
ssS'was held between <np>'
p5402
(dp5403
g2275
I0
sg2276
I1
sg2277
S'np'
p5404
sg2279
S'was held between'
p5405
sg2281
F0.0
ssS'<subj> believe'
p5406
(dp5407
g537
I30
sg538
I30
sg539
g540
sg541
S'believe'
p5408
sg543
F1.0
ssS'<subj> enchant'
p5409
(dp5410
g3509
S'subj'
p5411
sg3511
I1
sg3512
I1
sg3513
S'enchant'
p5412
sg3515
F1.0
ssS'dominating <dobj>'
p5413
(dp5414
g106
I21
sg107
I21
sg108
g109
sg110
S'dominating'
p5415
sg112
F1.0
ssS'<subj> glittering'
p5416
(dp5417
g4924
I1
sg4925
I1
sg4926
g5287
sg4928
S'glittering'
p5418
sg4930
F1.0
ssS'shown <dobj>'
p5419
(dp5420
g537
I42
sg538
I42
sg539
g1275
sg541
S'shown'
p5421
sg543
F1.0
ssS'<subj> sending army'
p5422
(dp5423
g455
g1556
sg457
I7
sg458
I7
sg459
S'sending army'
p5424
sg461
F1.0
ssS'promise for <np>'
p5425
(dp5426
S'subj_freq'
p5427
I21
sS'freq'
p5428
I21
sS'type'
p5429
S'np'
p5430
sS'display'
p5431
S'promise for'
p5432
sS'prob'
p5433
F1.0
ssS'<subj> set'
p5434
(dp5435
g1966
I2
sg1967
I2
sg1968
g1969
sg1970
S'set'
p5436
sg1972
F1.0
ssS'art of <np>'
p5437
(dp5438
S'subj_freq'
p5439
I0
sS'freq'
p5440
I4
sS'type'
p5441
S'np'
p5442
sS'display'
p5443
S'art of'
p5444
sS'prob'
p5445
F0.0
ssS'<subj> denied'
p5446
(dp5447
g1171
g1316
sg1173
I21
sg1174
I21
sg1175
S'denied'
p5448
sg1177
F1.0
ssS'created <dobj>'
p5449
(dp5450
g502
S'dobj'
p5451
sg504
I5
sg505
I1
sg506
S'created'
p5452
sg508
F0.2
ssS'<subj> need search'
p5453
(dp5454
g408
g409
sg410
I21
sg411
I21
sg412
S'need search'
p5455
sg414
F1.0
ssS'<subj> incurred'
p5456
(dp5457
g2858
g2859
sg2860
I2
sg2861
I0
sg2862
S'incurred'
p5458
sg2864
F0.0
ssS'<subj> inaugurated'
p5459
(dp5460
g1482
S'subj'
p5461
sg1484
I6
sg1485
I3
sg1486
S'inaugurated'
p5462
sg1488
F0.5
ssS'<subj> enter'
p5463
(dp5464
g468
S'subj'
p5465
sg470
I4
sg471
I4
sg472
S'enter'
p5466
sg474
F1.0
ssS'celebrate <dobj>'
p5467
(dp5468
g342
g343
sg344
I5
sg345
I5
sg346
S'celebrate'
p5469
sg348
F1.0
ssS'<subj> celebrating'
p5470
(dp5471
g1109
S'subj'
p5472
sg1111
I2
sg1112
I2
sg1113
S'celebrating'
p5473
sg1115
F1.0
ssS'<subj> providing way'
p5474
(dp5475
g333
g3539
sg335
I21
sg336
I21
sg337
S'providing way'
p5476
sg339
F1.0
ssS'<subj> have fish'
p5477
(dp5478
g948
I3
sg949
I3
sg950
g951
sg952
S'have fish'
p5479
sg954
F1.0
ssS'talking <dobj>'
p5480
(dp5481
g1916
S'dobj'
p5482
sg1918
I21
sg1919
I21
sg1920
S'talking'
p5483
sg1922
F1.0
ssS'<subj> produces euphoria'
p5484
(dp5485
g1573
I7
sg1574
I7
sg1575
g4616
sg1577
S'produces euphoria'
p5486
sg1579
F1.0
ssS'<subj> create'
p5487
(dp5488
g2716
I2
sg2717
I2
sg2718
S'subj'
p5489
sg2720
S'create'
p5490
sg2722
F1.0
ssS'<subj> is was'
p5491
(dp5492
g57
I9
sg58
I9
sg59
g985
sg61
S'is was'
p5493
sg63
F1.0
ssS'<subj> seeing clutter'
p5494
(dp5495
g1060
I7
sg1061
I7
sg1062
g1063
sg1064
S'seeing clutter'
p5496
sg1066
F1.0
ssS'<subj> are celebrated'
p5497
(dp5498
g2953
g2954
sg2955
I1
sg2956
I1
sg2957
S'are celebrated'
p5499
sg2959
F1.0
ssS'<subj> go'
p5500
(dp5501
g2175
S'subj'
p5502
sg2177
I2
sg2178
I2
sg2179
S'go'
p5503
sg2181
F1.0
ssS'say <dobj>'
p5504
(dp5505
g1916
g5482
sg1918
I68
sg1919
I68
sg1920
S'say'
p5506
sg1922
F1.0
ssS'<subj> heed'
p5507
(dp5508
g927
g2350
sg929
I7
sg930
I7
sg931
S'heed'
p5509
sg933
F1.0
ssS'to think <dobj>'
p5510
(dp5511
g2524
g3230
sg2526
I9
sg2527
I9
sg2528
S'to think'
p5512
sg2530
F1.0
ssS'<subj> leads'
p5513
(dp5514
g555
I21
sg556
I22
sg557
g558
sg559
S'leads'
p5515
sg561
F0.9545454545454546
ssS'<subj> state'
p5516
(dp5517
g3012
S'subj'
p5518
sg3014
I23
sg3015
I23
sg3016
S'state'
p5519
sg3018
F1.0
ssS'<subj> please'
p5520
(dp5521
g3906
g3907
sg3908
I6
sg3909
I6
sg3910
S'please'
p5522
sg3912
F1.0
ssS'<subj> uses Europe'
p5523
(dp5524
g1669
I17
sg1670
I17
sg1671
g1672
sg1673
S'uses Europe'
p5525
sg1675
F1.0
ssS'<subj> selling'
p5526
(dp5527
g4176
I16
sg4177
I16
sg4178
g4179
sg4180
S'selling'
p5528
sg4182
F1.0
ssS'to claim <dobj>'
p5529
(dp5530
g106
I21
sg107
I21
sg108
g109
sg110
S'to claim'
p5531
sg112
F1.0
ssS'<subj> claim'
p5532
(dp5533
g106
I28
sg107
I28
sg108
g477
sg110
S'claim'
p5534
sg112
F1.0
ssS'<subj> transforms'
p5535
(dp5536
g4440
S'subj'
p5537
sg4442
I1
sg4443
I1
sg4444
S'transforms'
p5538
sg4446
F1.0
ssS'<subj> began'
p5539
(dp5540
g2193
S'subj'
p5541
sg2195
I3
sg2196
I1
sg2197
S'began'
p5542
sg2199
F0.3333333333333333
ssS'lead by <np>'
p5543
(dp5544
g248
I13
sg249
I13
sg250
g2387
sg252
S'lead by'
p5545
sg254
F1.0
ssS'<subj> makes beach'
p5546
(dp5547
g1872
I1
sg1873
I1
sg1874
g1875
sg1876
S'makes beach'
p5548
sg1878
F1.0
ssS'attend <dobj>'
p5549
(dp5550
g1087
S'dobj'
p5551
sg1089
I2
sg1090
I2
sg1091
S'attend'
p5552
sg1093
F1.0
ssS'<subj> is celebrated'
p5553
(dp5554
g3775
g3776
sg3777
I2
sg3778
I2
sg3779
S'is celebrated'
p5555
sg3781
F1.0
ssS'<subj> do concept'
p5556
(dp5557
g1075
g1076
sg1077
I23
sg1078
I23
sg1079
S'do concept'
p5558
sg1081
F1.0
ssS'made <dobj>'
p5559
(dp5560
g918
I32
sg919
I32
sg920
g2593
sg922
S'made'
p5561
sg924
F1.0
ssS'eliminated <dobj>'
p5562
(dp5563
g106
I21
sg107
I21
sg108
g109
sg110
S'eliminated'
p5564
sg112
F1.0
ssS'<subj> was inaugurated'
p5565
(dp5566
g1482
g5461
sg1484
I2
sg1485
I0
sg1486
S'was inaugurated'
p5567
sg1488
F0.0
ssS'announce <dobj>'
p5568
(dp5569
g3341
g3342
sg3343
I2
sg3344
I2
sg3345
S'announce'
p5570
sg3347
F1.0
ssS'<subj> have years'
p5571
(dp5572
g896
g897
sg898
I6
sg899
I6
sg900
S'have years'
p5573
sg902
F1.0
ssS'<subj> take'
p5574
(dp5575
g927
g2350
sg929
I13
sg930
I13
sg931
S'take'
p5576
sg933
F1.0
ssS'<subj> sounds'
p5577
(dp5578
g606
g2012
sg608
I22
sg609
I22
sg610
S'sounds'
p5579
sg612
F1.0
ssS'<subj> taken'
p5580
(dp5581
g2427
I1
sg2428
I1
sg2429
g2430
sg2431
S'taken'
p5582
sg2433
F1.0
ssS'visiting <dobj>'
p5583
(dp5584
g3156
S'dobj'
p5585
sg3158
I6
sg3159
I6
sg3160
S'visiting'
p5586
sg3162
F1.0
ssS'<subj> has stuff'
p5587
(dp5588
g1639
g1640
sg1641
I5
sg1642
I5
sg1643
S'has stuff'
p5589
sg1645
F1.0
ssS'<subj> give'
p5590
(dp5591
g5188
I11
sg5189
I11
sg5190
S'subj'
p5592
sg5192
S'give'
p5593
sg5194
F1.0
ssS'listening <dobj>'
p5594
(dp5595
g918
I21
sg919
I21
sg920
g2593
sg922
S'listening'
p5596
sg924
F1.0
ssS'<subj> announce judges'
p5597
(dp5598
g3341
g3751
sg3343
I2
sg3344
I2
sg3345
S'announce judges'
p5599
sg3347
F1.0
ssS'gearing <dobj>'
p5600
(dp5601
g1189
S'dobj'
p5602
sg1191
I1
sg1192
I0
sg1193
S'gearing'
p5603
sg1195
F0.0
ssS'witnessed <dobj>'
p5604
(dp5605
g57
I9
sg58
I9
sg59
g60
sg61
S'witnessed'
p5606
sg63
F1.0
ssS'<subj> gets'
p5607
(dp5608
g2485
S'subj'
p5609
sg2487
I1
sg2488
I1
sg2489
S'gets'
p5610
sg2491
F1.0
ssS'fall <dobj>'
p5611
(dp5612
g856
S'dobj'
p5613
sg858
I1
sg859
I1
sg860
S'fall'
p5614
sg862
F1.0
ssS'deliver <dobj>'
p5615
(dp5616
g4543
I4
sg4544
I4
sg4545
g5147
sg4547
S'deliver'
p5617
sg4549
F1.0
ssS'made fun of <np>'
p5618
(dp5619
g1146
S'np'
p5620
sg1148
I7
sg1149
I7
sg1150
S'made fun of'
p5621
sg1152
F1.0
ssS'maintained <dobj>'
p5622
(dp5623
g1702
I0
sg1703
I4
sg1704
S'dobj'
p5624
sg1706
S'maintained'
p5625
sg1708
F0.0
ssS'<subj> fill festival'
p5626
(dp5627
g30
I2
sg31
I2
sg32
g33
sg34
S'fill festival'
p5628
sg36
F1.0
ssS'<subj> help'
p5629
(dp5630
g713
I7
sg714
I7
sg715
g716
sg717
S'help'
p5631
sg719
F1.0
ssS'<subj> inaugurated today'
p5632
(dp5633
g324
I2
sg325
I2
sg326
g327
sg328
S'inaugurated today'
p5634
sg330
F1.0
ssS'<subj> told'
p5635
(dp5636
g212
I19
sg213
I19
sg214
g215
sg216
S'told'
p5637
sg218
F1.0
ssS'<subj> providing'
p5638
(dp5639
g333
g3539
sg335
I21
sg336
I21
sg337
S'providing'
p5640
sg339
F1.0
ssS'<subj> spot Bear'
p5641
(dp5642
g3137
I1
sg3138
I1
sg3139
g3543
sg3141
S'spot Bear'
p5643
sg3143
F1.0
ssV<subj> posted people
p5644
(dp5645
g1257
g1258
sg1259
I2
sg1260
I2
sg1261
Vposted people
p5646
sg1263
F1.0
ssS'converted <dobj>'
p5647
(dp5648
g847
I4
sg848
I9
sg849
S'dobj'
p5649
sg851
S'converted'
p5650
sg853
F0.4444444444444444
ssS'<subj> has ocean'
p5651
(dp5652
g203
g4064
sg205
I7
sg206
I7
sg207
S'has ocean'
p5653
sg209
F1.0
ssS'<subj> explain'
p5654
(dp5655
g2841
I7
sg2842
I7
sg2843
g4744
sg2845
S'explain'
p5656
sg2847
F1.0
ssS'<subj> deserts world'
p5657
(dp5658
g3592
I1
sg3593
I1
sg3594
g3595
sg3596
S'deserts world'
p5659
sg3598
F1.0
ssS'<subj> has property'
p5660
(dp5661
g1885
g2339
sg1887
I4
sg1888
I4
sg1889
S'has property'
p5662
sg1891
F1.0
ssS'<subj> has India'
p5663
(dp5664
g752
g753
sg754
I4
sg755
I4
sg756
S'has India'
p5665
sg758
F1.0
ssS'<subj> leave'
p5666
(dp5667
g1329
g4952
sg1331
I1
sg1332
I1
sg1333
S'leave'
p5668
sg1335
F1.0
ssS'<subj> call heart'
p5669
(dp5670
g4271
I2
sg4272
I2
sg4273
g4274
sg4275
S'call heart'
p5671
sg4277
F1.0
ssS'<subj> standing'
p5672
(dp5673
g2610
I2
sg2611
I2
sg2612
g3385
sg2614
S'standing'
p5674
sg2616
F1.0
ssS'<subj> stand respect'
p5675
(dp5676
g4694
g4695
sg4696
I1
sg4697
I1
sg4698
S'stand respect'
p5677
sg4700
F1.0
ssS'stop <dobj>'
p5678
(dp5679
g918
I21
sg919
I21
sg920
g2593
sg922
S'stop'
p5680
sg924
F1.0
ssS'imposing <dobj>'
p5681
(dp5682
g5138
S'dobj'
p5683
sg5140
I1
sg5141
I1
sg5142
S'imposing'
p5684
sg5144
F1.0
ssS'<subj> fall love'
p5685
(dp5686
g856
g857
sg858
I1
sg859
I1
sg860
S'fall love'
p5687
sg862
F1.0
ssS'<subj> awaits past'
p5688
(dp5689
g2572
I1
sg2573
I1
sg2574
S'subj'
p5690
sg2576
S'awaits past'
p5691
sg2578
F1.0
ssS'leave <dobj>'
p5692
(dp5693
g1329
g1330
sg1331
I1
sg1332
I1
sg1333
S'leave'
p5694
sg1335
F1.0
ssS'<subj> sending'
p5695
(dp5696
g455
g1556
sg457
I7
sg458
I7
sg459
S'sending'
p5697
sg461
F1.0
ssS'<subj> needed arthritis'
p5698
(dp5699
g5097
g5098
sg5099
I7
sg5100
I7
sg5101
S'needed arthritis'
p5700
sg5103
F1.0
ssS'<subj> done to reduced'
p5701
(dp5702
g948
I3
sg949
I3
sg950
g951
sg952
S'done to reduced'
p5703
sg954
F1.0
ssS'<subj> awaits'
p5704
(dp5705
g2572
I1
sg2573
I1
sg2574
g5690
sg2576
S'awaits'
p5706
sg2578
F1.0
ssS'to added <dobj>'
p5707
(dp5708
g137
I4
sg138
I4
sg139
g3698
sg141
S'to added'
p5709
sg143
F1.0
ssS'put <dobj>'
p5710
(dp5711
g88
g1941
sg90
I42
sg91
I42
sg92
S'put'
p5712
sg94
F1.0
ssS'<subj> have ruling'
p5713
(dp5714
g257
I21
sg258
I21
sg259
g260
sg261
S'have ruling'
p5715
sg263
F1.0
ssS'<subj> got'
p5716
(dp5717
g57
I9
sg58
I9
sg59
g985
sg61
S'got'
p5718
sg63
F1.0
ssS'<subj> sees'
p5719
(dp5720
g88
g1118
sg90
I42
sg91
I42
sg92
S'sees'
p5721
sg94
F1.0
ssS'explains <dobj>'
p5722
(dp5723
g88
g1941
sg90
I42
sg91
I42
sg92
S'explains'
p5724
sg94
F1.0
ssS'to conserve <dobj>'
p5725
(dp5726
g1586
g1587
sg1588
I3
sg1589
I3
sg1590
S'to conserve'
p5727
sg1592
F1.0
ssS'<subj> quit years'
p5728
(dp5729
g713
I4
sg714
I4
sg715
g716
sg717
S'quit years'
p5730
sg719
F1.0
ssS'<subj> lies heart'
p5731
(dp5732
S'subj_freq'
p5733
I1
sS'freq'
p5734
I1
sS'type'
p5735
S'subj'
p5736
sS'display'
p5737
S'lies heart'
p5738
sS'prob'
p5739
F1.0
ssS'<subj> started'
p5740
(dp5741
g4026
S'subj'
p5742
sg4028
I2
sg4029
I0
sg4030
S'started'
p5743
sg4032
F0.0
ssS'managing <dobj>'
p5744
(dp5745
g2119
S'dobj'
p5746
sg2121
I4
sg2122
I4
sg2123
S'managing'
p5747
sg2125
F1.0
ssS'video of <np>'
p5748
(dp5749
g788
I0
sg789
I2
sg790
S'np'
p5750
sg792
S'video of'
p5751
sg794
F0.0
ssS'unveiled <dobj>'
p5752
(dp5753
g594
I10
sg595
I10
sg596
g1979
sg598
S'unveiled'
p5754
sg600
F1.0
ssS'written <dobj>'
p5755
(dp5756
g3051
g3301
sg3053
I6
sg3054
I6
sg3055
S'written'
p5757
sg3057
F1.0
ssS'<subj> packed'
p5758
(dp5759
g676
g3641
sg678
I2
sg679
I2
sg680
S'packed'
p5760
sg682
F1.0
ssS'please <dobj>'
p5761
(dp5762
g3906
S'dobj'
p5763
sg3908
I6
sg3909
I6
sg3910
S'please'
p5764
sg3912
F1.0
ssS'bothered <dobj>'
p5765
(dp5766
g896
g2725
sg898
I6
sg899
I6
sg900
S'bothered'
p5767
sg902
F1.0
ssS"<subj> 's moment"
p5768
(dp5769
S'subj_freq'
p5770
I3
sS'freq'
p5771
I3
sS'type'
p5772
S'subj'
p5773
sS'display'
p5774
S"'s moment"
p5775
sS'prob'
p5776
F1.0
ssS'conceded <dobj>'
p5777
(dp5778
g119
g520
sg121
I7
sg122
I7
sg123
S'conceded'
p5779
sg125
F1.0
ssS'<subj> are articulated'
p5780
(dp5781
g2524
g2525
sg2526
I9
sg2527
I9
sg2528
S'are articulated'
p5782
sg2530
F1.0
ssS'making <dobj>'
p5783
(dp5784
g1408
S'dobj'
p5785
sg1410
I34
sg1411
I34
sg1412
S'making'
p5786
sg1414
F1.0
ssS'<subj> added'
p5787
(dp5788
g137
I5
sg138
I6
sg139
g140
sg141
S'added'
p5789
sg143
F0.8333333333333334
ssS'<subj> managing'
p5790
(dp5791
g2119
g2120
sg2121
I4
sg2122
I4
sg2123
S'managing'
p5792
sg2125
F1.0
ssS'bringing <dobj>'
p5793
(dp5794
g3702
S'dobj'
p5795
sg3704
I26
sg3705
I26
sg3706
S'bringing'
p5796
sg3708
F1.0
ssS'<subj> given image'
p5797
(dp5798
g3128
I2
sg3129
I2
sg3130
g3588
sg3132
S'given image'
p5799
sg3134
F1.0
ssS'<subj> left life'
p5800
(dp5801
g1639
g1640
sg1641
I5
sg1642
I5
sg1643
S'left life'
p5802
sg1645
F1.0
ssS'<subj> came'
p5803
(dp5804
g731
g732
sg733
I7
sg734
I7
sg735
S'came'
p5805
sg737
F1.0
ssS'<subj> taking'
p5806
(dp5807
g248
I17
sg249
I17
sg250
g251
sg252
S'taking'
p5808
sg254
F1.0
ssS'need to try <dobj>'
p5809
(dp5810
g3373
I23
sg3374
I23
sg3375
S'dobj'
p5811
sg3377
S'need to try'
p5812
sg3379
F1.0
ssS'<subj> conceded'
p5813
(dp5814
g119
g120
sg121
I7
sg122
I7
sg123
S'conceded'
p5815
sg125
F1.0
ssS'<subj> are used'
p5816
(dp5817
g615
I0
sg616
I1
sg617
g618
sg619
S'are used'
p5818
sg621
F0.0
ssS'<subj> have form'
p5819
(dp5820
g1573
I7
sg1574
I7
sg1575
g4616
sg1577
S'have form'
p5821
sg1579
F1.0
ssS'<subj> involves thrill'
p5822
(dp5823
g1560
I1
sg1561
I1
sg1562
g3864
sg1564
S'involves thrill'
p5824
sg1566
F1.0
ssS'<subj> operate'
p5825
(dp5826
g399
I4
sg400
I4
sg401
g402
sg403
S'operate'
p5827
sg405
F1.0
ssS'quench <dobj>'
p5828
(dp5829
g5275
I1
sg5276
I1
sg5277
S'dobj'
p5830
sg5279
S'quench'
p5831
sg5281
F1.0
ssS'<subj> escape'
p5832
(dp5833
g275
I1
sg276
I1
sg277
S'subj'
p5834
sg279
S'escape'
p5835
sg281
F1.0
ssS'<subj> restored years'
p5836
(dp5837
g2760
g2761
sg2762
I2
sg2763
I2
sg2764
S'restored years'
p5838
sg2766
F1.0
ssS'rate of <np>'
p5839
(dp5840
g3791
I21
sg3792
I21
sg3793
S'np'
p5841
sg3795
S'rate of'
p5842
sg3797
F1.0
ssS'<subj> created capital'
p5843
(dp5844
g502
g503
sg504
I4
sg505
I0
sg506
S'created capital'
p5845
sg508
F0.0
ssS'cost <dobj>'
p5846
(dp5847
g4646
S'dobj'
p5848
sg4648
I1
sg4649
I1
sg4650
S'cost'
p5849
sg4652
F1.0
ssS'<subj> fly'
p5850
(dp5851
g2925
I11
sg2926
I11
sg2927
g2928
sg2929
S'fly'
p5852
sg2931
F1.0
ssS'<subj> was fell'
p5853
(dp5854
g691
g692
sg693
I1
sg694
I1
sg695
S'was fell'
p5855
sg697
F1.0
ssS'<subj> have been misled'
p5856
(dp5857
g1171
g1316
sg1173
I21
sg1174
I21
sg1175
S'have been misled'
p5858
sg1177
F1.0
ssS'portraying characters from <np>'
p5859
(dp5860
g2464
S'np'
p5861
sg2466
I1
sg2467
I0
sg2468
S'portraying characters from'
p5862
sg2470
F0.0
ssS'<subj> want hall'
p5863
(dp5864
S'type'
p5865
S'subj'
p5866
sS'freq'
p5867
I7
sS'subj_freq'
p5868
I7
sS'display'
p5869
S'want hall'
p5870
sS'prob'
p5871
F1.0
ssS'food in <np>'
p5872
(dp5873
S'type'
p5874
S'np'
p5875
sS'freq'
p5876
I2
sS'subj_freq'
p5877
I2
sS'display'
p5878
S'food in'
p5879
sS'prob'
p5880
F1.0
ssS'Fair at <np>'
p5881
(dp5882
g5291
S'np'
p5883
sg5293
I1
sg5294
I1
sg5295
S'Fair at'
p5884
sg5297
F1.0
ssS'<subj> be surprised'
p5885
(dp5886
g3
g4
sg5
I1
sg6
I1
sg7
S'be surprised'
p5887
sg9
F1.0
ssS'learned to play <dobj>'
p5888
(dp5889
g970
g971
sg972
I4
sg973
I4
sg974
S'learned to play'
p5890
sg976
F1.0
ss.