(dp0
S'learning <dobj>'
p1
(dp2
S'subj_freq'
p3
I8
sS'freq'
p4
I8
sS'type'
p5
S'dobj'
p6
sS'display'
p7
S'learning'
p8
sS'prob'
p9
F1.0
ssVwatched <dobj>
p10
(dp11
S'type'
p12
S'dobj'
p13
sS'freq'
p14
I25
sS'subj_freq'
p15
I25
sS'display'
p16
Vwatched
p17
sS'prob'
p18
F1.0
ssV<subj> tracks
p19
(dp20
S'subj_freq'
p21
I9
sS'freq'
p22
I9
sS'type'
p23
S'subj'
p24
sS'display'
p25
Vtracks
p26
sS'prob'
p27
F1.0
ssVimagined <dobj>
p28
(dp29
g21
I9
sg22
I9
sg23
S'dobj'
p30
sg25
Vimagined
p31
sg27
F1.0
ssVbring <dobj>
p32
(dp33
g21
I9
sg22
I9
sg23
g30
sg25
Vbring
p34
sg27
F1.0
ssV<subj> wait
p35
(dp36
g21
I7
sg22
I7
sg23
g24
sg25
Vwait
p37
sg27
F1.0
ssVfeatured <dobj>
p38
(dp39
g21
I9
sg22
I9
sg23
g30
sg25
Vfeatured
p40
sg27
F1.0
ssV<subj> posted people
p41
(dp42
g12
S'subj'
p43
sg14
I34
sg15
I34
sg16
Vposted people
p44
sg18
F1.0
ssV<subj> imagined worlds
p45
(dp46
g21
I9
sg22
I9
sg23
g24
sg25
Vimagined worlds
p47
sg27
F1.0
ssV<subj> get seat
p48
(dp49
g21
I9
sg22
I9
sg23
g24
sg25
Vget seat
p50
sg27
F1.0
ssS"<subj> 'm"
p51
(dp52
S'type'
p53
S'subj'
p54
sS'freq'
p55
I7
sS'subj_freq'
p56
I7
sS'display'
p57
S"'m"
p58
sS'prob'
p59
F1.0
ssVdid <dobj>
p60
(dp61
g12
g13
sg14
I25
sg15
I25
sg16
Vdid
p62
sg18
F1.0
ssVkeep <dobj>
p63
(dp64
g21
I9
sg22
I9
sg23
g30
sg25
Vkeep
p65
sg27
F1.0
ssS'<subj> come gentlemen'
p66
(dp67
S'type'
p68
S'subj'
p69
sS'freq'
p70
I2
sS'subj_freq'
p71
I1
sS'display'
p72
S'come gentlemen'
p73
sS'prob'
p74
F0.5
ssV<subj> featured
p75
(dp76
g21
I9
sg22
I9
sg23
g24
sg25
Vfeatured
p77
sg27
F1.0
ssS'<subj> relating'
p78
(dp79
S'subj_freq'
p80
I1
sS'freq'
p81
I1
sS'type'
p82
S'subj'
p83
sS'display'
p84
S'relating'
p85
sS'prob'
p86
F1.0
ssS'<subj> found'
p87
(dp88
S'type'
p89
S'subj'
p90
sS'freq'
p91
I4
sS'subj_freq'
p92
I4
sS'display'
p93
S'found'
p94
sS'prob'
p95
F1.0
ssS'<subj> like'
p96
(dp97
S'type'
p98
S'subj'
p99
sS'freq'
p100
I1
sS'subj_freq'
p101
I1
sS'display'
p102
S'like'
p103
sS'prob'
p104
F1.0
ssVconveyed <dobj>
p105
(dp106
g21
I9
sg22
I9
sg23
g30
sg25
Vconveyed
p107
sg27
F1.0
ssVCalled <dobj>
p108
(dp109
g21
I23
sg22
I23
sg23
g30
sg25
VCalled
p110
sg27
F1.0
ssVwait <dobj>
p111
(dp112
g21
I7
sg22
I7
sg23
g30
sg25
Vwait
p113
sg27
F1.0
ssVforces <dobj>
p114
(dp115
g12
g13
sg14
I25
sg15
I25
sg16
Vforces
p116
sg18
F1.0
ssV<subj> did
p117
(dp118
g12
g43
sg14
I25
sg15
I25
sg16
Vdid
p119
sg18
F1.0
ssS'come <dobj>'
p120
(dp121
g68
S'dobj'
p122
sg70
I2
sg71
I1
sg72
S'come'
p123
sg74
F0.5
ssS"'m <dobj>"
p124
(dp125
g53
S'dobj'
p126
sg55
I7
sg56
I7
sg57
S"'m"
p127
sg59
F1.0
ssV<subj> keep
p128
(dp129
g21
I9
sg22
I9
sg23
g24
sg25
Vkeep
p130
sg27
F1.0
ssVposted <dobj>
p131
(dp132
g12
g13
sg14
I34
sg15
I34
sg16
Vposted
p133
sg18
F1.0
ssVreleased <dobj>
p134
(dp135
g21
I9
sg22
I9
sg23
g30
sg25
Vreleased
p136
sg27
F1.0
ssS'found <dobj>'
p137
(dp138
g89
S'dobj'
p139
sg91
I4
sg92
I4
sg93
S'found'
p140
sg95
F1.0
ssVblown <dobj>
p141
(dp142
g12
g13
sg14
I34
sg15
I34
sg16
Vblown
p143
sg18
F1.0
ssVCompiled <dobj>
p144
(dp145
g21
I9
sg22
I9
sg23
g30
sg25
VCompiled
p146
sg27
F1.0
ssV<subj> get
p147
(dp148
g21
I9
sg22
I9
sg23
g24
sg25
Vget
p149
sg27
F1.0
ssS'hate <dobj>'
p150
(dp151
S'type'
p152
S'dobj'
p153
sS'freq'
p154
I4
sS'subj_freq'
p155
I4
sS'display'
p156
S'hate'
p157
sS'prob'
p158
F1.0
ssV<subj> give
p159
(dp160
g12
g43
sg14
I40
sg15
I40
sg16
Vgive
p161
sg18
F1.0
ssS'<subj> come'
p162
(dp163
g68
g69
sg70
I2
sg71
I1
sg72
S'come'
p164
sg74
F0.5
ssV<subj> conveyed
p165
(dp166
g21
I9
sg22
I9
sg23
g24
sg25
Vconveyed
p167
sg27
F1.0
ssV<subj> forces
p168
(dp169
g12
g43
sg14
I25
sg15
I25
sg16
Vforces
p170
sg18
F1.0
ssV<subj> Called Ad
p171
(dp172
g21
I14
sg22
I14
sg23
g24
sg25
VCalled Ad
p173
sg27
F1.0
ssV<subj> was blown
p174
(dp175
g12
g43
sg14
I34
sg15
I34
sg16
Vwas blown
p176
sg18
F1.0
ssV<subj> capture
p177
(dp178
g21
I9
sg22
I9
sg23
g24
sg25
Vcapture
p179
sg27
F1.0
ssVtracks <dobj>
p180
(dp181
g21
I9
sg22
I9
sg23
g30
sg25
Vtracks
p182
sg27
F1.0
ssS'<subj> found presentation'
p183
(dp184
g89
g90
sg91
I4
sg92
I4
sg93
S'found presentation'
p185
sg95
F1.0
ssS'<subj> think'
p186
(dp187
S'subj_freq'
p188
I4
sS'freq'
p189
I4
sS'type'
p190
S'subj'
p191
sS'display'
p192
S'think'
p193
sS'prob'
p194
F1.0
ssVgive <dobj>
p195
(dp196
g12
g13
sg14
I40
sg15
I40
sg16
Vgive
p197
sg18
F1.0
ssS'think <dobj>'
p198
(dp199
g188
I4
sg189
I4
sg190
S'dobj'
p200
sg192
S'think'
p201
sg194
F1.0
ssV<subj> posted
p202
(dp203
g12
g43
sg14
I34
sg15
I34
sg16
Vposted
p204
sg18
F1.0
ssV<subj> Called D
p205
(dp206
g21
I7
sg22
I7
sg23
g24
sg25
VCalled D
p207
sg27
F1.0
ssV<subj> Called
p208
(dp209
g21
I23
sg22
I23
sg23
g24
sg25
VCalled
p210
sg27
F1.0
ssS'sharing <dobj>'
p211
(dp212
g21
I0
sg22
I14
sg23
g30
sg25
S'sharing'
p213
sg27
F0.0
ssS'<subj> learning'
p214
(dp215
g3
I8
sg4
I8
sg5
S'subj'
p216
sg7
S'learning'
p217
sg9
F1.0
ssVget <dobj>
p218
(dp219
g21
I9
sg22
I9
sg23
g30
sg25
Vget
p220
sg27
F1.0
ssV<subj> Called L
p221
(dp222
g21
I7
sg22
I7
sg23
g24
sg25
VCalled L
p223
sg27
F1.0
ssS'<subj> like love'
p224
(dp225
g98
g99
sg100
I1
sg101
I1
sg102
S'like love'
p226
sg104
F1.0
ssV<subj> released
p227
(dp228
g21
I9
sg22
I9
sg23
g24
sg25
Vreleased
p229
sg27
F1.0
ssVread <dobj>
p230
(dp231
g12
g13
sg14
I34
sg15
I34
sg16
Vread
p232
sg18
F1.0
ssV<subj> imagined
p233
(dp234
g21
I9
sg22
I9
sg23
g24
sg25
Vimagined
p235
sg27
F1.0
ssV<subj> watched
p236
(dp237
g12
g43
sg14
I25
sg15
I25
sg16
Vwatched
p238
sg18
F1.0
ssS'<subj> sharing'
p239
(dp240
g21
I0
sg22
I14
sg23
g24
sg25
S'sharing'
p241
sg27
F0.0
ssV<subj> bring
p242
(dp243
g21
I9
sg22
I9
sg23
g24
sg25
Vbring
p244
sg27
F1.0
ssVcapture <dobj>
p245
(dp246
g21
I9
sg22
I9
sg23
g30
sg25
Vcapture
p247
sg27
F1.0
ssS'<subj> hate'
p248
(dp249
g152
S'subj'
p250
sg154
I4
sg155
I4
sg156
S'hate'
p251
sg158
F1.0
ssV<subj> Compiled
p252
(dp253
g21
I9
sg22
I9
sg23
g24
sg25
VCompiled
p254
sg27
F1.0
ssS'relating <dobj>'
p255
(dp256
g80
I1
sg81
I1
sg82
S'dobj'
p257
sg84
S'relating'
p258
sg86
F1.0
ssV<subj> blown
p259
(dp260
g12
g43
sg14
I34
sg15
I34
sg16
Vblown
p261
sg18
F1.0
ssS'like <dobj>'
p262
(dp263
g98
S'dobj'
p264
sg100
I1
sg101
I1
sg102
S'like'
p265
sg104
F1.0
ssV<subj> Called Land
p266
(dp267
g21
I23
sg22
I23
sg23
g24
sg25
VCalled Land
p268
sg27
F1.0
ssS'<subj> relating view'
p269
(dp270
g80
I1
sg81
I1
sg82
g83
sg84
S'relating view'
p271
sg86
F1.0
ssV<subj> read
p272
(dp273
g12
g43
sg14
I34
sg15
I34
sg16
Vread
p274
sg18
F1.0
ss.