(dp0
S'<subj> surprised'
p1
(dp2
S'type'
p3
S'subj'
p4
sS'freq'
p5
I1
sS'subj_freq'
p6
I1
sS'display'
p7
S'surprised'
p8
sS'prob'
p9
F1.0
ssS'<subj> is made'
p10
(dp11
S'subj_freq'
p12
I1
sS'freq'
p13
I1
sS'type'
p14
S'subj'
p15
sS'display'
p16
S'is made'
p17
sS'prob'
p18
F1.0
ssS"'ve <dobj>"
p19
(dp20
S'subj_freq'
p21
I23
sS'freq'
p22
I23
sS'type'
p23
S'dobj'
p24
sS'display'
p25
S"'ve"
p26
sS'prob'
p27
F1.0
ssS'<subj> fill'
p28
(dp29
S'subj_freq'
p30
I2
sS'freq'
p31
I2
sS'type'
p32
S'subj'
p33
sS'display'
p34
S'fill'
p35
sS'prob'
p36
F1.0
ssS'changing <dobj>'
p37
(dp38
S'subj_freq'
p39
I10
sS'freq'
p40
I10
sS'type'
p41
S'dobj'
p42
sS'display'
p43
S'changing'
p44
sS'prob'
p45
F1.0
ssS'assertion that <np>'
p46
(dp47
S'type'
p48
S'np'
p49
sS'freq'
p50
I7
sS'subj_freq'
p51
I7
sS'display'
p52
S'assertion that'
p53
sS'prob'
p54
F1.0
ssS'cause <dobj>'
p55
(dp56
S'subj_freq'
p57
I9
sS'freq'
p58
I9
sS'type'
p59
S'dobj'
p60
sS'display'
p61
S'cause'
p62
sS'prob'
p63
F1.0
ssS'thinks sister of <np>'
p64
(dp65
g57
I9
sg58
I9
sg59
S'np'
p66
sg61
S'thinks sister of'
p67
sg63
F1.0
ssS'<subj> located'
p68
(dp69
S'subj_freq'
p70
I4
sS'freq'
p71
I7
sS'type'
p72
S'subj'
p73
sS'display'
p74
S'located'
p75
sS'prob'
p76
F0.5714285714285714
ssS'await <dobj>'
p77
(dp78
S'subj_freq'
p79
I2
sS'freq'
p80
I2
sS'type'
p81
S'dobj'
p82
sS'display'
p83
S'await'
p84
sS'prob'
p85
F1.0
ssS'put focus on <np>'
p86
(dp87
S'type'
p88
S'np'
p89
sS'freq'
p90
I42
sS'subj_freq'
p91
I42
sS'display'
p92
S'put focus on'
p93
sS'prob'
p94
F1.0
ssS'<subj> according to required'
p95
(dp96
S'subj_freq'
p97
I7
sS'freq'
p98
I7
sS'type'
p99
S'subj'
p100
sS'display'
p101
S'according to required'
p102
sS'prob'
p103
F1.0
ssS'claim <dobj>'
p104
(dp105
S'subj_freq'
p106
I28
sS'freq'
p107
I28
sS'type'
p108
S'dobj'
p109
sS'display'
p110
S'claim'
p111
sS'prob'
p112
F1.0
ssS"<subj> 've"
p113
(dp114
g21
I23
sg22
I23
sg23
S'subj'
p115
sg25
S"'ve"
p116
sg27
F1.0
ssS'<subj> knew'
p117
(dp118
S'type'
p119
S'subj'
p120
sS'freq'
p121
I7
sS'subj_freq'
p122
I7
sS'display'
p123
S'knew'
p124
sS'prob'
p125
F1.0
ssS'<subj> hate world'
p126
(dp127
S'type'
p128
S'subj'
p129
sS'freq'
p130
I9
sS'subj_freq'
p131
I9
sS'display'
p132
S'hate world'
p133
sS'prob'
p134
F1.0
ssS'<subj> added spirit'
p135
(dp136
S'subj_freq'
p137
I5
sS'freq'
p138
I5
sS'type'
p139
S'subj'
p140
sS'display'
p141
S'added spirit'
p142
sS'prob'
p143
F1.0
ssS'walks <dobj>'
p144
(dp145
S'type'
p146
S'dobj'
p147
sS'freq'
p148
I1
sS'subj_freq'
p149
I1
sS'display'
p150
S'walks'
p151
sS'prob'
p152
F1.0
ssS'<subj> explain'
p153
(dp154
S'subj_freq'
p155
I7
sS'freq'
p156
I7
sS'type'
p157
S'subj'
p158
sS'display'
p159
S'explain'
p160
sS'prob'
p161
F1.0
ssS'<subj> hold'
p162
(dp163
S'subj_freq'
p164
I7
sS'freq'
p165
I7
sS'type'
p166
S'subj'
p167
sS'display'
p168
S'hold'
p169
sS'prob'
p170
F1.0
ssS'<subj> belongs'
p171
(dp172
S'type'
p173
S'subj'
p174
sS'freq'
p175
I7
sS'subj_freq'
p176
I7
sS'display'
p177
S'belongs'
p178
sS'prob'
p179
F1.0
ssS'gives <dobj>'
p180
(dp181
S'type'
p182
S'dobj'
p183
sS'freq'
p184
I10
sS'subj_freq'
p185
I10
sS'display'
p186
S'gives'
p187
sS'prob'
p188
F1.0
ssS'options for <np>'
p189
(dp190
S'subj_freq'
p191
I1
sS'freq'
p192
I1
sS'type'
p193
S'np'
p194
sS'display'
p195
S'options for'
p196
sS'prob'
p197
F1.0
ssS'<subj> knew Beijing'
p198
(dp199
g119
g120
sg121
I7
sg122
I7
sg123
S'knew Beijing'
p200
sg125
F1.0
ssS'cut <dobj>'
p201
(dp202
S'type'
p203
S'dobj'
p204
sS'freq'
p205
I4
sS'subj_freq'
p206
I4
sS'display'
p207
S'cut'
p208
sS'prob'
p209
F1.0
ssS'deserved <dobj>'
p210
(dp211
S'type'
p212
S'dobj'
p213
sS'freq'
p214
I7
sS'subj_freq'
p215
I7
sS'display'
p216
S'deserved'
p217
sS'prob'
p218
F1.0
ssS'<subj> need to told'
p219
(dp220
S'subj_freq'
p221
I19
sS'freq'
p222
I19
sS'type'
p223
S'subj'
p224
sS'display'
p225
S'need to told'
p226
sS'prob'
p227
F1.0
ssS'thinking <dobj>'
p228
(dp229
S'type'
p230
S'dobj'
p231
sS'freq'
p232
I21
sS'subj_freq'
p233
I21
sS'display'
p234
S'thinking'
p235
sS'prob'
p236
F1.0
ssS'<subj> beginning today'
p237
(dp238
S'type'
p239
S'subj'
p240
sS'freq'
p241
I1
sS'subj_freq'
p242
I1
sS'display'
p243
S'beginning today'
p244
sS'prob'
p245
F1.0
ssS'spread <dobj>'
p246
(dp247
S'subj_freq'
p248
I1
sS'freq'
p249
I1
sS'type'
p250
S'dobj'
p251
sS'display'
p252
S'spread'
p253
sS'prob'
p254
F1.0
ssS'<subj> become help'
p255
(dp256
S'subj_freq'
p257
I13
sS'freq'
p258
I13
sS'type'
p259
S'subj'
p260
sS'display'
p261
S'become help'
p262
sS'prob'
p263
F1.0
ssS'<subj> undo powers'
p264
(dp265
S'subj_freq'
p266
I21
sS'freq'
p267
I21
sS'type'
p268
S'subj'
p269
sS'display'
p270
S'undo powers'
p271
sS'prob'
p272
F1.0
ssS'<subj> excited topic'
p273
(dp274
S'subj_freq'
p275
I21
sS'freq'
p276
I21
sS'type'
p277
S'subj'
p278
sS'display'
p279
S'excited topic'
p280
sS'prob'
p281
F1.0
ssS'escape <dobj>'
p282
(dp283
S'subj_freq'
p284
I1
sS'freq'
p285
I1
sS'type'
p286
S'dobj'
p287
sS'display'
p288
S'escape'
p289
sS'prob'
p290
F1.0
ssS'<subj> turns'
p291
(dp292
S'subj_freq'
p293
I3
sS'freq'
p294
I3
sS'type'
p295
S'subj'
p296
sS'display'
p297
S'turns'
p298
sS'prob'
p299
F1.0
ssS'<subj> discussed'
p300
(dp301
S'type'
p302
S'subj'
p303
sS'freq'
p304
I21
sS'subj_freq'
p305
I21
sS'display'
p306
S'discussed'
p307
sS'prob'
p308
F1.0
ssS'<subj> complain'
p309
(dp310
S'subj_freq'
p311
I21
sS'freq'
p312
I21
sS'type'
p313
S'subj'
p314
sS'display'
p315
S'complain'
p316
sS'prob'
p317
F1.0
ssS'<subj> cut syndrome'
p318
(dp319
g203
S'subj'
p320
sg205
I4
sg206
I4
sg207
S'cut syndrome'
p321
sg209
F1.0
ssS'<subj> was amazed'
p322
(dp323
S'type'
p324
S'subj'
p325
sS'freq'
p326
I2
sS'subj_freq'
p327
I2
sS'display'
p328
S'was amazed'
p329
sS'prob'
p330
F1.0
ssS'<subj> be inaugurated'
p331
(dp332
S'subj_freq'
p333
I2
sS'freq'
p334
I2
sS'type'
p335
S'subj'
p336
sS'display'
p337
S'be inaugurated'
p338
sS'prob'
p339
F1.0
ssS'think <dobj>'
p340
(dp341
S'type'
p342
S'dobj'
p343
sS'freq'
p344
I75
sS'subj_freq'
p345
I75
sS'display'
p346
S'think'
p347
sS'prob'
p348
F1.0
ssS'to celebrate <dobj>'
p349
(dp350
S'type'
p351
S'dobj'
p352
sS'freq'
p353
I4
sS'subj_freq'
p354
I4
sS'display'
p355
S'to celebrate'
p356
sS'prob'
p357
F1.0
ssS'focused <dobj>'
p358
(dp359
S'type'
p360
S'dobj'
p361
sS'freq'
p362
I7
sS'subj_freq'
p363
I7
sS'display'
p364
S'focused'
p365
sS'prob'
p366
F1.0
ssS'<subj> belongs community'
p367
(dp368
g173
g174
sg175
I7
sg176
I7
sg177
S'belongs community'
p369
sg179
F1.0
ssS'spreading <dobj>'
p370
(dp371
S'subj_freq'
p372
I2
sS'freq'
p373
I2
sS'type'
p374
S'dobj'
p375
sS'display'
p376
S'spreading'
p377
sS'prob'
p378
F1.0
ssS'blessed <dobj>'
p379
(dp380
S'subj_freq'
p381
I1
sS'freq'
p382
I1
sS'type'
p383
S'dobj'
p384
sS'display'
p385
S'blessed'
p386
sS'prob'
p387
F1.0
ssS'sharing <dobj>'
p388
(dp389
S'type'
p390
S'dobj'
p391
sS'freq'
p392
I10
sS'subj_freq'
p393
I10
sS'display'
p394
S'sharing'
p395
sS'prob'
p396
F1.0
ssS'explore <dobj>'
p397
(dp398
S'subj_freq'
p399
I2
sS'freq'
p400
I2
sS'type'
p401
S'dobj'
p402
sS'display'
p403
S'explore'
p404
sS'prob'
p405
F1.0
ssS'<subj> creating universe'
p406
(dp407
S'subj_freq'
p408
I4
sS'freq'
p409
I4
sS'type'
p410
S'subj'
p411
sS'display'
p412
S'creating universe'
p413
sS'prob'
p414
F1.0
ssS'<subj> seems'
p415
(dp416
S'type'
p417
S'subj'
p418
sS'freq'
p419
I29
sS'subj_freq'
p420
I29
sS'display'
p421
S'seems'
p422
sS'prob'
p423
F1.0
ssS'<subj> provides Forest'
p424
(dp425
S'type'
p426
S'subj'
p427
sS'freq'
p428
I1
sS'subj_freq'
p429
I1
sS'display'
p430
S'provides Forest'
p431
sS'prob'
p432
F1.0
ssS'<subj> provides'
p433
(dp434
g426
g427
sg428
I2
sg429
I2
sg430
S'provides'
p435
sg432
F1.0
ssS'attributed <dobj>'
p436
(dp437
S'type'
p438
S'dobj'
p439
sS'freq'
p440
I10
sS'subj_freq'
p441
I10
sS'display'
p442
S'attributed'
p443
sS'prob'
p444
F1.0
ssS'according <dobj>'
p445
(dp446
g97
I7
sg98
I7
sg99
S'dobj'
p447
sg101
S'according'
p448
sg103
F1.0
ssS'hate <dobj>'
p449
(dp450
g128
S'dobj'
p451
sg130
I9
sg131
I9
sg132
S'hate'
p452
sg134
F1.0
ssS"<subj> 's place"
p453
(dp454
S'type'
p455
S'subj'
p456
sS'freq'
p457
I1
sS'subj_freq'
p458
I1
sS'display'
p459
S"'s place"
p460
sS'prob'
p461
F1.0
ssS'to fight <dobj>'
p462
(dp463
S'type'
p464
S'dobj'
p465
sS'freq'
p466
I7
sS'subj_freq'
p467
I7
sS'display'
p468
S'to fight'
p469
sS'prob'
p470
F1.0
ssS'<subj> changing education'
p471
(dp472
g39
I9
sg40
I9
sg41
S'subj'
p473
sg43
S'changing education'
p474
sg45
F1.0
ssS'hotel in <np>'
p475
(dp476
S'type'
p477
S'np'
p478
sS'freq'
p479
I4
sS'subj_freq'
p480
I4
sS'display'
p481
S'hotel in'
p482
sS'prob'
p483
F1.0
ssS'<subj> connected'
p484
(dp485
g106
I25
sg107
I25
sg108
S'subj'
p486
sg110
S'connected'
p487
sg112
F1.0
ssS'<subj> needed'
p488
(dp489
S'type'
p490
S'subj'
p491
sS'freq'
p492
I28
sS'subj_freq'
p493
I28
sS'display'
p494
S'needed'
p495
sS'prob'
p496
F1.0
ssS'stay <dobj>'
p497
(dp498
S'type'
p499
S'dobj'
p500
sS'freq'
p501
I4
sS'subj_freq'
p502
I4
sS'display'
p503
S'stay'
p504
sS'prob'
p505
F1.0
ssS'<subj> needed to teach'
p506
(dp507
g490
g491
sg492
I21
sg493
I21
sg494
S'needed to teach'
p508
sg496
F1.0
ssS'<subj> created museum'
p509
(dp510
S'type'
p511
S'subj'
p512
sS'freq'
p513
I4
sS'subj_freq'
p514
I0
sS'display'
p515
S'created museum'
p516
sS'prob'
p517
F0.0
ssS'<subj> celebrate New'
p518
(dp519
S'type'
p520
S'subj'
p521
sS'freq'
p522
I1
sS'subj_freq'
p523
I1
sS'display'
p524
S'celebrate New'
p525
sS'prob'
p526
F1.0
ssS'knew <dobj>'
p527
(dp528
g119
S'dobj'
p529
sg121
I7
sg122
I7
sg123
S'knew'
p530
sg125
F1.0
ssS'<subj> get input'
p531
(dp532
S'subj_freq'
p533
I9
sS'freq'
p534
I9
sS'type'
p535
S'subj'
p536
sS'display'
p537
S'get input'
p538
sS'prob'
p539
F1.0
ssS'<subj> attributed'
p540
(dp541
g438
S'subj'
p542
sg440
I10
sg441
I10
sg442
S'attributed'
p543
sg444
F1.0
ssS'<subj> solving'
p544
(dp545
S'subj_freq'
p546
I21
sS'freq'
p547
I21
sS'type'
p548
S'subj'
p549
sS'display'
p550
S'solving'
p551
sS'prob'
p552
F1.0
ssS'<subj> capture sky'
p553
(dp554
S'type'
p555
S'subj'
p556
sS'freq'
p557
I2
sS'subj_freq'
p558
I2
sS'display'
p559
S'capture sky'
p560
sS'prob'
p561
F1.0
ssS'<subj> does'
p562
(dp563
S'subj_freq'
p564
I47
sS'freq'
p565
I47
sS'type'
p566
S'subj'
p567
sS'display'
p568
S'does'
p569
sS'prob'
p570
F1.0
ssS'<subj> imposing'
p571
(dp572
S'type'
p573
S'subj'
p574
sS'freq'
p575
I1
sS'subj_freq'
p576
I1
sS'display'
p577
S'imposing'
p578
sS'prob'
p579
F1.0
ssS'make <dobj>'
p580
(dp581
S'type'
p582
S'dobj'
p583
sS'freq'
p584
I43
sS'subj_freq'
p585
I43
sS'display'
p586
S'make'
p587
sS'prob'
p588
F1.0
ssS"'s <dobj>"
p589
(dp590
S'subj_freq'
p591
I251
sS'freq'
p592
I251
sS'type'
p593
S'dobj'
p594
sS'display'
p595
S"'s"
p596
sS'prob'
p597
F1.0
ssS'<subj> exhibiting'
p598
(dp599
S'type'
p600
S'subj'
p601
sS'freq'
p602
I1
sS'subj_freq'
p603
I0
sS'display'
p604
S'exhibiting'
p605
sS'prob'
p606
F0.0
ssS'<subj> according'
p607
(dp608
g97
I7
sg98
I7
sg99
g100
sg101
S'according'
p609
sg103
F1.0
ssS'<subj> be unveiled'
p610
(dp611
S'subj_freq'
p612
I9
sS'freq'
p613
I9
sS'type'
p614
S'subj'
p615
sS'display'
p616
S'be unveiled'
p617
sS'prob'
p618
F1.0
ssS'<subj> has be solving'
p619
(dp620
g546
I21
sg547
I21
sg548
g549
sg550
S'has be solving'
p621
sg552
F1.0
ssS'sounds <dobj>'
p622
(dp623
S'type'
p624
S'dobj'
p625
sS'freq'
p626
I22
sS'subj_freq'
p627
I22
sS'display'
p628
S'sounds'
p629
sS'prob'
p630
F1.0
ssS'designed <dobj>'
p631
(dp632
S'type'
p633
S'dobj'
p634
sS'freq'
p635
I2
sS'subj_freq'
p636
I2
sS'display'
p637
S'designed'
p638
sS'prob'
p639
F1.0
ssS'<subj> learn'
p640
(dp641
S'type'
p642
S'subj'
p643
sS'freq'
p644
I9
sS'subj_freq'
p645
I9
sS'display'
p646
S'learn'
p647
sS'prob'
p648
F1.0
ssS'<subj> needed education'
p649
(dp650
g490
g491
sg492
I21
sg493
I21
sg494
S'needed education'
p651
sg496
F1.0
ssS'<subj> is dedicated'
p652
(dp653
S'type'
p654
S'subj'
p655
sS'freq'
p656
I3
sS'subj_freq'
p657
I3
sS'display'
p658
S'is dedicated'
p659
sS'prob'
p660
F1.0
ssS'<subj> going'
p661
(dp662
g360
S'subj'
p663
sg362
I12
sg363
I12
sg364
S'going'
p664
sg366
F1.0
ssS'<subj> like'
p665
(dp666
S'subj_freq'
p667
I10
sS'freq'
p668
I10
sS'type'
p669
S'subj'
p670
sS'display'
p671
S'like'
p672
sS'prob'
p673
F1.0
ssS'celebrated <dobj>'
p674
(dp675
S'type'
p676
S'dobj'
p677
sS'freq'
p678
I7
sS'subj_freq'
p679
I7
sS'display'
p680
S'celebrated'
p681
sS'prob'
p682
F1.0
ssS'<subj> becoming'
p683
(dp684
S'subj_freq'
p685
I1
sS'freq'
p686
I1
sS'type'
p687
S'subj'
p688
sS'display'
p689
S'becoming'
p690
sS'prob'
p691
F1.0
ssS'displaying <dobj>'
p692
(dp693
S'type'
p694
S'dobj'
p695
sS'freq'
p696
I2
sS'subj_freq'
p697
I2
sS'display'
p698
S'displaying'
p699
sS'prob'
p700
F1.0
ssS'<subj> dominating'
p701
(dp702
g106
I21
sg107
I21
sg108
g486
sg110
S'dominating'
p703
sg112
F1.0
ssS'<subj> provides opportunity'
p704
(dp705
g426
g427
sg428
I1
sg429
I1
sg430
S'provides opportunity'
p706
sg432
F1.0
ssS'<subj> fell'
p707
(dp708
S'type'
p709
S'subj'
p710
sS'freq'
p711
I1
sS'subj_freq'
p712
I1
sS'display'
p713
S'fell'
p714
sS'prob'
p715
F1.0
ssS'<subj> gives'
p716
(dp717
g182
S'subj'
p718
sg184
I10
sg185
I10
sg186
S'gives'
p719
sg188
F1.0
ssS'presented <dobj>'
p720
(dp721
S'type'
p722
S'dobj'
p723
sS'freq'
p724
I9
sS'subj_freq'
p725
I9
sS'display'
p726
S'presented'
p727
sS'prob'
p728
F1.0
ssS'<subj> quit'
p729
(dp730
S'subj_freq'
p731
I4
sS'freq'
p732
I4
sS'type'
p733
S'subj'
p734
sS'display'
p735
S'quit'
p736
sS'prob'
p737
F1.0
ssS'<subj> given'
p738
(dp739
S'type'
p740
S'subj'
p741
sS'freq'
p742
I10
sS'subj_freq'
p743
I10
sS'display'
p744
S'given'
p745
sS'prob'
p746
F1.0
ssS'<subj> saw Education'
p747
(dp748
S'type'
p749
S'subj'
p750
sS'freq'
p751
I7
sS'subj_freq'
p752
I7
sS'display'
p753
S'saw Education'
p754
sS'prob'
p755
F1.0
ssS'<subj> solving energy'
p756
(dp757
g546
I21
sg547
I21
sg548
g549
sg550
S'solving energy'
p758
sg552
F1.0
ssS'<subj> understand'
p759
(dp760
S'type'
p761
S'subj'
p762
sS'freq'
p763
I7
sS'subj_freq'
p764
I7
sS'display'
p765
S'understand'
p766
sS'prob'
p767
F1.0
ssS'<subj> has been places'
p768
(dp769
S'type'
p770
S'subj'
p771
sS'freq'
p772
I4
sS'subj_freq'
p773
I4
sS'display'
p774
S'has been places'
p775
sS'prob'
p776
F1.0
ssS'<subj> defends'
p777
(dp778
S'subj_freq'
p779
I9
sS'freq'
p780
I9
sS'type'
p781
S'subj'
p782
sS'display'
p783
S'defends'
p784
sS'prob'
p785
F1.0
ssS'knowing <dobj>'
p786
(dp787
S'subj_freq'
p788
I1
sS'freq'
p789
I1
sS'type'
p790
S'dobj'
p791
sS'display'
p792
S'knowing'
p793
sS'prob'
p794
F1.0
ssS'<subj> surrounded'
p795
(dp796
S'subj_freq'
p797
I2
sS'freq'
p798
I2
sS'type'
p799
S'subj'
p800
sS'display'
p801
S'surrounded'
p802
sS'prob'
p803
F1.0
ssS'<subj> using'
p804
(dp805
S'subj_freq'
p806
I0
sS'freq'
p807
I2
sS'type'
p808
S'subj'
p809
sS'display'
p810
S'using'
p811
sS'prob'
p812
F0.0
ssS'<subj> shining sand'
p813
(dp814
g146
S'subj'
p815
sg148
I1
sg149
I1
sg150
S'shining sand'
p816
sg152
F1.0
ssS'<subj> poses'
p817
(dp818
S'subj_freq'
p819
I9
sS'freq'
p820
I9
sS'type'
p821
S'subj'
p822
sS'display'
p823
S'poses'
p824
sS'prob'
p825
F1.0
ssS'poses <dobj>'
p826
(dp827
g819
I9
sg820
I9
sg821
S'dobj'
p828
sg823
S'poses'
p829
sg825
F1.0
ssS'allowing <dobj>'
p830
(dp831
S'type'
p832
S'dobj'
p833
sS'freq'
p834
I1
sS'subj_freq'
p835
I1
sS'display'
p836
S'allowing'
p837
sS'prob'
p838
F1.0
ssS'<subj> stay variety'
p839
(dp840
S'type'
p841
S'subj'
p842
sS'freq'
p843
I1
sS'subj_freq'
p844
I1
sS'display'
p845
S'stay variety'
p846
sS'prob'
p847
F1.0
ssS'<subj> learn development'
p848
(dp849
g642
g643
sg644
I7
sg645
I7
sg646
S'learn development'
p850
sg648
F1.0
ssS'<subj> has years'
p851
(dp852
g221
I19
sg222
I19
sg223
g224
sg225
S'has years'
p853
sg227
F1.0
ssS'<subj> fall love'
p854
(dp855
S'type'
p856
S'subj'
p857
sS'freq'
p858
I1
sS'subj_freq'
p859
I1
sS'display'
p860
S'fall love'
p861
sS'prob'
p862
F1.0
ssS'prevent <dobj>'
p863
(dp864
S'type'
p865
S'dobj'
p866
sS'freq'
p867
I21
sS'subj_freq'
p868
I21
sS'display'
p869
S'prevent'
p870
sS'prob'
p871
F1.0
ssS'<subj> converted children'
p872
(dp873
S'subj_freq'
p874
I0
sS'freq'
p875
I5
sS'type'
p876
S'subj'
p877
sS'display'
p878
S'converted children'
p879
sS'prob'
p880
F0.0
ssS'<subj> fall'
p881
(dp882
g856
g857
sg858
I1
sg859
I1
sg860
S'fall'
p883
sg862
F1.0
ssS'<subj> copied'
p884
(dp885
S'subj_freq'
p886
I21
sS'freq'
p887
I21
sS'type'
p888
S'subj'
p889
sS'display'
p890
S'copied'
p891
sS'prob'
p892
F1.0
ssS"<subj> 'm"
p893
(dp894
S'subj_freq'
p895
I77
sS'freq'
p896
I77
sS'type'
p897
S'subj'
p898
sS'display'
p899
S"'m"
p900
sS'prob'
p901
F1.0
ssS'belongs to do <dobj>'
p902
(dp903
g173
S'dobj'
p904
sg175
I7
sg176
I7
sg177
S'belongs to do'
p905
sg179
F1.0
ssS'<subj> raise showcase'
p906
(dp907
S'type'
p908
S'subj'
p909
sS'freq'
p910
I4
sS'subj_freq'
p911
I4
sS'display'
p912
S'raise showcase'
p913
sS'prob'
p914
F1.0
ssS'<subj> waste reason'
p915
(dp916
S'type'
p917
S'subj'
p918
sS'freq'
p919
I6
sS'subj_freq'
p920
I6
sS'display'
p921
S'waste reason'
p922
sS'prob'
p923
F1.0
ssS'complain <dobj>'
p924
(dp925
g311
I21
sg312
I21
sg313
S'dobj'
p926
sg315
S'complain'
p927
sg317
F1.0
ssS'booked <dobj>'
p928
(dp929
S'type'
p930
S'dobj'
p931
sS'freq'
p932
I1
sS'subj_freq'
p933
I0
sS'display'
p934
S'booked'
p935
sS'prob'
p936
F0.0
ssS'passion by <np>'
p937
(dp938
S'subj_freq'
p939
I21
sS'freq'
p940
I21
sS'type'
p941
S'np'
p942
sS'display'
p943
S'passion by'
p944
sS'prob'
p945
F1.0
ssS'take <dobj>'
p946
(dp947
S'type'
p948
S'dobj'
p949
sS'freq'
p950
I13
sS'subj_freq'
p951
I13
sS'display'
p952
S'take'
p953
sS'prob'
p954
F1.0
ssS'<subj> many'
p955
(dp956
S'subj_freq'
p957
I1
sS'freq'
p958
I1
sS'type'
p959
S'subj'
p960
sS'display'
p961
S'many'
p962
sS'prob'
p963
F1.0
ssS"<subj> 're part"
p964
(dp965
g106
I21
sg107
I21
sg108
g486
sg110
S"'re part"
p966
sg112
F1.0
ssS'<subj> done environment'
p967
(dp968
S'subj_freq'
p969
I3
sS'freq'
p970
I3
sS'type'
p971
S'subj'
p972
sS'display'
p973
S'done environment'
p974
sS'prob'
p975
F1.0
ssS'is made up <np>'
p976
(dp977
g12
I1
sg13
I1
sg14
S'np'
p978
sg16
S'is made up'
p979
sg18
F1.0
ssS'<subj> have date'
p980
(dp981
S'subj_freq'
p982
I1
sS'freq'
p983
I1
sS'type'
p984
S'subj'
p985
sS'display'
p986
S'have date'
p987
sS'prob'
p988
F1.0
ssS'walking <dobj>'
p989
(dp990
S'type'
p991
S'dobj'
p992
sS'freq'
p993
I4
sS'subj_freq'
p994
I4
sS'display'
p995
S'walking'
p996
sS'prob'
p997
F1.0
ssS'<subj> fell image'
p998
(dp999
g709
g710
sg711
I1
sg712
I1
sg713
S'fell image'
p1000
sg715
F1.0
ssS'to develop <dobj>'
p1001
(dp1002
g39
I9
sg40
I9
sg41
g42
sg43
S'to develop'
p1003
sg45
F1.0
ssS'<subj> cheat sister'
p1004
(dp1005
g57
I9
sg58
I9
sg59
S'subj'
p1006
sg61
S'cheat sister'
p1007
sg63
F1.0
ssS'holidays in <np>'
p1008
(dp1009
g797
I2
sg798
I2
sg799
S'np'
p1010
sg801
S'holidays in'
p1011
sg803
F1.0
ssS'going to held <dobj>'
p1012
(dp1013
S'type'
p1014
S'dobj'
p1015
sS'freq'
p1016
I1
sS'subj_freq'
p1017
I1
sS'display'
p1018
S'going to held'
p1019
sS'prob'
p1020
F1.0
ssS'found <dobj>'
p1021
(dp1022
S'subj_freq'
p1023
I7
sS'freq'
p1024
I7
sS'type'
p1025
S'dobj'
p1026
sS'display'
p1027
S'found'
p1028
sS'prob'
p1029
F1.0
ssS'<subj> need'
p1030
(dp1031
g417
g418
sg419
I95
sg420
I95
sg421
S'need'
p1032
sg423
F1.0
ssS'many <dobj>'
p1033
(dp1034
g957
I1
sg958
I1
sg959
S'dobj'
p1035
sg961
S'many'
p1036
sg963
F1.0
ssS'<subj> going to held'
p1037
(dp1038
g1014
S'subj'
p1039
sg1016
I1
sg1017
I1
sg1018
S'going to held'
p1040
sg1020
F1.0
ssS'<subj> waste'
p1041
(dp1042
g917
g918
sg919
I6
sg920
I6
sg921
S'waste'
p1043
sg923
F1.0
ssS'lives from <np>'
p1044
(dp1045
S'type'
p1046
S'np'
p1047
sS'freq'
p1048
I1
sS'subj_freq'
p1049
I1
sS'display'
p1050
S'lives from'
p1051
sS'prob'
p1052
F1.0
ssS'to spend <dobj>'
p1053
(dp1054
g797
I2
sg798
I3
sg799
S'dobj'
p1055
sg801
S'to spend'
p1056
sg803
F0.6666666666666666
ssS'<subj> do things'
p1057
(dp1058
S'type'
p1059
S'subj'
p1060
sS'freq'
p1061
I21
sS'subj_freq'
p1062
I21
sS'display'
p1063
S'do things'
p1064
sS'prob'
p1065
F1.0
ssS'<subj> made offerings'
p1066
(dp1067
S'type'
p1068
S'subj'
p1069
sS'freq'
p1070
I1
sS'subj_freq'
p1071
I1
sS'display'
p1072
S'made offerings'
p1073
sS'prob'
p1074
F1.0
ssS'is located in <np>'
p1075
(dp1076
g70
I0
sg71
I3
sg72
S'np'
p1077
sg74
S'is located in'
p1078
sg76
F0.0
ssS'<subj> seeing'
p1079
(dp1080
S'subj_freq'
p1081
I7
sS'freq'
p1082
I7
sS'type'
p1083
S'subj'
p1084
sS'display'
p1085
S'seeing'
p1086
sS'prob'
p1087
F1.0
ssS'<subj> been attributed'
p1088
(dp1089
g969
I3
sg970
I3
sg971
g972
sg973
S'been attributed'
p1090
sg975
F1.0
ssS'<subj> led'
p1091
(dp1092
g779
I9
sg780
I9
sg781
g782
sg783
S'led'
p1093
sg785
F1.0
ssS'<subj> do'
p1094
(dp1095
S'type'
p1096
S'subj'
p1097
sS'freq'
p1098
I253
sS'subj_freq'
p1099
I253
sS'display'
p1100
S'do'
p1101
sS'prob'
p1102
F1.0
ssS'<subj> poses absence'
p1103
(dp1104
g819
I9
sg820
I9
sg821
g822
sg823
S'poses absence'
p1105
sg825
F1.0
ssS'<subj> attend'
p1106
(dp1107
S'type'
p1108
S'subj'
p1109
sS'freq'
p1110
I2
sS'subj_freq'
p1111
I2
sS'display'
p1112
S'attend'
p1113
sS'prob'
p1114
F1.0
ssS'<subj> used Daniel'
p1115
(dp1116
g1023
I7
sg1024
I7
sg1025
S'subj'
p1117
sg1027
S'used Daniel'
p1118
sg1029
F1.0
ssS'lost <dobj>'
p1119
(dp1120
S'subj_freq'
p1121
I55
sS'freq'
p1122
I55
sS'type'
p1123
S'dobj'
p1124
sS'display'
p1125
S'lost'
p1126
sS'prob'
p1127
F1.0
ssS'celebrating <dobj>'
p1128
(dp1129
S'type'
p1130
S'dobj'
p1131
sS'freq'
p1132
I2
sS'subj_freq'
p1133
I2
sS'display'
p1134
S'celebrating'
p1135
sS'prob'
p1136
F1.0
ssS'<subj> become'
p1137
(dp1138
g88
S'subj'
p1139
sg90
I65
sg91
I65
sg92
S'become'
p1140
sg94
F1.0
ssS'to escape <dobj>'
p1141
(dp1142
g284
I1
sg285
I1
sg286
g287
sg288
S'to escape'
p1143
sg290
F1.0
ssS'<subj> meets land'
p1144
(dp1145
S'type'
p1146
S'subj'
p1147
sS'freq'
p1148
I1
sS'subj_freq'
p1149
I1
sS'display'
p1150
S'meets land'
p1151
sS'prob'
p1152
F1.0
ssS'<subj> send nature'
p1153
(dp1154
S'subj_freq'
p1155
I1
sS'freq'
p1156
I1
sS'type'
p1157
S'subj'
p1158
sS'display'
p1159
S'send nature'
p1160
sS'prob'
p1161
F1.0
ssS'<subj> threw'
p1162
(dp1163
S'type'
p1164
S'subj'
p1165
sS'freq'
p1166
I7
sS'subj_freq'
p1167
I7
sS'display'
p1168
S'threw'
p1169
sS'prob'
p1170
F1.0
ssS'<subj> took'
p1171
(dp1172
S'type'
p1173
S'subj'
p1174
sS'freq'
p1175
I1
sS'subj_freq'
p1176
I0
sS'display'
p1177
S'took'
p1178
sS'prob'
p1179
F0.0
ssS'<subj> helps paralysis'
p1180
(dp1181
g533
I9
sg534
I9
sg535
g536
sg537
S'helps paralysis'
p1182
sg539
F1.0
ssS'located <dobj>'
p1183
(dp1184
g70
I4
sg71
I7
sg72
S'dobj'
p1185
sg74
S'located'
p1186
sg76
F0.5714285714285714
ssS'to misled <dobj>'
p1187
(dp1188
S'type'
p1189
S'dobj'
p1190
sS'freq'
p1191
I21
sS'subj_freq'
p1192
I21
sS'display'
p1193
S'to misled'
p1194
sS'prob'
p1195
F1.0
ssS'dwellers of <np>'
p1196
(dp1197
S'type'
p1198
S'np'
p1199
sS'freq'
p1200
I1
sS'subj_freq'
p1201
I1
sS'display'
p1202
S'dwellers of'
p1203
sS'prob'
p1204
F1.0
ssS'<subj> gearing'
p1205
(dp1206
S'type'
p1207
S'subj'
p1208
sS'freq'
p1209
I1
sS'subj_freq'
p1210
I0
sS'display'
p1211
S'gearing'
p1212
sS'prob'
p1213
F0.0
ssS'belongs <dobj>'
p1214
(dp1215
g173
g904
sg175
I7
sg176
I7
sg177
S'belongs'
p1216
sg179
F1.0
ssS'<subj> watch'
p1217
(dp1218
S'type'
p1219
S'subj'
p1220
sS'freq'
p1221
I2
sS'subj_freq'
p1222
I2
sS'display'
p1223
S'watch'
p1224
sS'prob'
p1225
F1.0
ssS'<subj> be interpreted'
p1226
(dp1227
S'type'
p1228
S'subj'
p1229
sS'freq'
p1230
I7
sS'subj_freq'
p1231
I7
sS'display'
p1232
S'be interpreted'
p1233
sS'prob'
p1234
F1.0
ssS'excited <dobj>'
p1235
(dp1236
g275
I21
sg276
I21
sg277
S'dobj'
p1237
sg279
S'excited'
p1238
sg281
F1.0
ssS'<subj> converted'
p1239
(dp1240
g874
I4
sg875
I9
sg876
g877
sg878
S'converted'
p1241
sg880
F0.4444444444444444
ssS'analyze <dobj>'
p1242
(dp1243
g582
g583
sg584
I19
sg585
I19
sg586
S'analyze'
p1244
sg588
F1.0
ssS'<subj> need to make'
p1245
(dp1246
g582
S'subj'
p1247
sg584
I19
sg585
I19
sg586
S'need to make'
p1248
sg588
F1.0
ssS'<subj> are presented'
p1249
(dp1250
g722
S'subj'
p1251
sg724
I9
sg725
I9
sg726
S'are presented'
p1252
sg728
F1.0
ssS'takes <dobj>'
p1253
(dp1254
S'subj_freq'
p1255
I0
sS'freq'
p1256
I2
sS'type'
p1257
S'dobj'
p1258
sS'display'
p1259
S'takes'
p1260
sS'prob'
p1261
F0.0
ssS'<subj> called'
p1262
(dp1263
S'subj_freq'
p1264
I3
sS'freq'
p1265
I3
sS'type'
p1266
S'subj'
p1267
sS'display'
p1268
S'called'
p1269
sS'prob'
p1270
F1.0
ssS'<subj> buy'
p1271
(dp1272
g48
S'subj'
p1273
sg50
I7
sg51
I7
sg52
S'buy'
p1274
sg54
F1.0
ssS'<subj> started'
p1275
(dp1276
S'type'
p1277
S'subj'
p1278
sS'freq'
p1279
I2
sS'subj_freq'
p1280
I0
sS'display'
p1281
S'started'
p1282
sS'prob'
p1283
F0.0
ssS'<subj> watching'
p1284
(dp1285
g106
I29
sg107
I29
sg108
g486
sg110
S'watching'
p1286
sg112
F1.0
ssV<subj> forces
p1287
(dp1288
S'type'
p1289
S'subj'
p1290
sS'freq'
p1291
I2
sS'subj_freq'
p1292
I2
sS'display'
p1293
Vforces
p1294
sS'prob'
p1295
F1.0
ssS'known <dobj>'
p1296
(dp1297
S'subj_freq'
p1298
I6
sS'freq'
p1299
I7
sS'type'
p1300
S'dobj'
p1301
sS'display'
p1302
S'known'
p1303
sS'prob'
p1304
F0.8571428571428571
ssS'solving <dobj>'
p1305
(dp1306
g546
I21
sg547
I21
sg548
S'dobj'
p1307
sg550
S'solving'
p1308
sg552
F1.0
ssS'work by <np>'
p1309
(dp1310
S'type'
p1311
S'np'
p1312
sS'freq'
p1313
I1
sS'subj_freq'
p1314
I0
sS'display'
p1315
S'work by'
p1316
sS'prob'
p1317
F0.0
ssS'<subj> saves'
p1318
(dp1319
S'subj_freq'
p1320
I7
sS'freq'
p1321
I7
sS'type'
p1322
S'subj'
p1323
sS'display'
p1324
S'saves'
p1325
sS'prob'
p1326
F1.0
ssS'to explore <dobj>'
p1327
(dp1328
g399
I1
sg400
I1
sg401
g402
sg403
S'to explore'
p1329
sg405
F1.0
ssS'amazed <dobj>'
p1330
(dp1331
g324
S'dobj'
p1332
sg326
I2
sg327
I2
sg328
S'amazed'
p1333
sg330
F1.0
ssS'spend <dobj>'
p1334
(dp1335
g797
I4
sg798
I5
sg799
g1055
sg801
S'spend'
p1336
sg803
F0.8
ssS'to bathing <dobj>'
p1337
(dp1338
S'subj_freq'
p1339
I0
sS'freq'
p1340
I1
sS'type'
p1341
S'dobj'
p1342
sS'display'
p1343
S'to bathing'
p1344
sS'prob'
p1345
F0.0
ssS'<subj> have claim'
p1346
(dp1347
g1189
S'subj'
p1348
sg1191
I21
sg1192
I21
sg1193
S'have claim'
p1349
sg1195
F1.0
ssS'<subj> exhibits'
p1350
(dp1351
S'subj_freq'
p1352
I1
sS'freq'
p1353
I1
sS'type'
p1354
S'subj'
p1355
sS'display'
p1356
S'exhibits'
p1357
sS'prob'
p1358
F1.0
ssS'smitten <dobj>'
p1359
(dp1360
S'type'
p1361
S'dobj'
p1362
sS'freq'
p1363
I1
sS'subj_freq'
p1364
I1
sS'display'
p1365
S'smitten'
p1366
sS'prob'
p1367
F1.0
ssS'according to required <dobj>'
p1368
(dp1369
g97
I7
sg98
I7
sg99
g447
sg101
S'according to required'
p1370
sg103
F1.0
ssS'<subj> bring joy'
p1371
(dp1372
S'subj_freq'
p1373
I1
sS'freq'
p1374
I1
sS'type'
p1375
S'subj'
p1376
sS'display'
p1377
S'bring joy'
p1378
sS'prob'
p1379
F1.0
ssS'send <dobj>'
p1380
(dp1381
g1155
I1
sg1156
I1
sg1157
S'dobj'
p1382
sg1159
S'send'
p1383
sg1161
F1.0
ssS'get <dobj>'
p1384
(dp1385
g533
I27
sg534
I31
sg535
S'dobj'
p1386
sg537
S'get'
p1387
sg539
F0.8709677419354839
ssS'live <dobj>'
p1388
(dp1389
g173
g904
sg175
I16
sg176
I16
sg177
S'live'
p1390
sg179
F1.0
ssS'says <dobj>'
p1391
(dp1392
g57
I9
sg58
I9
sg59
g60
sg61
S'says'
p1393
sg63
F1.0
ssS'stand <dobj>'
p1394
(dp1395
g342
g343
sg344
I22
sg345
I22
sg346
S'stand'
p1396
sg348
F1.0
ssS'<subj> sharing'
p1397
(dp1398
g390
S'subj'
p1399
sg392
I10
sg393
I10
sg394
S'sharing'
p1400
sg396
F1.0
ssS'capture <dobj>'
p1401
(dp1402
S'subj_freq'
p1403
I4
sS'freq'
p1404
I4
sS'type'
p1405
S'dobj'
p1406
sS'display'
p1407
S'capture'
p1408
sS'prob'
p1409
F1.0
ssS'<subj> hate'
p1410
(dp1411
g128
g129
sg130
I9
sg131
I9
sg132
S'hate'
p1412
sg134
F1.0
ssS'fail to realize <dobj>'
p1413
(dp1414
S'subj_freq'
p1415
I27
sS'freq'
p1416
I27
sS'type'
p1417
S'dobj'
p1418
sS'display'
p1419
S'fail to realize'
p1420
sS'prob'
p1421
F1.0
ssS"<subj> 's Carnival"
p1422
(dp1423
S'subj_freq'
p1424
I1
sS'freq'
p1425
I1
sS'type'
p1426
S'subj'
p1427
sS'display'
p1428
S"'s Carnival"
p1429
sS'prob'
p1430
F1.0
ssS'originated <dobj>'
p1431
(dp1432
g3
S'dobj'
p1433
sg5
I1
sg6
I1
sg7
S'originated'
p1434
sg9
F1.0
ssS'making war on <np>'
p1435
(dp1436
S'type'
p1437
S'np'
p1438
sS'freq'
p1439
I21
sS'subj_freq'
p1440
I21
sS'display'
p1441
S'making war on'
p1442
sS'prob'
p1443
F1.0
ssS'friend of <np>'
p1444
(dp1445
g654
S'np'
p1446
sg656
I2
sg657
I2
sg658
S'friend of'
p1447
sg660
F1.0
ssS'getting <dobj>'
p1448
(dp1449
S'type'
p1450
S'dobj'
p1451
sS'freq'
p1452
I8
sS'subj_freq'
p1453
I8
sS'display'
p1454
S'getting'
p1455
sS'prob'
p1456
F1.0
ssS'to taking <dobj>'
p1457
(dp1458
S'subj_freq'
p1459
I2
sS'freq'
p1460
I2
sS'type'
p1461
S'dobj'
p1462
sS'display'
p1463
S'to taking'
p1464
sS'prob'
p1465
F1.0
ssS'to invite <dobj>'
p1466
(dp1467
S'type'
p1468
S'dobj'
p1469
sS'freq'
p1470
I1
sS'subj_freq'
p1471
I1
sS'display'
p1472
S'to invite'
p1473
sS'prob'
p1474
F1.0
ssS'<subj> helps understanding'
p1475
(dp1476
S'type'
p1477
S'subj'
p1478
sS'freq'
p1479
I2
sS'subj_freq'
p1480
I2
sS'display'
p1481
S'helps understanding'
p1482
sS'prob'
p1483
F1.0
ssS'look <dobj>'
p1484
(dp1485
S'subj_freq'
p1486
I4
sS'freq'
p1487
I4
sS'type'
p1488
S'dobj'
p1489
sS'display'
p1490
S'look'
p1491
sS'prob'
p1492
F1.0
ssS'<subj> lies middle'
p1493
(dp1494
g1081
I7
sg1082
I7
sg1083
g1084
sg1085
S'lies middle'
p1495
sg1087
F1.0
ssS"<subj> 're triumph"
p1496
(dp1497
S'subj_freq'
p1498
I7
sS'freq'
p1499
I7
sS'type'
p1500
S'subj'
p1501
sS'display'
p1502
S"'re triumph"
p1503
sS'prob'
p1504
F1.0
ssS'done <dobj>'
p1505
(dp1506
g1498
I11
sg1499
I11
sg1500
S'dobj'
p1507
sg1502
S'done'
p1508
sg1504
F1.0
ssS'was inaugurated by <np>'
p1509
(dp1510
S'type'
p1511
S'np'
p1512
sS'freq'
p1513
I2
sS'subj_freq'
p1514
I0
sS'display'
p1515
S'was inaugurated by'
p1516
sS'prob'
p1517
F0.0
ssS'<subj> claim increase'
p1518
(dp1519
S'type'
p1520
S'subj'
p1521
sS'freq'
p1522
I7
sS'subj_freq'
p1523
I7
sS'display'
p1524
S'claim increase'
p1525
sS'prob'
p1526
F1.0
ssS'<subj> changed'
p1527
(dp1528
S'subj_freq'
p1529
I7
sS'freq'
p1530
I7
sS'type'
p1531
S'subj'
p1532
sS'display'
p1533
S'changed'
p1534
sS'prob'
p1535
F1.0
ssS'enter <dobj>'
p1536
(dp1537
g477
S'dobj'
p1538
sg479
I4
sg480
I4
sg481
S'enter'
p1539
sg483
F1.0
ssS'<subj> was happened'
p1540
(dp1541
g57
I9
sg58
I9
sg59
g1006
sg61
S'was happened'
p1542
sg63
F1.0
ssS'does <dobj>'
p1543
(dp1544
g564
I47
sg565
I47
sg566
S'dobj'
p1545
sg568
S'does'
p1546
sg570
F1.0
ssS'<subj> making war'
p1547
(dp1548
g1437
S'subj'
p1549
sg1439
I21
sg1440
I21
sg1441
S'making war'
p1550
sg1443
F1.0
ssS'<subj> become incomprehensible'
p1551
(dp1552
g88
g1139
sg90
I42
sg91
I42
sg92
S'become incomprehensible'
p1553
sg94
F1.0
ssS'<subj> helps'
p1554
(dp1555
g533
I11
sg534
I11
sg535
g536
sg537
S'helps'
p1556
sg539
F1.0
ssS'being <dobj>'
p1557
(dp1558
S'type'
p1559
S'dobj'
p1560
sS'freq'
p1561
I21
sS'subj_freq'
p1562
I21
sS'display'
p1563
S'being'
p1564
sS'prob'
p1565
F1.0
ssS'help <dobj>'
p1566
(dp1567
g731
I7
sg732
I7
sg733
S'dobj'
p1568
sg735
S'help'
p1569
sg737
F1.0
ssS'rise in <np>'
p1570
(dp1571
g1081
I7
sg1082
I7
sg1083
S'np'
p1572
sg1085
S'rise in'
p1573
sg1087
F1.0
ssS"<subj> 's initiative"
p1574
(dp1575
S'type'
p1576
S'subj'
p1577
sS'freq'
p1578
I1
sS'subj_freq'
p1579
I1
sS'display'
p1580
S"'s initiative"
p1581
sS'prob'
p1582
F1.0
ssS'<subj> fight terrorism'
p1583
(dp1584
g464
S'subj'
p1585
sg466
I7
sg467
I7
sg468
S'fight terrorism'
p1586
sg470
F1.0
ssS'involves <dobj>'
p1587
(dp1588
S'subj_freq'
p1589
I3
sS'freq'
p1590
I3
sS'type'
p1591
S'dobj'
p1592
sS'display'
p1593
S'involves'
p1594
sS'prob'
p1595
F1.0
ssS'<subj> made conscience'
p1596
(dp1597
g939
I21
sg940
I21
sg941
S'subj'
p1598
sg943
S'made conscience'
p1599
sg945
F1.0
ssS'produces <dobj>'
p1600
(dp1601
S'subj_freq'
p1602
I7
sS'freq'
p1603
I7
sS'type'
p1604
S'dobj'
p1605
sS'display'
p1606
S'produces'
p1607
sS'prob'
p1608
F1.0
ssS'want to hold <dobj>'
p1609
(dp1610
g164
I7
sg165
I7
sg166
S'dobj'
p1611
sg168
S'want to hold'
p1612
sg170
F1.0
ssS'conserve <dobj>'
p1613
(dp1614
S'type'
p1615
S'dobj'
p1616
sS'freq'
p1617
I4
sS'subj_freq'
p1618
I4
sS'display'
p1619
S'conserve'
p1620
sS'prob'
p1621
F1.0
ssS'wait <dobj>'
p1622
(dp1623
S'type'
p1624
S'dobj'
p1625
sS'freq'
p1626
I7
sS'subj_freq'
p1627
I4
sS'display'
p1628
S'wait'
p1629
sS'prob'
p1630
F0.5714285714285714
ssVforces <dobj>
p1631
(dp1632
g1289
S'dobj'
p1633
sg1291
I2
sg1292
I2
sg1293
Vforces
p1634
sg1295
F1.0
ssS'<subj> witnessed fact'
p1635
(dp1636
g57
I9
sg58
I9
sg59
g1006
sg61
S'witnessed fact'
p1637
sg63
F1.0
ssS'come <dobj>'
p1638
(dp1639
g57
I15
sg58
I15
sg59
g60
sg61
S'come'
p1640
sg63
F1.0
ssS'<subj> appears'
p1641
(dp1642
g895
I22
sg896
I22
sg897
g898
sg899
S'appears'
p1643
sg901
F1.0
ssS'<subj> was hidden'
p1644
(dp1645
g991
S'subj'
p1646
sg993
I4
sg994
I4
sg995
S'was hidden'
p1647
sg997
F1.0
ssS'<subj> want evolution'
p1648
(dp1649
S'subj_freq'
p1650
I23
sS'freq'
p1651
I23
sS'type'
p1652
S'subj'
p1653
sS'display'
p1654
S'want evolution'
p1655
sS'prob'
p1656
F1.0
ssS'<subj> received award'
p1657
(dp1658
S'subj_freq'
p1659
I2
sS'freq'
p1660
I2
sS'type'
p1661
S'subj'
p1662
sS'display'
p1663
S'received award'
p1664
sS'prob'
p1665
F1.0
ssS'<subj> left'
p1666
(dp1667
S'type'
p1668
S'subj'
p1669
sS'freq'
p1670
I11
sS'subj_freq'
p1671
I11
sS'display'
p1672
S'left'
p1673
sS'prob'
p1674
F1.0
ssS'<subj> offer communities'
p1675
(dp1676
S'subj_freq'
p1677
I9
sS'freq'
p1678
I9
sS'type'
p1679
S'subj'
p1680
sS'display'
p1681
S'offer communities'
p1682
sS'prob'
p1683
F1.0
ssS'<subj> have women'
p1684
(dp1685
g137
I4
sg138
I4
sg139
g140
sg141
S'have women'
p1686
sg143
F1.0
ssS'prepared <dobj>'
p1687
(dp1688
S'type'
p1689
S'dobj'
p1690
sS'freq'
p1691
I1
sS'subj_freq'
p1692
I1
sS'display'
p1693
S'prepared'
p1694
sS'prob'
p1695
F1.0
ssS'<subj> uses'
p1696
(dp1697
S'subj_freq'
p1698
I17
sS'freq'
p1699
I17
sS'type'
p1700
S'subj'
p1701
sS'display'
p1702
S'uses'
p1703
sS'prob'
p1704
F1.0
ssS'<subj> fight'
p1705
(dp1706
g464
g1585
sg466
I7
sg467
I7
sg468
S'fight'
p1707
sg470
F1.0
ssS'wanted <dobj>'
p1708
(dp1709
S'subj_freq'
p1710
I7
sS'freq'
p1711
I7
sS'type'
p1712
S'dobj'
p1713
sS'display'
p1714
S'wanted'
p1715
sS'prob'
p1716
F1.0
ssS'comes <dobj>'
p1717
(dp1718
S'subj_freq'
p1719
I1
sS'freq'
p1720
I1
sS'type'
p1721
S'dobj'
p1722
sS'display'
p1723
S'comes'
p1724
sS'prob'
p1725
F1.0
ssS'<subj> reject'
p1726
(dp1727
g1189
g1348
sg1191
I21
sg1192
I21
sg1193
S'reject'
p1728
sg1195
F1.0
ssS'<subj> been maintained'
p1729
(dp1730
S'subj_freq'
p1731
I0
sS'freq'
p1732
I4
sS'type'
p1733
S'subj'
p1734
sS'display'
p1735
S'been maintained'
p1736
sS'prob'
p1737
F0.0
ssS'to hit <dobj>'
p1738
(dp1739
S'type'
p1740
S'dobj'
p1741
sS'freq'
p1742
I21
sS'subj_freq'
p1743
I21
sS'display'
p1744
S'to hit'
p1745
sS'prob'
p1746
F1.0
ssS'defends <dobj>'
p1747
(dp1748
g779
I9
sg780
I9
sg781
S'dobj'
p1749
sg783
S'defends'
p1750
sg785
F1.0
ssS'<subj> wants'
p1751
(dp1752
S'type'
p1753
S'subj'
p1754
sS'freq'
p1755
I7
sS'subj_freq'
p1756
I7
sS'display'
p1757
S'wants'
p1758
sS'prob'
p1759
F1.0
ssS'<subj> saw Sir'
p1760
(dp1761
g749
g750
sg751
I7
sg752
I7
sg753
S'saw Sir'
p1762
sg755
F1.0
ssS'<subj> have be touched'
p1763
(dp1764
g1529
I7
sg1530
I7
sg1531
g1532
sg1533
S'have be touched'
p1765
sg1535
F1.0
ssS'<subj> relax'
p1766
(dp1767
S'subj_freq'
p1768
I2
sS'freq'
p1769
I2
sS'type'
p1770
S'subj'
p1771
sS'display'
p1772
S'relax'
p1773
sS'prob'
p1774
F1.0
ssS'<subj> visit'
p1775
(dp1776
S'subj_freq'
p1777
I9
sS'freq'
p1778
I9
sS'type'
p1779
S'subj'
p1780
sS'display'
p1781
S'visit'
p1782
sS'prob'
p1783
F1.0
ssS'<subj> win gift'
p1784
(dp1785
S'subj_freq'
p1786
I2
sS'freq'
p1787
I2
sS'type'
p1788
S'subj'
p1789
sS'display'
p1790
S'win gift'
p1791
sS'prob'
p1792
F1.0
ssS'<subj> prepared'
p1793
(dp1794
g1689
S'subj'
p1795
sg1691
I1
sg1692
I1
sg1693
S'prepared'
p1796
sg1695
F1.0
ssS'meets <dobj>'
p1797
(dp1798
S'subj_freq'
p1799
I5
sS'freq'
p1800
I5
sS'type'
p1801
S'dobj'
p1802
sS'display'
p1803
S'meets'
p1804
sS'prob'
p1805
F1.0
ssS'site of <np>'
p1806
(dp1807
S'subj_freq'
p1808
I0
sS'freq'
p1809
I1
sS'type'
p1810
S'np'
p1811
sS'display'
p1812
S'site of'
p1813
sS'prob'
p1814
F0.0
ssS'tomorrow for <np>'
p1815
(dp1816
g1777
I5
sg1778
I5
sg1779
S'np'
p1817
sg1781
S'tomorrow for'
p1818
sg1783
F1.0
ssS'seems to evolved <dobj>'
p1819
(dp1820
g417
S'dobj'
p1821
sg419
I21
sg420
I21
sg421
S'seems to evolved'
p1822
sg423
F1.0
ssS'<subj> is delighted'
p1823
(dp1824
S'type'
p1825
S'subj'
p1826
sS'freq'
p1827
I1
sS'subj_freq'
p1828
I1
sS'display'
p1829
S'is delighted'
p1830
sS'prob'
p1831
F1.0
ssS'thinks <dobj>'
p1832
(dp1833
g57
I9
sg58
I9
sg59
g60
sg61
S'thinks'
p1834
sg63
F1.0
ssS'<subj> fail to realize'
p1835
(dp1836
g1415
I27
sg1416
I27
sg1417
S'subj'
p1837
sg1419
S'fail to realize'
p1838
sg1421
F1.0
ssS'<subj> bothered'
p1839
(dp1840
g917
g918
sg919
I6
sg920
I6
sg921
S'bothered'
p1841
sg923
F1.0
ssS'<subj> thought'
p1842
(dp1843
g1059
g1060
sg1061
I46
sg1062
I46
sg1063
S'thought'
p1844
sg1065
F1.0
ssS'develop <dobj>'
p1845
(dp1846
g39
I9
sg40
I9
sg41
g42
sg43
S'develop'
p1847
sg45
F1.0
ssS'<subj> devoted politicians'
p1848
(dp1849
g612
I9
sg613
I9
sg614
g615
sg616
S'devoted politicians'
p1850
sg618
F1.0
ssS'<subj> did'
p1851
(dp1852
g667
I16
sg668
I16
sg669
g670
sg671
S'did'
p1853
sg673
F1.0
ssS'<subj> believe debate'
p1854
(dp1855
g546
I21
sg547
I21
sg548
g549
sg550
S'believe debate'
p1856
sg552
F1.0
ssS'packed <dobj>'
p1857
(dp1858
g694
g695
sg696
I2
sg697
I2
sg698
S'packed'
p1859
sg700
F1.0
ssV<subj> 're grade
p1860
(dp1861
g1289
g1290
sg1291
I2
sg1292
I2
sg1293
V're grade
p1862
sg1295
F1.0
ssS'<subj> remind'
p1863
(dp1864
S'type'
p1865
S'subj'
p1866
sS'freq'
p1867
I4
sS'subj_freq'
p1868
I4
sS'display'
p1869
S'remind'
p1870
sS'prob'
p1871
F1.0
ssS'<subj> have pain'
p1872
(dp1873
S'subj_freq'
p1874
I7
sS'freq'
p1875
I7
sS'type'
p1876
S'subj'
p1877
sS'display'
p1878
S'have pain'
p1879
sS'prob'
p1880
F1.0
ssS'participating <dobj>'
p1881
(dp1882
S'subj_freq'
p1883
I2
sS'freq'
p1884
I2
sS'type'
p1885
S'dobj'
p1886
sS'display'
p1887
S'participating'
p1888
sS'prob'
p1889
F1.0
ssS'<subj> conserves'
p1890
(dp1891
S'type'
p1892
S'subj'
p1893
sS'freq'
p1894
I4
sS'subj_freq'
p1895
I4
sS'display'
p1896
S'conserves'
p1897
sS'prob'
p1898
F1.0
ssS'<subj> makes'
p1899
(dp1900
S'subj_freq'
p1901
I4
sS'freq'
p1902
I4
sS'type'
p1903
S'subj'
p1904
sS'display'
p1905
S'makes'
p1906
sS'prob'
p1907
F1.0
ssS'Year in <np>'
p1908
(dp1909
g520
S'np'
p1910
sg522
I1
sg523
I1
sg524
S'Year in'
p1911
sg526
F1.0
ssS'open <dobj>'
p1912
(dp1913
S'type'
p1914
S'dobj'
p1915
sS'freq'
p1916
I4
sS'subj_freq'
p1917
I4
sS'display'
p1918
S'open'
p1919
sS'prob'
p1920
F1.0
ssS'<subj> gave'
p1921
(dp1922
g1081
I7
sg1082
I7
sg1083
g1084
sg1085
S'gave'
p1923
sg1087
F1.0
ssS'<subj> doing ones'
p1924
(dp1925
g106
I21
sg107
I21
sg108
g486
sg110
S'doing ones'
p1926
sg112
F1.0
ssS'<subj> beginning'
p1927
(dp1928
g930
S'subj'
p1929
sg932
I3
sg933
I2
sg934
S'beginning'
p1930
sg936
F0.6666666666666666
ssS'<subj> spread'
p1931
(dp1932
g248
I1
sg249
I1
sg250
S'subj'
p1933
sg252
S'spread'
p1934
sg254
F1.0
ssS'<subj> preserve'
p1935
(dp1936
S'type'
p1937
S'subj'
p1938
sS'freq'
p1939
I21
sS'subj_freq'
p1940
I21
sS'display'
p1941
S'preserve'
p1942
sS'prob'
p1943
F1.0
ssS'<subj> eliminated'
p1944
(dp1945
g106
I21
sg107
I21
sg108
g486
sg110
S'eliminated'
p1946
sg112
F1.0
ssS'<subj> be shown'
p1947
(dp1948
S'type'
p1949
S'subj'
p1950
sS'freq'
p1951
I21
sS'subj_freq'
p1952
I21
sS'display'
p1953
S'be shown'
p1954
sS'prob'
p1955
F1.0
ssS'do <dobj>'
p1956
(dp1957
g1096
S'dobj'
p1958
sg1098
I253
sg1099
I253
sg1100
S'do'
p1959
sg1102
F1.0
ssS'<subj> created'
p1960
(dp1961
g511
g512
sg513
I5
sg514
I1
sg515
S'created'
p1962
sg517
F0.2
ssS'keep <dobj>'
p1963
(dp1964
S'type'
p1965
S'dobj'
p1966
sS'freq'
p1967
I10
sS'subj_freq'
p1968
I10
sS'display'
p1969
S'keep'
p1970
sS'prob'
p1971
F1.0
ssS'become <dobj>'
p1972
(dp1973
g88
S'dobj'
p1974
sg90
I65
sg91
I65
sg92
S'become'
p1975
sg94
F1.0
ssS'providing <dobj>'
p1976
(dp1977
g342
g343
sg344
I21
sg345
I21
sg346
S'providing'
p1978
sg348
F1.0
ssS'<subj> having collections'
p1979
(dp1980
S'type'
p1981
S'subj'
p1982
sS'freq'
p1983
I1
sS'subj_freq'
p1984
I1
sS'display'
p1985
S'having collections'
p1986
sS'prob'
p1987
F1.0
ssS'<subj> faces'
p1988
(dp1989
S'subj_freq'
p1990
I2
sS'freq'
p1991
I2
sS'type'
p1992
S'subj'
p1993
sS'display'
p1994
S'faces'
p1995
sS'prob'
p1996
F1.0
ssS'<subj> enjoy beauty'
p1997
(dp1998
S'subj_freq'
p1999
I2
sS'freq'
p2000
I2
sS'type'
p2001
S'subj'
p2002
sS'display'
p2003
S'enjoy beauty'
p2004
sS'prob'
p2005
F1.0
ssS'<subj> lie'
p2006
(dp2007
g1965
S'subj'
p2008
sg1967
I9
sg1968
I9
sg1969
S'lie'
p2009
sg1971
F1.0
ssS'lies <dobj>'
p2010
(dp2011
g612
I17
sg613
I17
sg614
S'dobj'
p2012
sg616
S'lies'
p2013
sg618
F1.0
ssS'<subj> surrounded hills'
p2014
(dp2015
g797
I2
sg798
I2
sg799
g800
sg801
S'surrounded hills'
p2016
sg803
F1.0
ssS'<subj> offer'
p2017
(dp2018
g1677
I10
sg1678
I10
sg1679
g1680
sg1681
S'offer'
p2019
sg1683
F1.0
ssS'surrounded <dobj>'
p2020
(dp2021
g797
I2
sg798
I2
sg799
g1055
sg801
S'surrounded'
p2022
sg803
F1.0
ssS'answer with <np>'
p2023
(dp2024
S'subj_freq'
p2025
I0
sS'freq'
p2026
I1
sS'type'
p2027
S'np'
p2028
sS'display'
p2029
S'answer with'
p2030
sS'prob'
p2031
F0.0
ssS'sounds control over <np>'
p2032
(dp2033
g624
S'np'
p2034
sg626
I10
sg627
I10
sg628
S'sounds control over'
p2035
sg630
F1.0
ssS'saw <dobj>'
p2036
(dp2037
g749
S'dobj'
p2038
sg751
I7
sg752
I7
sg753
S'saw'
p2039
sg755
F1.0
ssS'hidden <dobj>'
p2040
(dp2041
g991
g992
sg993
I5
sg994
I5
sg995
S'hidden'
p2042
sg997
F1.0
ssS'<subj> sounds sort'
p2043
(dp2044
g624
S'subj'
p2045
sg626
I22
sg627
I22
sg628
S'sounds sort'
p2046
sg630
F1.0
ssS'walk <dobj>'
p2047
(dp2048
g146
g147
sg148
I2
sg149
I2
sg150
S'walk'
p2049
sg152
F1.0
ssS'<subj> grown'
p2050
(dp2051
S'type'
p2052
S'subj'
p2053
sS'freq'
p2054
I1
sS'subj_freq'
p2055
I1
sS'display'
p2056
S'grown'
p2057
sS'prob'
p2058
F1.0
ssS'<subj> get'
p2059
(dp2060
g533
I27
sg534
I31
sg535
g536
sg537
S'get'
p2061
sg539
F0.8709677419354839
ssS'delight in <np>'
p2062
(dp2063
S'subj_freq'
p2064
I1
sS'freq'
p2065
I1
sS'type'
p2066
S'np'
p2067
sS'display'
p2068
S'delight in'
p2069
sS'prob'
p2070
F1.0
ssS'<subj> creating'
p2071
(dp2072
g1677
I13
sg1678
I13
sg1679
g1680
sg1681
S'creating'
p2073
sg1683
F1.0
ssS"<subj> 's technology"
p2074
(dp2075
S'type'
p2076
S'subj'
p2077
sS'freq'
p2078
I9
sS'subj_freq'
p2079
I9
sS'display'
p2080
S"'s technology"
p2081
sS'prob'
p2082
F1.0
ssS'<subj> suppose'
p2083
(dp2084
S'subj_freq'
p2085
I7
sS'freq'
p2086
I7
sS'type'
p2087
S'subj'
p2088
sS'display'
p2089
S'suppose'
p2090
sS'prob'
p2091
F1.0
ssS'Kingdom of <np>'
p2092
(dp2093
S'type'
p2094
S'np'
p2095
sS'freq'
p2096
I1
sS'subj_freq'
p2097
I1
sS'display'
p2098
S'Kingdom of'
p2099
sS'prob'
p2100
F1.0
ssS'see <dobj>'
p2101
(dp2102
g342
g343
sg344
I61
sg345
I60
sg346
S'see'
p2103
sg348
F0.9836065573770492
ssS'<subj> sharing experience'
p2104
(dp2105
S'subj_freq'
p2106
I1
sS'freq'
p2107
I1
sS'type'
p2108
S'subj'
p2109
sS'display'
p2110
S'sharing experience'
p2111
sS'prob'
p2112
F1.0
ssS'<subj> belongs opinion'
p2113
(dp2114
g173
g174
sg175
I7
sg176
I7
sg177
S'belongs opinion'
p2115
sg179
F1.0
ssS'touched <dobj>'
p2116
(dp2117
g1529
I7
sg1530
I7
sg1531
S'dobj'
p2118
sg1533
S'touched'
p2119
sg1535
F1.0
ssS'<subj> prevent'
p2120
(dp2121
g865
S'subj'
p2122
sg867
I21
sg868
I21
sg869
S'prevent'
p2123
sg871
F1.0
ssS'<subj> maintained'
p2124
(dp2125
g1731
I0
sg1732
I4
sg1733
g1734
sg1735
S'maintained'
p2126
sg1737
F0.0
ssS'<subj> saves someone'
p2127
(dp2128
g1320
I7
sg1321
I7
sg1322
g1323
sg1324
S'saves someone'
p2129
sg1326
F1.0
ssS'<subj> presented'
p2130
(dp2131
g722
g1251
sg724
I9
sg725
I9
sg726
S'presented'
p2132
sg728
F1.0
ssS'<subj> known'
p2133
(dp2134
g1298
I6
sg1299
I7
sg1300
S'subj'
p2135
sg1302
S'known'
p2136
sg1304
F0.8571428571428571
ssS'<subj> carved'
p2137
(dp2138
S'subj_freq'
p2139
I0
sS'freq'
p2140
I1
sS'type'
p2141
S'subj'
p2142
sS'display'
p2143
S'carved'
p2144
sS'prob'
p2145
F0.0
ssS'believe <dobj>'
p2146
(dp2147
g546
I30
sg547
I30
sg548
g1307
sg550
S'believe'
p2148
sg552
F1.0
ssS'<subj> knows'
p2149
(dp2150
g1753
g1754
sg1755
I7
sg1756
I7
sg1757
S'knows'
p2151
sg1759
F1.0
ssS'<subj> allowing'
p2152
(dp2153
g832
S'subj'
p2154
sg834
I1
sg835
I1
sg836
S'allowing'
p2155
sg838
F1.0
ssS'<subj> managing work'
p2156
(dp2157
S'type'
p2158
S'subj'
p2159
sS'freq'
p2160
I4
sS'subj_freq'
p2161
I4
sS'display'
p2162
S'managing work'
p2163
sS'prob'
p2164
F1.0
ssS'to visit <dobj>'
p2165
(dp2166
S'subj_freq'
p2167
I4
sS'freq'
p2168
I4
sS'type'
p2169
S'dobj'
p2170
sS'display'
p2171
S'to visit'
p2172
sS'prob'
p2173
F1.0
ssS'vacation with <np>'
p2174
(dp2175
S'type'
p2176
S'np'
p2177
sS'freq'
p2178
I1
sS'subj_freq'
p2179
I1
sS'display'
p2180
S'vacation with'
p2181
sS'prob'
p2182
F1.0
ssS'going <dobj>'
p2183
(dp2184
g360
g361
sg362
I12
sg363
I12
sg364
S'going'
p2185
sg366
F1.0
ssS'undo <dobj>'
p2186
(dp2187
g266
I21
sg267
I21
sg268
S'dobj'
p2188
sg270
S'undo'
p2189
sg272
F1.0
ssS'needed <dobj>'
p2190
(dp2191
g490
S'dobj'
p2192
sg492
I28
sg493
I28
sg494
S'needed'
p2193
sg496
F1.0
ssS'<subj> creating eternity'
p2194
(dp2195
g408
I4
sg409
I4
sg410
g411
sg412
S'creating eternity'
p2196
sg414
F1.0
ssS'<subj> have time'
p2197
(dp2198
g917
g918
sg919
I6
sg920
I6
sg921
S'have time'
p2199
sg923
F1.0
ssS'<subj> elaborate designs'
p2200
(dp2201
S'subj_freq'
p2202
I2
sS'freq'
p2203
I2
sS'type'
p2204
S'subj'
p2205
sS'display'
p2206
S'elaborate designs'
p2207
sS'prob'
p2208
F1.0
ssS'<subj> seems to evolved'
p2209
(dp2210
g417
g418
sg419
I21
sg420
I21
sg421
S'seems to evolved'
p2211
sg423
F1.0
ssS'go <dobj>'
p2212
(dp2213
S'type'
p2214
S'dobj'
p2215
sS'freq'
p2216
I2
sS'subj_freq'
p2217
I2
sS'display'
p2218
S'go'
p2219
sS'prob'
p2220
F1.0
ssS'<subj> live'
p2221
(dp2222
g173
g174
sg175
I16
sg176
I16
sg177
S'live'
p2223
sg179
F1.0
ssS'awaiting <dobj>'
p2224
(dp2225
S'subj_freq'
p2226
I1
sS'freq'
p2227
I1
sS'type'
p2228
S'dobj'
p2229
sS'display'
p2230
S'awaiting'
p2231
sS'prob'
p2232
F1.0
ssS'began <dobj>'
p2233
(dp2234
S'type'
p2235
S'dobj'
p2236
sS'freq'
p2237
I3
sS'subj_freq'
p2238
I1
sS'display'
p2239
S'began'
p2240
sS'prob'
p2241
F0.3333333333333333
ssS'<subj> end'
p2242
(dp2243
S'type'
p2244
S'subj'
p2245
sS'freq'
p2246
I3
sS'subj_freq'
p2247
I3
sS'display'
p2248
S'end'
p2249
sS'prob'
p2250
F1.0
ssS'<subj> confirm'
p2251
(dp2252
S'subj_freq'
p2253
I7
sS'freq'
p2254
I7
sS'type'
p2255
S'subj'
p2256
sS'display'
p2257
S'confirm'
p2258
sS'prob'
p2259
F1.0
ssS'performing <dobj>'
p2260
(dp2261
S'type'
p2262
S'dobj'
p2263
sS'freq'
p2264
I1
sS'subj_freq'
p2265
I1
sS'display'
p2266
S'performing'
p2267
sS'prob'
p2268
F1.0
ssS'fighters on <np>'
p2269
(dp2270
S'subj_freq'
p2271
I1
sS'freq'
p2272
I1
sS'type'
p2273
S'np'
p2274
sS'display'
p2275
S'fighters on'
p2276
sS'prob'
p2277
F1.0
ssS'<subj> have been attributed'
p2278
(dp2279
g969
I3
sg970
I3
sg971
g972
sg973
S'have been attributed'
p2280
sg975
F1.0
ssS'<subj> work'
p2281
(dp2282
S'subj_freq'
p2283
I0
sS'freq'
p2284
I1
sS'type'
p2285
S'subj'
p2286
sS'display'
p2287
S'work'
p2288
sS'prob'
p2289
F0.0
ssS'<subj> see birds'
p2290
(dp2291
S'subj_freq'
p2292
I2
sS'freq'
p2293
I2
sS'type'
p2294
S'subj'
p2295
sS'display'
p2296
S'see birds'
p2297
sS'prob'
p2298
F1.0
ssS'<subj> say experience'
p2299
(dp2300
g221
I19
sg222
I19
sg223
g224
sg225
S'say experience'
p2301
sg227
F1.0
ssS'like <dobj>'
p2302
(dp2303
g667
I10
sg668
I10
sg669
S'dobj'
p2304
sg671
S'like'
p2305
sg673
F1.0
ssS'<subj> meets incomprehensible'
p2306
(dp2307
g1146
g1147
sg1148
I1
sg1149
I1
sg1150
S'meets incomprehensible'
p2308
sg1152
F1.0
ssS'to prevent <dobj>'
p2309
(dp2310
g865
g866
sg867
I21
sg868
I21
sg869
S'to prevent'
p2311
sg871
F1.0
ssS'<subj> held'
p2312
(dp2313
S'subj_freq'
p2314
I1
sS'freq'
p2315
I2
sS'type'
p2316
S'subj'
p2317
sS'display'
p2318
S'held'
p2319
sS'prob'
p2320
F0.5
ssS'came <dobj>'
p2321
(dp2322
g749
g2038
sg751
I7
sg752
I7
sg753
S'came'
p2323
sg755
F1.0
ssS'<subj> construct'
p2324
(dp2325
S'subj_freq'
p2326
I0
sS'freq'
p2327
I21
sS'type'
p2328
S'subj'
p2329
sS'display'
p2330
S'construct'
p2331
sS'prob'
p2332
F0.0
ssS'faces <dobj>'
p2333
(dp2334
g1990
I2
sg1991
I2
sg1992
S'dobj'
p2335
sg1994
S'faces'
p2336
sg1996
F1.0
ssS'to cool <dobj>'
p2337
(dp2338
S'type'
p2339
S'dobj'
p2340
sS'freq'
p2341
I1
sS'subj_freq'
p2342
I1
sS'display'
p2343
S'to cool'
p2344
sS'prob'
p2345
F1.0
ssS'<subj> means'
p2346
(dp2347
g1415
I41
sg1416
I41
sg1417
g1837
sg1419
S'means'
p2348
sg1421
F1.0
ssS'<subj> got problem'
p2349
(dp2350
g57
I9
sg58
I9
sg59
g1006
sg61
S'got problem'
p2351
sg63
F1.0
ssS'<subj> has been maintained'
p2352
(dp2353
g1731
I0
sg1732
I4
sg1733
g1734
sg1735
S'has been maintained'
p2354
sg1737
F0.0
ssS'sees <dobj>'
p2355
(dp2356
g88
g1974
sg90
I42
sg91
I42
sg92
S'sees'
p2357
sg94
F1.0
ssS'<subj> have boats'
p2358
(dp2359
S'subj_freq'
p2360
I1
sS'freq'
p2361
I1
sS'type'
p2362
S'subj'
p2363
sS'display'
p2364
S'have boats'
p2365
sS'prob'
p2366
F1.0
ssS'to reach <dobj>'
p2367
(dp2368
g106
I21
sg107
I21
sg108
g109
sg110
S'to reach'
p2369
sg112
F1.0
ssS'apply <dobj>'
p2370
(dp2371
g667
I9
sg668
I9
sg669
g2304
sg671
S'apply'
p2372
sg673
F1.0
ssS'<subj> are connected'
p2373
(dp2374
g106
I21
sg107
I21
sg108
g486
sg110
S'are connected'
p2375
sg112
F1.0
ssS'<subj> open tourist'
p2376
(dp2377
g1914
S'subj'
p2378
sg1916
I4
sg1917
I4
sg1918
S'open tourist'
p2379
sg1920
F1.0
ssS'<subj> wanted to express'
p2380
(dp2381
g1710
I7
sg1711
I7
sg1712
S'subj'
p2382
sg1714
S'wanted to express'
p2383
sg1716
F1.0
ssS'<subj> took place'
p2384
(dp2385
g1173
g1174
sg1175
I1
sg1176
I0
sg1177
S'took place'
p2386
sg1179
F0.0
ssS'<subj> continue'
p2387
(dp2388
g948
S'subj'
p2389
sg950
I7
sg951
I7
sg952
S'continue'
p2390
sg954
F1.0
ssS'<subj> are discussed'
p2391
(dp2392
g302
g303
sg304
I21
sg305
I21
sg306
S'are discussed'
p2393
sg308
F1.0
ssS'<subj> walks tourists'
p2394
(dp2395
g146
g815
sg148
I1
sg149
I1
sg150
S'walks tourists'
p2396
sg152
F1.0
ssS'governing <dobj>'
p2397
(dp2398
g266
I21
sg267
I21
sg268
g2188
sg270
S'governing'
p2399
sg272
F1.0
ssV<subj> have work
p2400
(dp2401
g1289
g1290
sg1291
I2
sg1292
I2
sg1293
Vhave work
p2402
sg1295
F1.0
ssS'soul on <np>'
p2403
(dp2404
S'type'
p2405
S'np'
p2406
sS'freq'
p2407
I1
sS'subj_freq'
p2408
I0
sS'display'
p2409
S'soul on'
p2410
sS'prob'
p2411
F0.0
ssS'<subj> preserving'
p2412
(dp2413
S'subj_freq'
p2414
I2
sS'freq'
p2415
I2
sS'type'
p2416
S'subj'
p2417
sS'display'
p2418
S'preserving'
p2419
sS'prob'
p2420
F1.0
ssS'hold <dobj>'
p2421
(dp2422
g164
I7
sg165
I7
sg166
g1611
sg168
S'hold'
p2423
sg170
F1.0
ssS'become work on <np>'
p2424
(dp2425
g257
I13
sg258
I13
sg259
S'np'
p2426
sg261
S'become work on'
p2427
sg263
F1.0
ssS"'m <dobj>"
p2428
(dp2429
g895
I77
sg896
I77
sg897
S'dobj'
p2430
sg899
S"'m"
p2431
sg901
F1.0
ssS'got <dobj>'
p2432
(dp2433
g57
I9
sg58
I9
sg59
g60
sg61
S'got'
p2434
sg63
F1.0
ssS'shows <dobj>'
p2435
(dp2436
g1498
I7
sg1499
I7
sg1500
g1507
sg1502
S'shows'
p2437
sg1504
F1.0
ssS'<subj> thinking'
p2438
(dp2439
g230
S'subj'
p2440
sg232
I21
sg233
I21
sg234
S'thinking'
p2441
sg236
F1.0
ssS'<subj> cut'
p2442
(dp2443
g203
g320
sg205
I4
sg206
I4
sg207
S'cut'
p2444
sg209
F1.0
ssVblown <dobj>
p2445
(dp2446
g1289
g1633
sg1291
I2
sg1292
I2
sg1293
Vblown
p2447
sg1295
F1.0
ssS'<subj> killing'
p2448
(dp2449
S'type'
p2450
S'subj'
p2451
sS'freq'
p2452
I1
sS'subj_freq'
p2453
I1
sS'display'
p2454
S'killing'
p2455
sS'prob'
p2456
F1.0
ssS'<subj> wrecked'
p2457
(dp2458
g969
I3
sg970
I3
sg971
g972
sg973
S'wrecked'
p2459
sg975
F1.0
ssS'held <dobj>'
p2460
(dp2461
g2314
I1
sg2315
I2
sg2316
S'dobj'
p2462
sg2318
S'held'
p2463
sg2320
F0.5
ssS'<subj> make energy'
p2464
(dp2465
S'subj_freq'
p2466
I1
sS'freq'
p2467
I1
sS'type'
p2468
S'subj'
p2469
sS'display'
p2470
S'make energy'
p2471
sS'prob'
p2472
F1.0
ssS'uses <dobj>'
p2473
(dp2474
g1698
I17
sg1699
I17
sg1700
S'dobj'
p2475
sg1702
S'uses'
p2476
sg1704
F1.0
ssS'<subj> offers water'
p2477
(dp2478
g1339
I0
sg1340
I1
sg1341
S'subj'
p2479
sg1343
S'offers water'
p2480
sg1345
F0.0
ssS'sky for <np>'
p2481
(dp2482
g239
S'np'
p2483
sg241
I1
sg242
I1
sg243
S'sky for'
p2484
sg245
F1.0
ssS'having <dobj>'
p2485
(dp2486
S'type'
p2487
S'dobj'
p2488
sS'freq'
p2489
I8
sS'subj_freq'
p2490
I8
sS'display'
p2491
S'having'
p2492
sS'prob'
p2493
F1.0
ssS'<subj> know'
p2494
(dp2495
g417
g418
sg419
I39
sg420
I39
sg421
S'know'
p2496
sg423
F1.0
ssS'makes <dobj>'
p2497
(dp2498
g1901
I4
sg1902
I4
sg1903
S'dobj'
p2499
sg1905
S'makes'
p2500
sg1907
F1.0
ssS'<subj> portraying feet'
p2501
(dp2502
S'type'
p2503
S'subj'
p2504
sS'freq'
p2505
I1
sS'subj_freq'
p2506
I0
sS'display'
p2507
S'portraying feet'
p2508
sS'prob'
p2509
F0.0
ssS'<subj> shown'
p2510
(dp2511
g546
I42
sg547
I42
sg548
g549
sg550
S'shown'
p2512
sg552
F1.0
ssS'<subj> was began'
p2513
(dp2514
g57
I9
sg58
I9
sg59
g1006
sg61
S'was began'
p2515
sg63
F1.0
ssS'<subj> connected privacy'
p2516
(dp2517
g106
I21
sg107
I21
sg108
g486
sg110
S'connected privacy'
p2518
sg112
F1.0
ssS'<subj> shows'
p2519
(dp2520
g1498
I7
sg1499
I7
sg1500
g1501
sg1502
S'shows'
p2521
sg1504
F1.0
ssS'gets <dobj>'
p2522
(dp2523
S'type'
p2524
S'dobj'
p2525
sS'freq'
p2526
I1
sS'subj_freq'
p2527
I1
sS'display'
p2528
S'gets'
p2529
sS'prob'
p2530
F1.0
ssV<subj> posted
p2531
(dp2532
g1289
g1290
sg1291
I2
sg1292
I2
sg1293
Vposted
p2533
sg1295
F1.0
ssS'<subj> had fun'
p2534
(dp2535
S'subj_freq'
p2536
I1
sS'freq'
p2537
I1
sS'type'
p2538
S'subj'
p2539
sS'display'
p2540
S'had fun'
p2541
sS'prob'
p2542
F1.0
ssS'<subj> stay Gujarat'
p2543
(dp2544
S'subj_freq'
p2545
I1
sS'freq'
p2546
I1
sS'type'
p2547
S'subj'
p2548
sS'display'
p2549
S'stay Gujarat'
p2550
sS'prob'
p2551
F1.0
ssS'suggests <dobj>'
p2552
(dp2553
S'type'
p2554
S'dobj'
p2555
sS'freq'
p2556
I17
sS'subj_freq'
p2557
I0
sS'display'
p2558
S'suggests'
p2559
sS'prob'
p2560
F0.0
ssS'<subj> think to think'
p2561
(dp2562
S'type'
p2563
S'subj'
p2564
sS'freq'
p2565
I9
sS'subj_freq'
p2566
I9
sS'display'
p2567
S'think to think'
p2568
sS'prob'
p2569
F1.0
ssS'<subj> hit gallon'
p2570
(dp2571
g1740
S'subj'
p2572
sg1742
I21
sg1743
I21
sg1744
S'hit gallon'
p2573
sg1746
F1.0
ssS'<subj> wait'
p2574
(dp2575
g1624
S'subj'
p2576
sg1626
I7
sg1627
I4
sg1628
S'wait'
p2577
sg1630
F0.5714285714285714
ssS'<subj> was conceded'
p2578
(dp2579
g119
g120
sg121
I7
sg122
I7
sg123
S'was conceded'
p2580
sg125
F1.0
ssS'took <dobj>'
p2581
(dp2582
g1173
S'dobj'
p2583
sg1175
I1
sg1176
I0
sg1177
S'took'
p2584
sg1179
F0.0
ssS'reject <dobj>'
p2585
(dp2586
g1189
g1190
sg1191
I21
sg1192
I21
sg1193
S'reject'
p2587
sg1195
F1.0
ssS'<subj> raise'
p2588
(dp2589
g908
g909
sg910
I4
sg911
I4
sg912
S'raise'
p2590
sg914
F1.0
ssS'printed <dobj>'
p2591
(dp2592
S'type'
p2593
S'dobj'
p2594
sS'freq'
p2595
I1
sS'subj_freq'
p2596
I1
sS'display'
p2597
S'printed'
p2598
sS'prob'
p2599
F1.0
ssS'<subj> have tickets'
p2600
(dp2601
g930
g1929
sg932
I1
sg933
I0
sg934
S'have tickets'
p2602
sg936
F0.0
ssS'misled <dobj>'
p2603
(dp2604
g1189
g1190
sg1191
I21
sg1192
I21
sg1193
S'misled'
p2605
sg1195
F1.0
ssS'wanted to express <dobj>'
p2606
(dp2607
g1710
I7
sg1711
I7
sg1712
g1713
sg1714
S'wanted to express'
p2608
sg1716
F1.0
ssS'awaits <dobj>'
p2609
(dp2610
S'subj_freq'
p2611
I1
sS'freq'
p2612
I1
sS'type'
p2613
S'dobj'
p2614
sS'display'
p2615
S'awaits'
p2616
sS'prob'
p2617
F1.0
ssS'<subj> have luxury'
p2618
(dp2619
S'type'
p2620
S'subj'
p2621
sS'freq'
p2622
I4
sS'subj_freq'
p2623
I4
sS'display'
p2624
S'have luxury'
p2625
sS'prob'
p2626
F1.0
ssS'lie <dobj>'
p2627
(dp2628
g1965
g1966
sg1967
I9
sg1968
I9
sg1969
S'lie'
p2629
sg1971
F1.0
ssS'to stop <dobj>'
p2630
(dp2631
g939
I21
sg940
I21
sg941
S'dobj'
p2632
sg943
S'to stop'
p2633
sg945
F1.0
ssS'<subj> think genius'
p2634
(dp2635
S'type'
p2636
S'subj'
p2637
sS'freq'
p2638
I7
sS'subj_freq'
p2639
I7
sS'display'
p2640
S'think genius'
p2641
sS'prob'
p2642
F1.0
ssS'<subj> become canvas'
p2643
(dp2644
g1198
S'subj'
p2645
sg1200
I1
sg1201
I1
sg1202
S'become canvas'
p2646
sg1204
F1.0
ssS'standing <dobj>'
p2647
(dp2648
S'subj_freq'
p2649
I2
sS'freq'
p2650
I2
sS'type'
p2651
S'dobj'
p2652
sS'display'
p2653
S'standing'
p2654
sS'prob'
p2655
F1.0
ssS'distinguished <dobj>'
p2656
(dp2657
g2202
I2
sg2203
I2
sg2204
S'dobj'
p2658
sg2206
S'distinguished'
p2659
sg2208
F1.0
ssS'heed <dobj>'
p2660
(dp2661
g948
g949
sg950
I7
sg951
I7
sg952
S'heed'
p2662
sg954
F1.0
ssS'<subj> has year'
p2663
(dp2664
g1731
I0
sg1732
I4
sg1733
g1734
sg1735
S'has year'
p2665
sg1737
F0.0
ssS'<subj> has be spent'
p2666
(dp2667
g221
I19
sg222
I19
sg223
g224
sg225
S'has be spent'
p2668
sg227
F1.0
ssS'Minister of <np>'
p2669
(dp2670
S'subj_freq'
p2671
I0
sS'freq'
p2672
I1
sS'type'
p2673
S'np'
p2674
sS'display'
p2675
S'Minister of'
p2676
sS'prob'
p2677
F0.0
ssS'<subj> think room'
p2678
(dp2679
g2563
g2564
sg2565
I9
sg2566
I9
sg2567
S'think room'
p2680
sg2569
F1.0
ssS'invite <dobj>'
p2681
(dp2682
g555
S'dobj'
p2683
sg557
I3
sg558
I3
sg559
S'invite'
p2684
sg561
F1.0
ssS'<subj> buy assertion'
p2685
(dp2686
g48
g1273
sg50
I7
sg51
I7
sg52
S'buy assertion'
p2687
sg54
F1.0
ssS'<subj> spent'
p2688
(dp2689
g221
I19
sg222
I19
sg223
g224
sg225
S'spent'
p2690
sg227
F1.0
ssS'<subj> knowing'
p2691
(dp2692
g788
I1
sg789
I1
sg790
S'subj'
p2693
sg792
S'knowing'
p2694
sg794
F1.0
ssS'doing <dobj>'
p2695
(dp2696
g106
I21
sg107
I21
sg108
g109
sg110
S'doing'
p2697
sg112
F1.0
ssS'<subj> going to begin'
p2698
(dp2699
S'type'
p2700
S'subj'
p2701
sS'freq'
p2702
I1
sS'subj_freq'
p2703
I1
sS'display'
p2704
S'going to begin'
p2705
sS'prob'
p2706
F1.0
ssS'to watch <dobj>'
p2707
(dp2708
g1219
S'dobj'
p2709
sg1221
I2
sg1222
I2
sg1223
S'to watch'
p2710
sg1225
F1.0
ssVwatched <dobj>
p2711
(dp2712
g1289
g1633
sg1291
I2
sg1292
I2
sg1293
Vwatched
p2713
sg1295
F1.0
ssS'<subj> spreading'
p2714
(dp2715
g372
I2
sg373
I2
sg374
S'subj'
p2716
sg376
S'spreading'
p2717
sg378
F1.0
ssS'<subj> elaborate'
p2718
(dp2719
g2202
I2
sg2203
I2
sg2204
g2205
sg2206
S'elaborate'
p2720
sg2208
F1.0
ssS'ensure <dobj>'
p2721
(dp2722
g582
g583
sg584
I20
sg585
I20
sg586
S'ensure'
p2723
sg588
F1.0
ssS"<subj> 's pleasure"
p2724
(dp2725
S'subj_freq'
p2726
I3
sS'freq'
p2727
I3
sS'type'
p2728
S'subj'
p2729
sS'display'
p2730
S"'s pleasure"
p2731
sS'prob'
p2732
F1.0
ssS'<subj> spend'
p2733
(dp2734
g797
I4
sg798
I5
sg799
g800
sg801
S'spend'
p2735
sg803
F0.8
ssS'<subj> held travel'
p2736
(dp2737
g1014
g1039
sg1016
I1
sg1017
I1
sg1018
S'held travel'
p2738
sg1020
F1.0
ssS'to create <dobj>'
p2739
(dp2740
S'subj_freq'
p2741
I2
sS'freq'
p2742
I2
sS'type'
p2743
S'dobj'
p2744
sS'display'
p2745
S'to create'
p2746
sS'prob'
p2747
F1.0
ssS'waste <dobj>'
p2748
(dp2749
g917
S'dobj'
p2750
sg919
I6
sg920
I6
sg921
S'waste'
p2751
sg923
F1.0
ssS'learned <dobj>'
p2752
(dp2753
g533
I13
sg534
I13
sg535
g1386
sg537
S'learned'
p2754
sg539
F1.0
ssS'<subj> learning'
p2755
(dp2756
S'subj_freq'
p2757
I8
sS'freq'
p2758
I8
sS'type'
p2759
S'subj'
p2760
sS'display'
p2761
S'learning'
p2762
sS'prob'
p2763
F1.0
ssS'<subj> leads visitor'
p2764
(dp2765
S'subj_freq'
p2766
I0
sS'freq'
p2767
I1
sS'type'
p2768
S'subj'
p2769
sS'display'
p2770
S'leads visitor'
p2771
sS'prob'
p2772
F0.0
ssS'<subj> stay'
p2773
(dp2774
g499
S'subj'
p2775
sg501
I4
sg502
I4
sg503
S'stay'
p2776
sg505
F1.0
ssS'helps <dobj>'
p2777
(dp2778
g533
I11
sg534
I11
sg535
g1386
sg537
S'helps'
p2779
sg539
F1.0
ssS'<subj> is located'
p2780
(dp2781
g70
I2
sg71
I5
sg72
g73
sg74
S'is located'
p2782
sg76
F0.4
ssS'<subj> restored'
p2783
(dp2784
S'type'
p2785
S'subj'
p2786
sS'freq'
p2787
I2
sS'subj_freq'
p2788
I2
sS'display'
p2789
S'restored'
p2790
sS'prob'
p2791
F1.0
ssS'atoms in <np>'
p2792
(dp2793
g2487
S'np'
p2794
sg2489
I7
sg2490
I7
sg2491
S'atoms in'
p2795
sg2493
F1.0
ssS'to win <dobj>'
p2796
(dp2797
S'subj_freq'
p2798
I4
sS'freq'
p2799
I4
sS'type'
p2800
S'dobj'
p2801
sS'display'
p2802
S'to win'
p2803
sS'prob'
p2804
F1.0
ssS'continue to maintain <dobj>'
p2805
(dp2806
g948
g949
sg950
I7
sg951
I7
sg952
S'continue to maintain'
p2807
sg954
F1.0
ssS'<subj> get chance'
p2808
(dp2809
S'type'
p2810
S'subj'
p2811
sS'freq'
p2812
I1
sS'subj_freq'
p2813
I1
sS'display'
p2814
S'get chance'
p2815
sS'prob'
p2816
F1.0
ssS'copied <dobj>'
p2817
(dp2818
g886
I21
sg887
I21
sg888
S'dobj'
p2819
sg890
S'copied'
p2820
sg892
F1.0
ssS'hit <dobj>'
p2821
(dp2822
g1740
g1741
sg1742
I21
sg1743
I21
sg1744
S'hit'
p2823
sg1746
F1.0
ssS'to wait <dobj>'
p2824
(dp2825
g1624
g1625
sg1626
I7
sg1627
I4
sg1628
S'to wait'
p2826
sg1630
F0.5714285714285714
ssS'need to remember <dobj>'
p2827
(dp2828
S'type'
p2829
S'dobj'
p2830
sS'freq'
p2831
I6
sS'subj_freq'
p2832
I6
sS'display'
p2833
S'need to remember'
p2834
sS'prob'
p2835
F1.0
ssS'fight <dobj>'
p2836
(dp2837
g464
g465
sg466
I7
sg467
I7
sg468
S'fight'
p2838
sg470
F1.0
ssS'<subj> cool'
p2839
(dp2840
g2339
S'subj'
p2841
sg2341
I1
sg2342
I1
sg2343
S'cool'
p2842
sg2345
F1.0
ssS'<subj> lies'
p2843
(dp2844
g612
I17
sg613
I17
sg614
g615
sg616
S'lies'
p2845
sg618
F1.0
ssS'<subj> added memories'
p2846
(dp2847
S'subj_freq'
p2848
I0
sS'freq'
p2849
I1
sS'type'
p2850
S'subj'
p2851
sS'display'
p2852
S'added memories'
p2853
sS'prob'
p2854
F0.0
ssS'<subj> guess picnic'
p2855
(dp2856
S'subj_freq'
p2857
I0
sS'freq'
p2858
I1
sS'type'
p2859
S'subj'
p2860
sS'display'
p2861
S'guess picnic'
p2862
sS'prob'
p2863
F0.0
ssS'forget <dobj>'
p2864
(dp2865
g155
I8
sg156
I8
sg157
S'dobj'
p2866
sg159
S'forget'
p2867
sg161
F1.0
ssS'theory of <np>'
p2868
(dp2869
g533
I9
sg534
I9
sg535
S'np'
p2870
sg537
S'theory of'
p2871
sg539
F1.0
ssS'speech at <np>'
p2872
(dp2873
g2466
I1
sg2467
I1
sg2468
S'np'
p2874
sg2470
S'speech at'
p2875
sg2472
F1.0
ssS'<subj> incurred amount'
p2876
(dp2877
S'type'
p2878
S'subj'
p2879
sS'freq'
p2880
I2
sS'subj_freq'
p2881
I0
sS'display'
p2882
S'incurred amount'
p2883
sS'prob'
p2884
F0.0
ssS'<subj> say'
p2885
(dp2886
g1949
g1950
sg1951
I68
sg1952
I68
sg1953
S'say'
p2887
sg1955
F1.0
ssS'lit <dobj>'
p2888
(dp2889
g1424
I1
sg1425
I1
sg1426
S'dobj'
p2890
sg1428
S'lit'
p2891
sg1430
F1.0
ssS'using <dobj>'
p2892
(dp2893
g806
I0
sg807
I2
sg808
S'dobj'
p2894
sg810
S'using'
p2895
sg812
F0.0
ssS'<subj> is shown'
p2896
(dp2897
g1949
g1950
sg1951
I21
sg1952
I21
sg1953
S'is shown'
p2898
sg1955
F1.0
ssS'celebration at <np>'
p2899
(dp2900
S'type'
p2901
S'np'
p2902
sS'freq'
p2903
I2
sS'subj_freq'
p2904
I2
sS'display'
p2905
S'celebration at'
p2906
sS'prob'
p2907
F1.0
ssS'shot in <np>'
p2908
(dp2909
g1155
I1
sg1156
I1
sg1157
S'np'
p2910
sg1159
S'shot in'
p2911
sg1161
F1.0
ssS'to make <dobj>'
p2912
(dp2913
S'type'
p2914
S'dobj'
p2915
sS'freq'
p2916
I17
sS'subj_freq'
p2917
I17
sS'display'
p2918
S'to make'
p2919
sS'prob'
p2920
F1.0
ssS'seems <dobj>'
p2921
(dp2922
g417
g1821
sg419
I29
sg420
I29
sg421
S'seems'
p2923
sg423
F1.0
ssS'waves with <np>'
p2924
(dp2925
g991
S'np'
p2926
sg993
I4
sg994
I4
sg995
S'waves with'
p2927
sg997
F1.0
ssS'<subj> inaugurated today'
p2928
(dp2929
g333
I2
sg334
I2
sg335
g336
sg337
S'inaugurated today'
p2930
sg339
F1.0
ssS'denied <dobj>'
p2931
(dp2932
g1189
g1190
sg1191
I21
sg1192
I21
sg1193
S'denied'
p2933
sg1195
F1.0
ssS'arrive <dobj>'
p2934
(dp2935
S'type'
p2936
S'dobj'
p2937
sS'freq'
p2938
I7
sS'subj_freq'
p2939
I7
sS'display'
p2940
S'arrive'
p2941
sS'prob'
p2942
F1.0
ssS'<subj> like ideas'
p2943
(dp2944
g2466
I1
sg2467
I1
sg2468
g2469
sg2470
S'like ideas'
p2945
sg2472
F1.0
ssS'<subj> explained Ted'
p2946
(dp2947
S'subj_freq'
p2948
I9
sS'freq'
p2949
I9
sS'type'
p2950
S'subj'
p2951
sS'display'
p2952
S'explained Ted'
p2953
sS'prob'
p2954
F1.0
ssVread <dobj>
p2955
(dp2956
g1289
g1633
sg1291
I2
sg1292
I2
sg1293
Vread
p2957
sg1295
F1.0
ssS'<subj> celebrated'
p2958
(dp2959
g676
S'subj'
p2960
sg678
I7
sg679
I7
sg680
S'celebrated'
p2961
sg682
F1.0
ssS'recommend <dobj>'
p2962
(dp2963
g2167
I2
sg2168
I2
sg2169
g2170
sg2171
S'recommend'
p2964
sg2173
F1.0
ssS'<subj> discover'
p2965
(dp2966
S'subj_freq'
p2967
I2
sS'freq'
p2968
I2
sS'type'
p2969
S'subj'
p2970
sS'display'
p2971
S'discover'
p2972
sS'prob'
p2973
F1.0
ssS'<subj> celebrated devotion'
p2974
(dp2975
S'type'
p2976
S'subj'
p2977
sS'freq'
p2978
I1
sS'subj_freq'
p2979
I1
sS'display'
p2980
S'celebrated devotion'
p2981
sS'prob'
p2982
F1.0
ssS'<subj> is cut'
p2983
(dp2984
g203
g320
sg205
I4
sg206
I4
sg207
S'is cut'
p2985
sg209
F1.0
ssS'<subj> be held'
p2986
(dp2987
g1014
g1039
sg1016
I1
sg1017
I1
sg1018
S'be held'
p2988
sg1020
F1.0
ssS'<subj> gather'
p2989
(dp2990
g1689
g1795
sg1691
I1
sg1692
I1
sg1693
S'gather'
p2991
sg1695
F1.0
ssS'<subj> reached'
p2992
(dp2993
S'type'
p2994
S'subj'
p2995
sS'freq'
p2996
I25
sS'subj_freq'
p2997
I25
sS'display'
p2998
S'reached'
p2999
sS'prob'
p3000
F1.0
ssS'<subj> shows things'
p3001
(dp3002
g1498
I7
sg1499
I7
sg1500
g1501
sg1502
S'shows things'
p3003
sg1504
F1.0
ssS'watch <dobj>'
p3004
(dp3005
g1219
g2709
sg1221
I2
sg1222
I2
sg1223
S'watch'
p3006
sg1225
F1.0
ssS'changed <dobj>'
p3007
(dp3008
g1529
I7
sg1530
I7
sg1531
g2118
sg1533
S'changed'
p3009
sg1535
F1.0
ssS'<subj> been unveiled'
p3010
(dp3011
S'subj_freq'
p3012
I1
sS'freq'
p3013
I1
sS'type'
p3014
S'subj'
p3015
sS'display'
p3016
S'been unveiled'
p3017
sS'prob'
p3018
F1.0
ssS'<subj> look'
p3019
(dp3020
g1486
I4
sg1487
I4
sg1488
S'subj'
p3021
sg1490
S'look'
p3022
sg1492
F1.0
ssS'<subj> places India'
p3023
(dp3024
g770
g771
sg772
I4
sg773
I4
sg774
S'places India'
p3025
sg776
F1.0
ssS'exhibits <dobj>'
p3026
(dp3027
g1352
I1
sg1353
I1
sg1354
S'dobj'
p3028
sg1356
S'exhibits'
p3029
sg1358
F1.0
ssS'<subj> make'
p3030
(dp3031
g582
g1247
sg584
I43
sg585
I43
sg586
S'make'
p3032
sg588
F1.0
ssS'state <dobj>'
p3033
(dp3034
S'type'
p3035
S'dobj'
p3036
sS'freq'
p3037
I23
sS'subj_freq'
p3038
I23
sS'display'
p3039
S'state'
p3040
sS'prob'
p3041
F1.0
ssS'<subj> be spotted'
p3042
(dp3043
S'type'
p3044
S'subj'
p3045
sS'freq'
p3046
I2
sS'subj_freq'
p3047
I2
sS'display'
p3048
S'be spotted'
p3049
sS'prob'
p3050
F1.0
ssS'cheat <dobj>'
p3051
(dp3052
g57
I18
sg58
I18
sg59
g60
sg61
S'cheat'
p3053
sg63
F1.0
ssS'to build <dobj>'
p3054
(dp3055
g464
g465
sg466
I7
sg467
I7
sg468
S'to build'
p3056
sg470
F1.0
ssS'<subj> find discord'
p3057
(dp3058
g1081
I7
sg1082
I7
sg1083
g1084
sg1085
S'find discord'
p3059
sg1087
F1.0
ssS'blessings with <np>'
p3060
(dp3061
S'subj_freq'
p3062
I1
sS'freq'
p3063
I1
sS'type'
p3064
S'np'
p3065
sS'display'
p3066
S'blessings with'
p3067
sS'prob'
p3068
F1.0
ssS'devoted <dobj>'
p3069
(dp3070
g612
I9
sg613
I9
sg614
g2012
sg616
S'devoted'
p3071
sg618
F1.0
ssS'<subj> is written'
p3072
(dp3073
S'type'
p3074
S'subj'
p3075
sS'freq'
p3076
I6
sS'subj_freq'
p3077
I6
sS'display'
p3078
S'is written'
p3079
sS'prob'
p3080
F1.0
ssS'appears <dobj>'
p3081
(dp3082
g895
I22
sg896
I22
sg897
g2430
sg899
S'appears'
p3083
sg901
F1.0
ssS'received <dobj>'
p3084
(dp3085
g1659
I2
sg1660
I2
sg1661
S'dobj'
p3086
sg1663
S'received'
p3087
sg1665
F1.0
ssS'portraying <dobj>'
p3088
(dp3089
g2503
S'dobj'
p3090
sg2505
I1
sg2506
I0
sg2507
S'portraying'
p3091
sg2509
F0.0
ssS'provides <dobj>'
p3092
(dp3093
g426
S'dobj'
p3094
sg428
I2
sg429
I2
sg430
S'provides'
p3095
sg432
F1.0
ssS'role in <np>'
p3096
(dp3097
S'subj_freq'
p3098
I1
sS'freq'
p3099
I1
sS'type'
p3100
S'np'
p3101
sS'display'
p3102
S'role in'
p3103
sS'prob'
p3104
F1.0
ssS'<subj> watching show'
p3105
(dp3106
S'type'
p3107
S'subj'
p3108
sS'freq'
p3109
I2
sS'subj_freq'
p3110
I2
sS'display'
p3111
S'watching show'
p3112
sS'prob'
p3113
F1.0
ssS'required <dobj>'
p3114
(dp3115
g97
I7
sg98
I7
sg99
g447
sg101
S'required'
p3116
sg103
F1.0
ssS'to define <dobj>'
p3117
(dp3118
g761
S'dobj'
p3119
sg763
I7
sg764
I7
sg765
S'to define'
p3120
sg767
F1.0
ssS'<subj> focused Ted'
p3121
(dp3122
g360
g663
sg362
I7
sg363
I7
sg364
S'focused Ted'
p3123
sg366
F1.0
ssS'<subj> excited'
p3124
(dp3125
g275
I21
sg276
I21
sg277
g278
sg279
S'excited'
p3126
sg281
F1.0
ssS'is located at <np>'
p3127
(dp3128
g1799
I2
sg1800
I2
sg1801
S'np'
p3129
sg1803
S'is located at'
p3130
sg1805
F1.0
ssS'<subj> being built'
p3131
(dp3132
g2360
I1
sg2361
I1
sg2362
g2363
sg2364
S'being built'
p3133
sg2366
F1.0
ssS'explain <dobj>'
p3134
(dp3135
g155
I7
sg156
I7
sg157
g2866
sg159
S'explain'
p3136
sg161
F1.0
ssS'<subj> are considered'
p3137
(dp3138
S'type'
p3139
S'subj'
p3140
sS'freq'
p3141
I1
sS'subj_freq'
p3142
I1
sS'display'
p3143
S'are considered'
p3144
sS'prob'
p3145
F1.0
ssS'<subj> find'
p3146
(dp3147
g164
I20
sg165
I20
sg166
g167
sg168
S'find'
p3148
sg170
F1.0
ssS'guess <dobj>'
p3149
(dp3150
S'subj_freq'
p3151
I3
sS'freq'
p3152
I4
sS'type'
p3153
S'dobj'
p3154
sS'display'
p3155
S'guess'
p3156
sS'prob'
p3157
F0.75
ssS'to spot <dobj>'
p3158
(dp3159
S'subj_freq'
p3160
I1
sS'freq'
p3161
I1
sS'type'
p3162
S'dobj'
p3163
sS'display'
p3164
S'to spot'
p3165
sS'prob'
p3166
F1.0
ssS'<subj> explore'
p3167
(dp3168
g399
I2
sg400
I2
sg401
S'subj'
p3169
sg403
S'explore'
p3170
sg405
F1.0
ssS'<subj> belongs to do'
p3171
(dp3172
g173
g174
sg175
I7
sg176
I7
sg177
S'belongs to do'
p3173
sg179
F1.0
ssS'used <dobj>'
p3174
(dp3175
g1023
I7
sg1024
I9
sg1025
g1026
sg1027
S'used'
p3176
sg1029
F0.7777777777777778
ssS'<subj> visiting'
p3177
(dp3178
S'type'
p3179
S'subj'
p3180
sS'freq'
p3181
I6
sS'subj_freq'
p3182
I6
sS'display'
p3183
S'visiting'
p3184
sS'prob'
p3185
F1.0
ssS'<subj> helps people'
p3186
(dp3187
g533
I9
sg534
I9
sg535
g536
sg537
S'helps people'
p3188
sg539
F1.0
ssS'<subj> has been unveiled'
p3189
(dp3190
g3012
I1
sg3013
I1
sg3014
g3015
sg3016
S'has been unveiled'
p3191
sg3018
F1.0
ssS'taken <dobj>'
p3192
(dp3193
g2466
I1
sg2467
I1
sg2468
S'dobj'
p3194
sg2470
S'taken'
p3195
sg2472
F1.0
ssS'<subj> are built'
p3196
(dp3197
S'type'
p3198
S'subj'
p3199
sS'freq'
p3200
I1
sS'subj_freq'
p3201
I0
sS'display'
p3202
S'are built'
p3203
sS'prob'
p3204
F0.0
ssS'<subj> capture'
p3205
(dp3206
g1403
I4
sg1404
I4
sg1405
S'subj'
p3207
sg1407
S'capture'
p3208
sg1409
F1.0
ssS'<subj> fly year'
p3209
(dp3210
S'subj_freq'
p3211
I2
sS'freq'
p3212
I2
sS'type'
p3213
S'subj'
p3214
sS'display'
p3215
S'fly year'
p3216
sS'prob'
p3217
F1.0
ssS'to stay <dobj>'
p3218
(dp3219
g499
g500
sg501
I2
sg502
I2
sg503
S'to stay'
p3220
sg505
F1.0
ssS'<subj> brings'
p3221
(dp3222
S'subj_freq'
p3223
I1
sS'freq'
p3224
I1
sS'type'
p3225
S'subj'
p3226
sS'display'
p3227
S'brings'
p3228
sS'prob'
p3229
F1.0
ssS'<subj> was reached'
p3230
(dp3231
g2994
g2995
sg2996
I25
sg2997
I25
sg2998
S'was reached'
p3232
sg3000
F1.0
ssS'deserves <dobj>'
p3233
(dp3234
g212
g213
sg214
I8
sg215
I8
sg216
S'deserves'
p3235
sg218
F1.0
ssS'buy <dobj>'
p3236
(dp3237
g48
S'dobj'
p3238
sg50
I7
sg51
I7
sg52
S'buy'
p3239
sg54
F1.0
ssS'<subj> probing'
p3240
(dp3241
g88
g1139
sg90
I42
sg91
I42
sg92
S'probing'
p3242
sg94
F1.0
ssS'suppose <dobj>'
p3243
(dp3244
g2085
I7
sg2086
I7
sg2087
S'dobj'
p3245
sg2089
S'suppose'
p3246
sg2091
F1.0
ssS'feel <dobj>'
p3247
(dp3248
g2994
S'dobj'
p3249
sg2996
I40
sg2997
I40
sg2998
S'feel'
p3250
sg3000
F1.0
ssS'exercise <dobj>'
p3251
(dp3252
g2563
S'dobj'
p3253
sg2565
I9
sg2566
I9
sg2567
S'exercise'
p3254
sg2569
F1.0
ssS'<subj> decides'
p3255
(dp3256
S'type'
p3257
S'subj'
p3258
sS'freq'
p3259
I9
sS'subj_freq'
p3260
I9
sS'display'
p3261
S'decides'
p3262
sS'prob'
p3263
F1.0
ssS'told <dobj>'
p3264
(dp3265
g221
I19
sg222
I19
sg223
S'dobj'
p3266
sg225
S'told'
p3267
sg227
F1.0
ssS'incurred <dobj>'
p3268
(dp3269
g2878
S'dobj'
p3270
sg2880
I2
sg2881
I0
sg2882
S'incurred'
p3271
sg2884
F0.0
ssV<subj> have to is
p3272
(dp3273
g1289
g1290
sg1291
I2
sg1292
I2
sg1293
Vhave to is
p3274
sg1295
F1.0
ssS'<subj> walking Cuba'
p3275
(dp3276
g991
g1646
sg993
I4
sg994
I4
sg995
S'walking Cuba'
p3277
sg997
F1.0
ssS'exploring <dobj>'
p3278
(dp3279
S'subj_freq'
p3280
I1
sS'freq'
p3281
I1
sS'type'
p3282
S'dobj'
p3283
sS'display'
p3284
S'exploring'
p3285
sS'prob'
p3286
F1.0
ssS'done to reduced <dobj>'
p3287
(dp3288
g969
I3
sg970
I3
sg971
S'dobj'
p3289
sg973
S'done to reduced'
p3290
sg975
F1.0
ssS'<subj> creating structures'
p3291
(dp3292
g1677
I9
sg1678
I9
sg1679
g1680
sg1681
S'creating structures'
p3293
sg1683
F1.0
ssS'<subj> be explored'
p3294
(dp3295
g39
I9
sg40
I9
sg41
g473
sg43
S'be explored'
p3296
sg45
F1.0
ssS'needed to teach <dobj>'
p3297
(dp3298
g490
g2192
sg492
I21
sg493
I21
sg494
S'needed to teach'
p3299
sg496
F1.0
ssS'reduced <dobj>'
p3300
(dp3301
g969
I3
sg970
I3
sg971
g3289
sg973
S'reduced'
p3302
sg975
F1.0
ssS'<subj> see lot'
p3303
(dp3304
g311
I21
sg312
I21
sg313
g314
sg315
S'see lot'
p3305
sg317
F1.0
ssS'<subj> originated'
p3306
(dp3307
g3
g4
sg5
I1
sg6
I1
sg7
S'originated'
p3308
sg9
F1.0
ssS'<subj> participating'
p3309
(dp3310
g1883
I2
sg1884
I2
sg1885
S'subj'
p3311
sg1887
S'participating'
p3312
sg1889
F1.0
ssS'<subj> explains'
p3313
(dp3314
g88
g1139
sg90
I42
sg91
I42
sg92
S'explains'
p3315
sg94
F1.0
ssS'<subj> distinguished'
p3316
(dp3317
g2202
I2
sg2203
I2
sg2204
g2205
sg2206
S'distinguished'
p3318
sg2208
F1.0
ssS'<subj> bless'
p3319
(dp3320
g390
g1399
sg392
I9
sg393
I9
sg394
S'bless'
p3321
sg396
F1.0
ssS'attached <dobj>'
p3322
(dp3323
g3074
S'dobj'
p3324
sg3076
I6
sg3077
I6
sg3078
S'attached'
p3325
sg3080
F1.0
ssS'<subj> open'
p3326
(dp3327
g1914
g2378
sg1916
I4
sg1917
I4
sg1918
S'open'
p3328
sg1920
F1.0
ssS'saw education by <np>'
p3329
(dp3330
g749
S'np'
p3331
sg751
I7
sg752
I7
sg753
S'saw education by'
p3332
sg755
F1.0
ssS'<subj> was knew'
p3333
(dp3334
g119
g120
sg121
I7
sg122
I7
sg123
S'was knew'
p3335
sg125
F1.0
ssS'<subj> ensure'
p3336
(dp3337
g582
g1247
sg584
I20
sg585
I20
sg586
S'ensure'
p3338
sg588
F1.0
ssS'<subj> brings faith'
p3339
(dp3340
g3223
I1
sg3224
I1
sg3225
g3226
sg3227
S'brings faith'
p3341
sg3229
F1.0
ssS'wants <dobj>'
p3342
(dp3343
g1753
S'dobj'
p3344
sg1755
I7
sg1756
I7
sg1757
S'wants'
p3345
sg1759
F1.0
ssS'learn <dobj>'
p3346
(dp3347
g642
S'dobj'
p3348
sg644
I9
sg645
I9
sg646
S'learn'
p3349
sg648
F1.0
ssS'sun at <np>'
p3350
(dp3351
g856
S'np'
p3352
sg858
I1
sg859
I1
sg860
S'sun at'
p3353
sg862
F1.0
ssS'preserving <dobj>'
p3354
(dp3355
g2414
I2
sg2415
I2
sg2416
S'dobj'
p3356
sg2418
S'preserving'
p3357
sg2420
F1.0
ssS'evaluate <dobj>'
p3358
(dp3359
S'type'
p3360
S'dobj'
p3361
sS'freq'
p3362
I2
sS'subj_freq'
p3363
I2
sS'display'
p3364
S'evaluate'
p3365
sS'prob'
p3366
F1.0
ssS'<subj> realize'
p3367
(dp3368
g991
g1646
sg993
I4
sg994
I4
sg995
S'realize'
p3369
sg997
F1.0
ssS'<subj> witnessed'
p3370
(dp3371
g57
I9
sg58
I9
sg59
g1006
sg61
S'witnessed'
p3372
sg63
F1.0
ssS'surprised <dobj>'
p3373
(dp3374
g3
g1433
sg5
I1
sg6
I1
sg7
S'surprised'
p3375
sg9
F1.0
ssS'to accepted <dobj>'
p3376
(dp3377
g1023
I7
sg1024
I7
sg1025
g1026
sg1027
S'to accepted'
p3378
sg1029
F1.0
ssS'<subj> feel'
p3379
(dp3380
g2994
g2995
sg2996
I40
sg2997
I40
sg2998
S'feel'
p3381
sg3000
F1.0
ssS'agree <dobj>'
p3382
(dp3383
g1046
S'dobj'
p3384
sg1048
I1
sg1049
I1
sg1050
S'agree'
p3385
sg1052
F1.0
ssS'end <dobj>'
p3386
(dp3387
g2244
S'dobj'
p3388
sg2246
I3
sg2247
I3
sg2248
S'end'
p3389
sg2250
F1.0
ssS'<subj> need to try'
p3390
(dp3391
S'subj_freq'
p3392
I23
sS'freq'
p3393
I23
sS'type'
p3394
S'subj'
p3395
sS'display'
p3396
S'need to try'
p3397
sS'prob'
p3398
F1.0
ssS'win <dobj>'
p3399
(dp3400
g2798
I4
sg2799
I4
sg2800
g2801
sg2802
S'win'
p3401
sg2804
F1.0
ssS'<subj> standing rows'
p3402
(dp3403
g2649
I2
sg2650
I2
sg2651
S'subj'
p3404
sg2653
S'standing rows'
p3405
sg2655
F1.0
ssS'<subj> make friends'
p3406
(dp3407
S'type'
p3408
S'subj'
p3409
sS'freq'
p3410
I1
sS'subj_freq'
p3411
I1
sS'display'
p3412
S'make friends'
p3413
sS'prob'
p3414
F1.0
ssS'<subj> considered'
p3415
(dp3416
S'type'
p3417
S'subj'
p3418
sS'freq'
p3419
I2
sS'subj_freq'
p3420
I2
sS'display'
p3421
S'considered'
p3422
sS'prob'
p3423
F1.0
ssS'<subj> listening to stop'
p3424
(dp3425
g939
I21
sg940
I21
sg941
g1598
sg943
S'listening to stop'
p3426
sg945
F1.0
ssS'<subj> think opportunity'
p3427
(dp3428
g1081
I7
sg1082
I7
sg1083
g1084
sg1085
S'think opportunity'
p3429
sg1087
F1.0
ssS'<subj> delighted'
p3430
(dp3431
g1825
g1826
sg1827
I1
sg1828
I1
sg1829
S'delighted'
p3432
sg1831
F1.0
ssS'cool <dobj>'
p3433
(dp3434
g2339
g2340
sg2341
I1
sg2342
I1
sg2343
S'cool'
p3435
sg2345
F1.0
ssS'<subj> be undone'
p3436
(dp3437
g266
I21
sg267
I21
sg268
g269
sg270
S'be undone'
p3438
sg272
F1.0
ssS'think to think <dobj>'
p3439
(dp3440
g2563
g3253
sg2565
I9
sg2566
I9
sg2567
S'think to think'
p3441
sg2569
F1.0
ssS'soldiers for <np>'
p3442
(dp3443
S'subj_freq'
p3444
I1
sS'freq'
p3445
I1
sS'type'
p3446
S'np'
p3447
sS'display'
p3448
S'soldiers for'
p3449
sS'prob'
p3450
F1.0
ssS'<subj> have canvas'
p3451
(dp3452
g1198
g2645
sg1200
I1
sg1201
I1
sg1202
S'have canvas'
p3453
sg1204
F1.0
ssS'start <dobj>'
p3454
(dp3455
S'type'
p3456
S'dobj'
p3457
sS'freq'
p3458
I7
sS'subj_freq'
p3459
I7
sS'display'
p3460
S'start'
p3461
sS'prob'
p3462
F1.0
ssS'fly <dobj>'
p3463
(dp3464
g2948
I11
sg2949
I11
sg2950
S'dobj'
p3465
sg2952
S'fly'
p3466
sg2954
F1.0
ssS'<subj> governing'
p3467
(dp3468
g266
I21
sg267
I21
sg268
g269
sg270
S'governing'
p3469
sg272
F1.0
ssS'<subj> prevent terrorism'
p3470
(dp3471
g865
g2122
sg867
I21
sg868
I21
sg869
S'prevent terrorism'
p3472
sg871
F1.0
ssS'inaugurated <dobj>'
p3473
(dp3474
g1511
S'dobj'
p3475
sg1513
I6
sg1514
I3
sg1515
S'inaugurated'
p3476
sg1517
F0.5
ssS'<subj> have reason'
p3477
(dp3478
g917
g918
sg919
I6
sg920
I6
sg921
S'have reason'
p3479
sg923
F1.0
ssS'<subj> hit'
p3480
(dp3481
g1740
g2572
sg1742
I21
sg1743
I21
sg1744
S'hit'
p3482
sg1746
F1.0
ssS'<subj> take dancers'
p3483
(dp3484
S'type'
p3485
S'subj'
p3486
sS'freq'
p3487
I1
sS'subj_freq'
p3488
I1
sS'display'
p3489
S'take dancers'
p3490
sS'prob'
p3491
F1.0
ssS'<subj> presents creation'
p3492
(dp3493
S'subj_freq'
p3494
I1
sS'freq'
p3495
I1
sS'type'
p3496
S'subj'
p3497
sS'display'
p3498
S'presents creation'
p3499
sS'prob'
p3500
F1.0
ssS'tapping <dobj>'
p3501
(dp3502
S'type'
p3503
S'dobj'
p3504
sS'freq'
p3505
I1
sS'subj_freq'
p3506
I0
sS'display'
p3507
S'tapping'
p3508
sS'prob'
p3509
F0.0
ssS'offers <dobj>'
p3510
(dp3511
S'subj_freq'
p3512
I5
sS'freq'
p3513
I6
sS'type'
p3514
S'dobj'
p3515
sS'display'
p3516
S'offers'
p3517
sS'prob'
p3518
F0.8333333333333334
ssS'name from <np>'
p3519
(dp3520
g2878
S'np'
p3521
sg2880
I2
sg2881
I0
sg2882
S'name from'
p3522
sg2884
F0.0
ssS'<subj> keep'
p3523
(dp3524
g1965
g2008
sg1967
I10
sg1968
I10
sg1969
S'keep'
p3525
sg1971
F1.0
ssS'enchant <dobj>'
p3526
(dp3527
S'type'
p3528
S'dobj'
p3529
sS'freq'
p3530
I1
sS'subj_freq'
p3531
I1
sS'display'
p3532
S'enchant'
p3533
sS'prob'
p3534
F1.0
ssS'<subj> designed'
p3535
(dp3536
g633
S'subj'
p3537
sg635
I2
sg636
I2
sg637
S'designed'
p3538
sg639
F1.0
ssS'passion for <np>'
p3539
(dp3540
S'subj_freq'
p3541
I2
sS'freq'
p3542
I2
sS'type'
p3543
S'np'
p3544
sS'display'
p3545
S'passion for'
p3546
sS'prob'
p3547
F1.0
ssS'<subj> send'
p3548
(dp3549
g1155
I1
sg1156
I1
sg1157
g1158
sg1159
S'send'
p3550
sg1161
F1.0
ssS'<subj> stand'
p3551
(dp3552
g342
S'subj'
p3553
sg344
I22
sg345
I22
sg346
S'stand'
p3554
sg348
F1.0
ssS'<subj> giving'
p3555
(dp3556
g3160
I2
sg3161
I2
sg3162
S'subj'
p3557
sg3164
S'giving'
p3558
sg3166
F1.0
ssS'<subj> thinks'
p3559
(dp3560
g57
I9
sg58
I9
sg59
g1006
sg61
S'thinks'
p3561
sg63
F1.0
ssS'<subj> have problem'
p3562
(dp3563
g408
I4
sg409
I4
sg410
g411
sg412
S'have problem'
p3564
sg414
F1.0
ssS'giving <dobj>'
p3565
(dp3566
g3160
I2
sg3161
I2
sg3162
g3163
sg3164
S'giving'
p3567
sg3166
F1.0
ssS'is known for <np>'
p3568
(dp3569
S'type'
p3570
S'np'
p3571
sS'freq'
p3572
I2
sS'subj_freq'
p3573
I2
sS'display'
p3574
S'is known for'
p3575
sS'prob'
p3576
F1.0
ssS'returned <dobj>'
p3577
(dp3578
g2450
S'dobj'
p3579
sg2452
I1
sg2453
I1
sg2454
S'returned'
p3580
sg2456
F1.0
ssS'<subj> was designed'
p3581
(dp3582
g709
g710
sg711
I1
sg712
I1
sg713
S'was designed'
p3583
sg715
F1.0
ssS'<subj> attached'
p3584
(dp3585
g3074
g3075
sg3076
I6
sg3077
I6
sg3078
S'attached'
p3586
sg3080
F1.0
ssS'<subj> required wealth'
p3587
(dp3588
g97
I7
sg98
I7
sg99
g100
sg101
S'required wealth'
p3589
sg103
F1.0
ssS'<subj> be attributed'
p3590
(dp3591
g438
g542
sg440
I7
sg441
I7
sg442
S'be attributed'
p3592
sg444
F1.0
ssS'visit <dobj>'
p3593
(dp3594
g1777
I9
sg1778
I9
sg1779
S'dobj'
p3595
sg1781
S'visit'
p3596
sg1783
F1.0
ssS'<subj> analyze'
p3597
(dp3598
g582
g1247
sg584
I19
sg585
I19
sg586
S'analyze'
p3599
sg588
F1.0
ssS'<subj> guess'
p3600
(dp3601
g3151
I3
sg3152
I4
sg3153
S'subj'
p3602
sg3155
S'guess'
p3603
sg3157
F0.75
ssS'<subj> awaiting'
p3604
(dp3605
g2226
I1
sg2227
I1
sg2228
S'subj'
p3606
sg2230
S'awaiting'
p3607
sg2232
F1.0
ssV<subj> watched
p3608
(dp3609
g1289
g1290
sg1291
I2
sg1292
I2
sg1293
Vwatched
p3610
sg1295
F1.0
ssS'<subj> shining'
p3611
(dp3612
g146
g815
sg148
I1
sg149
I1
sg150
S'shining'
p3613
sg152
F1.0
ssS'<subj> reduced'
p3614
(dp3615
g969
I3
sg970
I3
sg971
g972
sg973
S'reduced'
p3616
sg975
F1.0
ssS'yard at <np>'
p3617
(dp3618
g2360
I1
sg2361
I1
sg2362
S'np'
p3619
sg2364
S'yard at'
p3620
sg2366
F1.0
ssS'<subj> exhibits works'
p3621
(dp3622
g1352
I1
sg1353
I1
sg1354
g1355
sg1356
S'exhibits works'
p3623
sg1358
F1.0
ssS'<subj> hidden sort'
p3624
(dp3625
g991
g1646
sg993
I4
sg994
I4
sg995
S'hidden sort'
p3626
sg997
F1.0
ssS'relax <dobj>'
p3627
(dp3628
g1768
I2
sg1769
I2
sg1770
S'dobj'
p3629
sg1772
S'relax'
p3630
sg1774
F1.0
ssS'wish <dobj>'
p3631
(dp3632
S'subj_freq'
p3633
I32
sS'freq'
p3634
I32
sS'type'
p3635
S'dobj'
p3636
sS'display'
p3637
S'wish'
p3638
sS'prob'
p3639
F1.0
ssS'<subj> wish'
p3640
(dp3641
g3633
I32
sg3634
I32
sg3635
S'subj'
p3642
sg3637
S'wish'
p3643
sg3639
F1.0
ssS'<subj> displaying'
p3644
(dp3645
g694
S'subj'
p3646
sg696
I2
sg697
I2
sg698
S'displaying'
p3647
sg700
F1.0
ssS'<subj> start b'
p3648
(dp3649
g3456
S'subj'
p3650
sg3458
I6
sg3459
I6
sg3460
S'start b'
p3651
sg3462
F1.0
ssS'<subj> making senses'
p3652
(dp3653
g3074
g3075
sg3076
I6
sg3077
I6
sg3078
S'making senses'
p3654
sg3080
F1.0
ssS'preserve <dobj>'
p3655
(dp3656
g1937
S'dobj'
p3657
sg1939
I21
sg1940
I21
sg1941
S'preserve'
p3658
sg1943
F1.0
ssS'killing <dobj>'
p3659
(dp3660
g2450
g3579
sg2452
I1
sg2453
I1
sg2454
S'killing'
p3661
sg2456
F1.0
ssS'seeing <dobj>'
p3662
(dp3663
g1081
I7
sg1082
I7
sg1083
S'dobj'
p3664
sg1085
S'seeing'
p3665
sg1087
F1.0
ssS'<subj> having'
p3666
(dp3667
g2487
S'subj'
p3668
sg2489
I8
sg2490
I8
sg2491
S'having'
p3669
sg2493
F1.0
ssS'<subj> according studies'
p3670
(dp3671
g97
I7
sg98
I7
sg99
g100
sg101
S'according studies'
p3672
sg103
F1.0
ssS'construct <dobj>'
p3673
(dp3674
g2326
I0
sg2327
I21
sg2328
S'dobj'
p3675
sg2330
S'construct'
p3676
sg2332
F0.0
ssS'<subj> saw'
p3677
(dp3678
g749
g750
sg751
I7
sg752
I7
sg753
S'saw'
p3679
sg755
F1.0
ssS'legacy with <np>'
p3680
(dp3681
g2620
S'np'
p3682
sg2622
I4
sg2623
I4
sg2624
S'legacy with'
p3683
sg2626
F1.0
ssS'seem <dobj>'
p3684
(dp3685
S'subj_freq'
p3686
I7
sS'freq'
p3687
I7
sS'type'
p3688
S'dobj'
p3689
sS'display'
p3690
S'seem'
p3691
sS'prob'
p3692
F1.0
ssS'delighted <dobj>'
p3693
(dp3694
g1825
S'dobj'
p3695
sg1827
I1
sg1828
I1
sg1829
S'delighted'
p3696
sg1831
F1.0
ssS'grown <dobj>'
p3697
(dp3698
g2052
S'dobj'
p3699
sg2054
I1
sg2055
I1
sg2056
S'grown'
p3700
sg2058
F1.0
ssS'added <dobj>'
p3701
(dp3702
g137
I5
sg138
I6
sg139
S'dobj'
p3703
sg141
S'added'
p3704
sg143
F0.8333333333333334
ssS'<subj> bringing power'
p3705
(dp3706
S'type'
p3707
S'subj'
p3708
sS'freq'
p3709
I23
sS'subj_freq'
p3710
I23
sS'display'
p3711
S'bringing power'
p3712
sS'prob'
p3713
F1.0
ssS'speak <dobj>'
p3714
(dp3715
S'type'
p3716
S'dobj'
p3717
sS'freq'
p3718
I7
sS'subj_freq'
p3719
I7
sS'display'
p3720
S'speak'
p3721
sS'prob'
p3722
F1.0
ssS'involves use of <np>'
p3723
(dp3724
S'type'
p3725
S'np'
p3726
sS'freq'
p3727
I2
sS'subj_freq'
p3728
I2
sS'display'
p3729
S'involves use of'
p3730
sS'prob'
p3731
F1.0
ssS'sites from <np>'
p3732
(dp3733
g3151
I2
sg3152
I2
sg3153
S'np'
p3734
sg3155
S'sites from'
p3735
sg3157
F1.0
ssS'<subj> find scene'
p3736
(dp3737
g2649
I2
sg2650
I2
sg2651
g3404
sg2653
S'find scene'
p3738
sg2655
F1.0
ssS'pays <dobj>'
p3739
(dp3740
g137
I4
sg138
I4
sg139
g3703
sg141
S'pays'
p3741
sg143
F1.0
ssS'<subj> had sort'
p3742
(dp3743
g991
g1646
sg993
I4
sg994
I4
sg995
S'had sort'
p3744
sg997
F1.0
ssS'<subj> presents'
p3745
(dp3746
S'type'
p3747
S'subj'
p3748
sS'freq'
p3749
I3
sS'subj_freq'
p3750
I3
sS'display'
p3751
S'presents'
p3752
sS'prob'
p3753
F1.0
ssS'<subj> announce winner'
p3754
(dp3755
g3360
S'subj'
p3756
sg3362
I2
sg3363
I2
sg3364
S'announce winner'
p3757
sg3366
F1.0
ssS'<subj> want'
p3758
(dp3759
g1650
I49
sg1651
I49
sg1652
g1653
sg1654
S'want'
p3760
sg1656
F1.0
ssS'<subj> announce'
p3761
(dp3762
g3360
g3756
sg3362
I2
sg3363
I2
sg3364
S'announce'
p3763
sg3366
F1.0
ssS'styles of <np>'
p3764
(dp3765
g3198
S'np'
p3766
sg3200
I1
sg3201
I0
sg3202
S'styles of'
p3767
sg3204
F0.0
ssS'given <dobj>'
p3768
(dp3769
g740
S'dobj'
p3770
sg742
I10
sg743
I10
sg744
S'given'
p3771
sg746
F1.0
ssS'<subj> learned'
p3772
(dp3773
g533
I13
sg534
I13
sg535
g536
sg537
S'learned'
p3774
sg539
F1.0
ssS'realize <dobj>'
p3775
(dp3776
g991
g992
sg993
I4
sg994
I4
sg995
S'realize'
p3777
sg997
F1.0
ssS'<subj> varied'
p3778
(dp3779
S'type'
p3780
S'subj'
p3781
sS'freq'
p3782
I3
sS'subj_freq'
p3783
I3
sS'display'
p3784
S'varied'
p3785
sS'prob'
p3786
F1.0
ssS'<subj> spot'
p3787
(dp3788
g3160
I1
sg3161
I1
sg3162
g3557
sg3164
S'spot'
p3789
sg3166
F1.0
ssS'<subj> agree'
p3790
(dp3791
g1046
S'subj'
p3792
sg1048
I1
sg1049
I1
sg1050
S'agree'
p3793
sg1052
F1.0
ssS'<subj> struck'
p3794
(dp3795
S'subj_freq'
p3796
I21
sS'freq'
p3797
I21
sS'type'
p3798
S'subj'
p3799
sS'display'
p3800
S'struck'
p3801
sS'prob'
p3802
F1.0
ssV<subj> blown
p3803
(dp3804
g1289
g1290
sg1291
I2
sg1292
I2
sg1293
Vblown
p3805
sg1295
F1.0
ssS'explained <dobj>'
p3806
(dp3807
g2948
I9
sg2949
I9
sg2950
g3465
sg2952
S'explained'
p3808
sg2954
F1.0
ssS'<subj> places'
p3809
(dp3810
g770
g771
sg772
I4
sg773
I4
sg774
S'places'
p3811
sg776
F1.0
ssS"<subj> 're"
p3812
(dp3813
g106
I55
sg107
I55
sg108
g486
sg110
S"'re"
p3814
sg112
F1.0
ssS'<subj> carved stone'
p3815
(dp3816
g2139
I0
sg2140
I1
sg2141
g2142
sg2143
S'carved stone'
p3817
sg2145
F0.0
ssS'flying <dobj>'
p3818
(dp3819
S'type'
p3820
S'dobj'
p3821
sS'freq'
p3822
I1
sS'subj_freq'
p3823
I1
sS'display'
p3824
S'flying'
p3825
sS'prob'
p3826
F1.0
ssS'<subj> stay food'
p3827
(dp3828
g841
g842
sg843
I1
sg844
I1
sg845
S'stay food'
p3829
sg847
F1.0
ssS'<subj> amazed Festival'
p3830
(dp3831
g324
g325
sg326
I2
sg327
I2
sg328
S'amazed Festival'
p3832
sg330
F1.0
ssS'need to told <dobj>'
p3833
(dp3834
g221
I19
sg222
I19
sg223
g3266
sg225
S'need to told'
p3835
sg227
F1.0
ssS'built <dobj>'
p3836
(dp3837
S'subj_freq'
p3838
I1
sS'freq'
p3839
I4
sS'type'
p3840
S'dobj'
p3841
sS'display'
p3842
S'built'
p3843
sS'prob'
p3844
F0.25
ssS'led <dobj>'
p3845
(dp3846
g779
I9
sg780
I9
sg781
g1749
sg783
S'led'
p3847
sg785
F1.0
ssS'to need <dobj>'
p3848
(dp3849
S'subj_freq'
p3850
I1
sS'freq'
p3851
I1
sS'type'
p3852
S'dobj'
p3853
sS'display'
p3854
S'to need'
p3855
sS'prob'
p3856
F1.0
ssS'<subj> involves'
p3857
(dp3858
g1589
I3
sg1590
I3
sg1591
S'subj'
p3859
sg1593
S'involves'
p3860
sg1595
F1.0
ssS'<subj> need to remember'
p3861
(dp3862
g2829
S'subj'
p3863
sg2831
I6
sg2832
I6
sg2833
S'need to remember'
p3864
sg2835
F1.0
ssS'left <dobj>'
p3865
(dp3866
g1668
S'dobj'
p3867
sg1670
I11
sg1671
I11
sg1672
S'left'
p3868
sg1674
F1.0
ssS'<subj> is gave'
p3869
(dp3870
g1081
I7
sg1082
I7
sg1083
g1084
sg1085
S'is gave'
p3871
sg1087
F1.0
ssS'decides <dobj>'
p3872
(dp3873
g3257
S'dobj'
p3874
sg3259
I9
sg3260
I9
sg3261
S'decides'
p3875
sg3263
F1.0
ssS'<subj> making'
p3876
(dp3877
g1437
g1549
sg1439
I34
sg1440
I34
sg1441
S'making'
p3878
sg1443
F1.0
ssS'<subj> changing'
p3879
(dp3880
g39
I10
sg40
I10
sg41
g473
sg43
S'changing'
p3881
sg45
F1.0
ssS'<subj> stop'
p3882
(dp3883
g939
I21
sg940
I21
sg941
g1598
sg943
S'stop'
p3884
sg945
F1.0
ssS'<subj> done'
p3885
(dp3886
g1498
I11
sg1499
I11
sg1500
g1501
sg1502
S'done'
p3887
sg1504
F1.0
ssS'spot <dobj>'
p3888
(dp3889
g3160
I1
sg3161
I1
sg3162
g3163
sg3164
S'spot'
p3890
sg3166
F1.0
ssS'to remind <dobj>'
p3891
(dp3892
g1865
S'dobj'
p3893
sg1867
I4
sg1868
I4
sg1869
S'to remind'
p3894
sg1871
F1.0
ssS'<subj> please details'
p3895
(dp3896
S'type'
p3897
S'subj'
p3898
sS'freq'
p3899
I2
sS'subj_freq'
p3900
I2
sS'display'
p3901
S'please details'
p3902
sS'prob'
p3903
F1.0
ssS'<subj> wanted'
p3904
(dp3905
g1710
I7
sg1711
I7
sg1712
g2382
sg1714
S'wanted'
p3906
sg1716
F1.0
ssS'<subj> see things'
p3907
(dp3908
g342
g3553
sg344
I21
sg345
I21
sg346
S'see things'
p3909
sg348
F1.0
ssS'<subj> walking'
p3910
(dp3911
g991
g1646
sg993
I4
sg994
I4
sg995
S'walking'
p3912
sg997
F1.0
ssS'connected <dobj>'
p3913
(dp3914
g106
I25
sg107
I25
sg108
g109
sg110
S'connected'
p3915
sg112
F1.0
ssS'<subj> please experience'
p3916
(dp3917
S'subj_freq'
p3918
I2
sS'freq'
p3919
I2
sS'type'
p3920
S'subj'
p3921
sS'display'
p3922
S'please experience'
p3923
sS'prob'
p3924
F1.0
ssS'<subj> are depressed'
p3925
(dp3926
g311
I21
sg312
I21
sg313
g314
sg315
S'are depressed'
p3927
sg317
F1.0
ssS'<subj> make fluctuations'
p3928
(dp3929
g582
g1247
sg584
I19
sg585
I19
sg586
S'make fluctuations'
p3930
sg588
F1.0
ssS'fill <dobj>'
p3931
(dp3932
g30
I2
sg31
I2
sg32
S'dobj'
p3933
sg34
S'fill'
p3934
sg36
F1.0
ssS'<subj> getting proportion'
p3935
(dp3936
g1450
S'subj'
p3937
sg1452
I7
sg1453
I7
sg1454
S'getting proportion'
p3938
sg1456
F1.0
ssS'listening to stop <dobj>'
p3939
(dp3940
g939
I21
sg940
I21
sg941
g2632
sg943
S'listening to stop'
p3941
sg945
F1.0
ssS'to arrive <dobj>'
p3942
(dp3943
g2936
g2937
sg2938
I7
sg2939
I7
sg2940
S'to arrive'
p3944
sg2942
F1.0
ssS'<subj> win stand'
p3945
(dp3946
g1786
I2
sg1787
I2
sg1788
g1789
sg1790
S'win stand'
p3947
sg1792
F1.0
ssS'<subj> feel conclusion'
p3948
(dp3949
g2994
g2995
sg2996
I25
sg2997
I25
sg2998
S'feel conclusion'
p3950
sg3000
F1.0
ssS'<subj> classified'
p3951
(dp3952
S'subj_freq'
p3953
I0
sS'freq'
p3954
I1
sS'type'
p3955
S'subj'
p3956
sS'display'
p3957
S'classified'
p3958
sS'prob'
p3959
F0.0
ssS'<subj> taking breeze'
p3960
(dp3961
g1459
I2
sg1460
I2
sg1461
S'subj'
p3962
sg1463
S'taking breeze'
p3963
sg1465
F1.0
ssS'<subj> returned'
p3964
(dp3965
g2450
g2451
sg2452
I1
sg2453
I1
sg2454
S'returned'
p3966
sg2456
F1.0
ssS'to enjoy <dobj>'
p3967
(dp3968
S'type'
p3969
S'dobj'
p3970
sS'freq'
p3971
I1
sS'subj_freq'
p3972
I1
sS'display'
p3973
S'to enjoy'
p3974
sS'prob'
p3975
F1.0
ssS'<subj> lost'
p3976
(dp3977
g1121
I55
sg1122
I55
sg1123
S'subj'
p3978
sg1125
S'lost'
p3979
sg1127
F1.0
ssS'<subj> has tourist'
p3980
(dp3981
g1914
g2378
sg1916
I4
sg1917
I4
sg1918
S'has tourist'
p3982
sg1920
F1.0
ssS'<subj> bathing'
p3983
(dp3984
g1339
I0
sg1340
I1
sg1341
g2479
sg1343
S'bathing'
p3985
sg1345
F0.0
ssS'carved <dobj>'
p3986
(dp3987
g2139
I0
sg2140
I1
sg2141
S'dobj'
p3988
sg2143
S'carved'
p3989
sg2145
F0.0
ssS'<subj> conserve'
p3990
(dp3991
g1615
S'subj'
p3992
sg1617
I4
sg1618
I4
sg1619
S'conserve'
p3993
sg1621
F1.0
ssS'<subj> depressed youngsters'
p3994
(dp3995
g311
I21
sg312
I21
sg313
g314
sg315
S'depressed youngsters'
p3996
sg317
F1.0
ssS'to ensure <dobj>'
p3997
(dp3998
g582
g583
sg584
I19
sg585
I19
sg586
S'to ensure'
p3999
sg588
F1.0
ssS'struck <dobj>'
p4000
(dp4001
g3796
I21
sg3797
I21
sg3798
S'dobj'
p4002
sg3800
S'struck'
p4003
sg3802
F1.0
ssS'learning <dobj>'
p4004
(dp4005
g2757
I8
sg2758
I8
sg2759
S'dobj'
p4006
sg2761
S'learning'
p4007
sg2763
F1.0
ssS'<subj> restored time'
p4008
(dp4009
g2785
g2786
sg2787
I2
sg2788
I2
sg2789
S'restored time'
p4010
sg2791
F1.0
ssS'started <dobj>'
p4011
(dp4012
g1277
S'dobj'
p4013
sg1279
I2
sg1280
I0
sg1281
S'started'
p4014
sg1283
F0.0
ssS'<subj> have are waste'
p4015
(dp4016
g917
g918
sg919
I6
sg920
I6
sg921
S'have are waste'
p4017
sg923
F1.0
ssS'<subj> cheat'
p4018
(dp4019
g57
I18
sg58
I18
sg59
g1006
sg61
S'cheat'
p4020
sg63
F1.0
ssS'deserves to fill <dobj>'
p4021
(dp4022
g212
g213
sg214
I7
sg215
I7
sg216
S'deserves to fill'
p4023
sg218
F1.0
ssS'bring <dobj>'
p4024
(dp4025
g1373
I3
sg1374
I3
sg1375
S'dobj'
p4026
sg1377
S'bring'
p4027
sg1379
F1.0
ssS'<subj> meets breadth'
p4028
(dp4029
g1799
I2
sg1800
I2
sg1801
S'subj'
p4030
sg1803
S'meets breadth'
p4031
sg1805
F1.0
ssS'<subj> sharing God'
p4032
(dp4033
g390
g1399
sg392
I7
sg393
I7
sg394
S'sharing God'
p4034
sg396
F1.0
ssS'<subj> learned to play'
p4035
(dp4036
g991
g1646
sg993
I4
sg994
I4
sg995
S'learned to play'
p4037
sg997
F1.0
ssS'<subj> know crops'
p4038
(dp4039
g819
I9
sg820
I9
sg821
g822
sg823
S'know crops'
p4040
sg825
F1.0
ssS'<subj> deserves to fill'
p4041
(dp4042
g212
S'subj'
p4043
sg214
I7
sg215
I7
sg216
S'deserves to fill'
p4044
sg218
F1.0
ssS'<subj> unveiled'
p4045
(dp4046
g612
I10
sg613
I10
sg614
g615
sg616
S'unveiled'
p4047
sg618
F1.0
ssS'to see <dobj>'
p4048
(dp4049
g624
g625
sg626
I50
sg627
I50
sg628
S'to see'
p4050
sg630
F1.0
ssS'to creating <dobj>'
p4051
(dp4052
g1677
I9
sg1678
I9
sg1679
S'dobj'
p4053
sg1681
S'to creating'
p4054
sg1683
F1.0
ssS'<subj> dedicated'
p4055
(dp4056
g654
g655
sg656
I3
sg657
I3
sg658
S'dedicated'
p4057
sg660
F1.0
ssS'leads <dobj>'
p4058
(dp4059
g564
I21
sg565
I22
sg566
g1545
sg568
S'leads'
p4060
sg570
F0.9545454545454546
ssS'<subj> apply'
p4061
(dp4062
g667
I9
sg668
I9
sg669
g670
sg671
S'apply'
p4063
sg673
F1.0
ssS'<subj> being'
p4064
(dp4065
g1559
S'subj'
p4066
sg1561
I21
sg1562
I21
sg1563
S'being'
p4067
sg1565
F1.0
ssS'<subj> want to hold'
p4068
(dp4069
g164
I7
sg165
I7
sg166
g167
sg168
S'want to hold'
p4070
sg170
F1.0
ssS'spent <dobj>'
p4071
(dp4072
g221
I19
sg222
I19
sg223
g3266
sg225
S'spent'
p4073
sg227
F1.0
ssS'kind with <np>'
p4074
(dp4075
g633
S'np'
p4076
sg635
I1
sg636
I1
sg637
S'kind with'
p4077
sg639
F1.0
ssS'<subj> received'
p4078
(dp4079
g1659
I2
sg1660
I2
sg1661
g1662
sg1663
S'received'
p4080
sg1665
F1.0
ssS'<subj> describe'
p4081
(dp4082
S'subj_freq'
p4083
I7
sS'freq'
p4084
I7
sS'type'
p4085
S'subj'
p4086
sS'display'
p4087
S'describe'
p4088
sS'prob'
p4089
F1.0
ssS'<subj> governing ruling'
p4090
(dp4091
g266
I21
sg267
I21
sg268
g269
sg270
S'governing ruling'
p4092
sg272
F1.0
ssS'<subj> evaluate'
p4093
(dp4094
g3360
g3756
sg3362
I2
sg3363
I2
sg3364
S'evaluate'
p4095
sg3366
F1.0
ssS'sending <dobj>'
p4096
(dp4097
g464
g465
sg466
I7
sg467
I7
sg468
S'sending'
p4098
sg470
F1.0
ssS'buds after <np>'
p4099
(dp4100
S'type'
p4101
S'np'
p4102
sS'freq'
p4103
I1
sS'subj_freq'
p4104
I1
sS'display'
p4105
S'buds after'
p4106
sS'prob'
p4107
F1.0
ssVposted <dobj>
p4108
(dp4109
g1289
g1633
sg1291
I2
sg1292
I2
sg1293
Vposted
p4110
sg1295
F1.0
ssS'writing <dobj>'
p4111
(dp4112
g2466
I1
sg2467
I1
sg2468
g3194
sg2470
S'writing'
p4113
sg2472
F1.0
ssS'<subj> fell sun'
p4114
(dp4115
g709
g710
sg711
I1
sg712
I1
sg713
S'fell sun'
p4116
sg715
F1.0
ssS'<subj> see railing'
p4117
(dp4118
S'type'
p4119
S'subj'
p4120
sS'freq'
p4121
I1
sS'subj_freq'
p4122
I1
sS'display'
p4123
S'see railing'
p4124
sS'prob'
p4125
F1.0
ssS'wrecked <dobj>'
p4126
(dp4127
g969
I3
sg970
I3
sg971
g3289
sg973
S'wrecked'
p4128
sg975
F1.0
ssS'delight while <np>'
p4129
(dp4130
S'subj_freq'
p4131
I1
sS'freq'
p4132
I1
sS'type'
p4133
S'np'
p4134
sS'display'
p4135
S'delight while'
p4136
sS'prob'
p4137
F1.0
ssS'raise <dobj>'
p4138
(dp4139
g908
S'dobj'
p4140
sg910
I4
sg911
I4
sg912
S'raise'
p4141
sg914
F1.0
ssS'to offer <dobj>'
p4142
(dp4143
g1677
I9
sg1678
I9
sg1679
g4053
sg1681
S'to offer'
p4144
sg1683
F1.0
ssS'<subj> walks'
p4145
(dp4146
g146
g815
sg148
I1
sg149
I1
sg150
S'walks'
p4147
sg152
F1.0
ssS"<subj> 've age"
p4148
(dp4149
S'subj_freq'
p4150
I9
sS'freq'
p4151
I9
sS'type'
p4152
S'subj'
p4153
sS'display'
p4154
S"'ve age"
p4155
sS'prob'
p4156
F1.0
ssS'<subj> meets'
p4157
(dp4158
g1799
I5
sg1800
I5
sg1801
g4030
sg1803
S'meets'
p4159
sg1805
F1.0
ssS'quit <dobj>'
p4160
(dp4161
g731
I4
sg732
I4
sg733
g1568
sg735
S'quit'
p4162
sg737
F1.0
ssS'<subj> recommend'
p4163
(dp4164
g2167
I2
sg2168
I2
sg2169
S'subj'
p4165
sg2171
S'recommend'
p4166
sg2173
F1.0
ssS'depressed <dobj>'
p4167
(dp4168
g311
I21
sg312
I21
sg313
g926
sg315
S'depressed'
p4169
sg317
F1.0
ssS'called <dobj>'
p4170
(dp4171
g1264
I3
sg1265
I3
sg1266
S'dobj'
p4172
sg1268
S'called'
p4173
sg1270
F1.0
ssS'led book that <np>'
p4174
(dp4175
g779
I9
sg780
I9
sg781
S'np'
p4176
sg783
S'led book that'
p4177
sg785
F1.0
ssS'<subj> devoted'
p4178
(dp4179
g612
I9
sg613
I9
sg614
g615
sg616
S'devoted'
p4180
sg618
F1.0
ssS'<subj> await Gujarat'
p4181
(dp4182
g79
I2
sg80
I2
sg81
S'subj'
p4183
sg83
S'await Gujarat'
p4184
sg85
F1.0
ssS'<subj> await rhythm'
p4185
(dp4186
g79
I2
sg80
I2
sg81
g4183
sg83
S'await rhythm'
p4187
sg85
F1.0
ssS'thought <dobj>'
p4188
(dp4189
g1059
S'dobj'
p4190
sg1061
I46
sg1062
I46
sg1063
S'thought'
p4191
sg1065
F1.0
ssS'is required for <np>'
p4192
(dp4193
g97
I7
sg98
I7
sg99
S'np'
p4194
sg101
S'is required for'
p4195
sg103
F1.0
ssS'turns <dobj>'
p4196
(dp4197
g293
I3
sg294
I3
sg295
S'dobj'
p4198
sg297
S'turns'
p4199
sg299
F1.0
ssS'<subj> continue to maintain'
p4200
(dp4201
g948
g2389
sg950
I7
sg951
I7
sg952
S'continue to maintain'
p4202
sg954
F1.0
ssS'to hold <dobj>'
p4203
(dp4204
g164
I7
sg165
I7
sg166
g1611
sg168
S'to hold'
p4205
sg170
F1.0
ssS'discussed <dobj>'
p4206
(dp4207
g302
S'dobj'
p4208
sg304
I21
sg305
I21
sg306
S'discussed'
p4209
sg308
F1.0
ssS'food of <np>'
p4210
(dp4211
g2857
I0
sg2858
I1
sg2859
S'np'
p4212
sg2861
S'food of'
p4213
sg2863
F0.0
ssS'<subj> reach'
p4214
(dp4215
g106
I22
sg107
I22
sg108
g486
sg110
S'reach'
p4216
sg112
F1.0
ssS'<subj> lit'
p4217
(dp4218
g1424
I1
sg1425
I1
sg1426
g1427
sg1428
S'lit'
p4219
sg1430
F1.0
ssS'<subj> exhibiting coins'
p4220
(dp4221
g600
g601
sg602
I1
sg603
I0
sg604
S'exhibiting coins'
p4222
sg606
F0.0
ssS'<subj> feel essence'
p4223
(dp4224
S'type'
p4225
S'subj'
p4226
sS'freq'
p4227
I1
sS'subj_freq'
p4228
I1
sS'display'
p4229
S'feel essence'
p4230
sS'prob'
p4231
F1.0
ssS'<subj> flying'
p4232
(dp4233
g3820
S'subj'
p4234
sg3822
I1
sg3823
I1
sg3824
S'flying'
p4235
sg3826
F1.0
ssS'<subj> win contest'
p4236
(dp4237
g2798
I2
sg2799
I2
sg2800
S'subj'
p4238
sg2802
S'win contest'
p4239
sg2804
F1.0
ssS'<subj> call'
p4240
(dp4241
S'subj_freq'
p4242
I2
sS'freq'
p4243
I2
sS'type'
p4244
S'subj'
p4245
sS'display'
p4246
S'call'
p4247
sS'prob'
p4248
F1.0
ssS'<subj> are given'
p4249
(dp4250
g740
g741
sg742
I7
sg743
I7
sg744
S'are given'
p4251
sg746
F1.0
ssS'gave <dobj>'
p4252
(dp4253
g1081
I7
sg1082
I7
sg1083
g3664
sg1085
S'gave'
p4254
sg1087
F1.0
ssS'to exercise <dobj>'
p4255
(dp4256
g2563
g3253
sg2565
I9
sg2566
I9
sg2567
S'to exercise'
p4257
sg2569
F1.0
ssS'<subj> take country'
p4258
(dp4259
S'type'
p4260
S'subj'
p4261
sS'freq'
p4262
I2
sS'subj_freq'
p4263
I2
sS'display'
p4264
S'take country'
p4265
sS'prob'
p4266
F1.0
ssS'find <dobj>'
p4267
(dp4268
g164
I20
sg165
I20
sg166
g1611
sg168
S'find'
p4269
sg170
F1.0
ssS'<subj> belongs life'
p4270
(dp4271
g173
g174
sg175
I7
sg176
I7
sg177
S'belongs life'
p4272
sg179
F1.0
ssS'thinking process of <np>'
p4273
(dp4274
g230
S'np'
p4275
sg232
I21
sg233
I21
sg234
S'thinking process of'
p4276
sg236
F1.0
ssS'loved <dobj>'
p4277
(dp4278
g1865
g3893
sg1867
I6
sg1868
I6
sg1869
S'loved'
p4279
sg1871
F1.0
ssS'<subj> visiting clock'
p4280
(dp4281
S'type'
p4282
S'subj'
p4283
sS'freq'
p4284
I1
sS'subj_freq'
p4285
I1
sS'display'
p4286
S'visiting clock'
p4287
sS'prob'
p4288
F1.0
ssS'<subj> has life'
p4289
(dp4290
g1668
g1669
sg1670
I5
sg1671
I5
sg1672
S'has life'
p4291
sg1674
F1.0
ssS'<subj> made toys'
p4292
(dp4293
S'subj_freq'
p4294
I1
sS'freq'
p4295
I1
sS'type'
p4296
S'subj'
p4297
sS'display'
p4298
S'made toys'
p4299
sS'prob'
p4300
F1.0
ssS'<subj> be done'
p4301
(dp4302
g1498
I7
sg1499
I7
sg1500
g1501
sg1502
S'be done'
p4303
sg1504
F1.0
ssS'<subj> demonstrate'
p4304
(dp4305
S'subj_freq'
p4306
I2
sS'freq'
p4307
I2
sS'type'
p4308
S'subj'
p4309
sS'display'
p4310
S'demonstrate'
p4311
sS'prob'
p4312
F1.0
ssS'<subj> spotted'
p4313
(dp4314
g3044
g3045
sg3046
I4
sg3047
I4
sg3048
S'spotted'
p4315
sg3050
F1.0
ssS'<subj> lived'
p4316
(dp4317
g1874
I7
sg1875
I7
sg1876
g1877
sg1878
S'lived'
p4318
sg1880
F1.0
ssS'<subj> contribute'
p4319
(dp4320
S'type'
p4321
S'subj'
p4322
sS'freq'
p4323
I9
sS'subj_freq'
p4324
I9
sS'display'
p4325
S'contribute'
p4326
sS'prob'
p4327
F1.0
ssS'know <dobj>'
p4328
(dp4329
g417
g1821
sg419
I39
sg420
I39
sg421
S'know'
p4330
sg423
F1.0
ssS'<subj> has love'
p4331
(dp4332
g57
I9
sg58
I9
sg59
g1006
sg61
S'has love'
p4333
sg63
F1.0
ssS'knows <dobj>'
p4334
(dp4335
g1753
g3344
sg1755
I7
sg1756
I7
sg1757
S'knows'
p4336
sg1759
F1.0
ssS'continue <dobj>'
p4337
(dp4338
g948
g949
sg950
I7
sg951
I7
sg952
S'continue'
p4339
sg954
F1.0
ssS'considered <dobj>'
p4340
(dp4341
g3417
S'dobj'
p4342
sg3419
I2
sg3420
I2
sg3421
S'considered'
p4343
sg3423
F1.0
ssS'need to make <dobj>'
p4344
(dp4345
g582
g583
sg584
I19
sg585
I19
sg586
S'need to make'
p4346
sg588
F1.0
ssS"<subj> 's White"
p4347
(dp4348
g2025
I1
sg2026
I1
sg2027
S'subj'
p4349
sg2029
S"'s White"
p4350
sg2031
F1.0
ssS'<subj> have Ted'
p4351
(dp4352
g360
g663
sg362
I7
sg363
I7
sg364
S'have Ted'
p4353
sg366
F1.0
ssS'create <dobj>'
p4354
(dp4355
g2741
I2
sg2742
I2
sg2743
g2744
sg2745
S'create'
p4356
sg2747
F1.0
ssS'<subj> fly cloud'
p4357
(dp4358
g2948
I9
sg2949
I9
sg2950
g2951
sg2952
S'fly cloud'
p4359
sg2954
F1.0
ssS'set <dobj>'
p4360
(dp4361
g1999
I2
sg2000
I2
sg2001
S'dobj'
p4362
sg2003
S'set'
p4363
sg2005
F1.0
ssS'<subj> misled'
p4364
(dp4365
g1189
g1348
sg1191
I21
sg1192
I21
sg1193
S'misled'
p4366
sg1195
F1.0
ssS'imposing <dobj>'
p4367
(dp4368
g573
S'dobj'
p4369
sg575
I1
sg576
I1
sg577
S'imposing'
p4370
sg579
F1.0
ssS"<subj> 's east"
p4371
(dp4372
S'subj_freq'
p4373
I2
sS'freq'
p4374
I2
sS'type'
p4375
S'subj'
p4376
sS'display'
p4377
S"'s east"
p4378
sS'prob'
p4379
F1.0
ssS'experience by <np>'
p4380
(dp4381
g3541
I2
sg3542
I2
sg3543
g3544
sg3545
S'experience by'
p4382
sg3547
F1.0
ssS'forget world with <np>'
p4383
(dp4384
g2226
I1
sg2227
I1
sg2228
S'np'
p4385
sg2230
S'forget world with'
p4386
sg2232
F1.0
ssS'<subj> left life'
p4387
(dp4388
g1668
g1669
sg1670
I5
sg1671
I5
sg1672
S'left life'
p4389
sg1674
F1.0
ssS'means <dobj>'
p4390
(dp4391
g1415
I41
sg1416
I41
sg1417
g1418
sg1419
S'means'
p4392
sg1421
F1.0
ssS'<subj> celebrated Institute'
p4393
(dp4394
g3780
g3781
sg3782
I2
sg3783
I2
sg3784
S'celebrated Institute'
p4395
sg3786
F1.0
ssS'<subj> depressed'
p4396
(dp4397
g311
I21
sg312
I21
sg313
g314
sg315
S'depressed'
p4398
sg317
F1.0
ssS'<subj> deserves'
p4399
(dp4400
g212
g4043
sg214
I8
sg215
I8
sg216
S'deserves'
p4401
sg218
F1.0
ssS'<subj> touched'
p4402
(dp4403
g1529
I7
sg1530
I7
sg1531
g1532
sg1533
S'touched'
p4404
sg1535
F1.0
ssS'<subj> is required'
p4405
(dp4406
g97
I7
sg98
I7
sg99
g100
sg101
S'is required'
p4407
sg103
F1.0
ssS"<subj> 's call"
p4408
(dp4409
S'type'
p4410
S'subj'
p4411
sS'freq'
p4412
I1
sS'subj_freq'
p4413
I1
sS'display'
p4414
S"'s call"
p4415
sS'prob'
p4416
F1.0
ssS'fell <dobj>'
p4417
(dp4418
g709
S'dobj'
p4419
sg711
I1
sg712
I1
sg713
S'fell'
p4420
sg715
F1.0
ssS'transforms <dobj>'
p4421
(dp4422
S'type'
p4423
S'dobj'
p4424
sS'freq'
p4425
I1
sS'subj_freq'
p4426
I1
sS'display'
p4427
S'transforms'
p4428
sS'prob'
p4429
F1.0
ssS'experience with <np>'
p4430
(dp4431
S'subj_freq'
p4432
I1
sS'freq'
p4433
I1
sS'type'
p4434
S'np'
p4435
sS'display'
p4436
S'experience with'
p4437
sS'prob'
p4438
F1.0
ssS'<subj> love'
p4439
(dp4440
S'type'
p4441
S'subj'
p4442
sS'freq'
p4443
I9
sS'subj_freq'
p4444
I9
sS'display'
p4445
S'love'
p4446
sS'prob'
p4447
F1.0
ssS'<subj> standing horses'
p4448
(dp4449
g2649
I2
sg2650
I2
sg2651
g3404
sg2653
S'standing horses'
p4450
sg2655
F1.0
ssS'<subj> are taken'
p4451
(dp4452
g2466
I1
sg2467
I1
sg2468
g2469
sg2470
S'are taken'
p4453
sg2472
F1.0
ssS'<subj> having weekend'
p4454
(dp4455
g1981
g1982
sg1983
I1
sg1984
I1
sg1985
S'having weekend'
p4456
sg1987
F1.0
ssS'<subj> win'
p4457
(dp4458
g2798
I4
sg2799
I4
sg2800
g4238
sg2802
S'win'
p4459
sg2804
F1.0
ssS'confirm <dobj>'
p4460
(dp4461
g2253
I7
sg2254
I7
sg2255
S'dobj'
p4462
sg2257
S'confirm'
p4463
sg2259
F1.0
ssS'<subj> creating God'
p4464
(dp4465
g408
I4
sg409
I4
sg410
g411
sg412
S'creating God'
p4466
sg414
F1.0
ssS'<subj> deserved'
p4467
(dp4468
g212
g4043
sg214
I7
sg215
I7
sg216
S'deserved'
p4469
sg218
F1.0
ssS"<subj> 's heritage"
p4470
(dp4471
S'type'
p4472
S'subj'
p4473
sS'freq'
p4474
I1
sS'subj_freq'
p4475
I1
sS'display'
p4476
S"'s heritage"
p4477
sS'prob'
p4478
F1.0
ssS'<subj> was explained'
p4479
(dp4480
g2948
I9
sg2949
I9
sg2950
g2951
sg2952
S'was explained'
p4481
sg2954
F1.0
ssS'<subj> appreciate'
p4482
(dp4483
g2360
I1
sg2361
I1
sg2362
g2363
sg2364
S'appreciate'
p4484
sg2366
F1.0
ssS'are presented in <np>'
p4485
(dp4486
g722
S'np'
p4487
sg724
I9
sg725
I9
sg726
S'are presented in'
p4488
sg728
F1.0
ssS'<subj> doing'
p4489
(dp4490
g106
I21
sg107
I21
sg108
g486
sg110
S'doing'
p4491
sg112
F1.0
ssS'<subj> added women'
p4492
(dp4493
g137
I5
sg138
I5
sg139
g140
sg141
S'added women'
p4494
sg143
F1.0
ssS"<subj> 's problem"
p4495
(dp4496
g624
g2045
sg626
I22
sg627
I22
sg628
S"'s problem"
p4497
sg630
F1.0
ssS'<subj> printed'
p4498
(dp4499
g2593
S'subj'
p4500
sg2595
I1
sg2596
I1
sg2597
S'printed'
p4501
sg2599
F1.0
ssS'Sea from <np>'
p4502
(dp4503
S'subj_freq'
p4504
I1
sS'freq'
p4505
I1
sS'type'
p4506
S'np'
p4507
sS'display'
p4508
S'Sea from'
p4509
sS'prob'
p4510
F1.0
ssS'<subj> written'
p4511
(dp4512
g3074
g3075
sg3076
I6
sg3077
I6
sg3078
S'written'
p4513
sg3080
F1.0
ssS'<subj> amazed'
p4514
(dp4515
g324
g325
sg326
I2
sg327
I2
sg328
S'amazed'
p4516
sg330
F1.0
ssS'<subj> is lit'
p4517
(dp4518
g1424
I1
sg1425
I1
sg1426
g1427
sg1428
S'is lit'
p4519
sg1430
F1.0
ssS'describe <dobj>'
p4520
(dp4521
g4083
I7
sg4084
I7
sg4085
S'dobj'
p4522
sg4087
S'describe'
p4523
sg4089
F1.0
ssS'<subj> deliver'
p4524
(dp4525
S'subj_freq'
p4526
I4
sS'freq'
p4527
I4
sS'type'
p4528
S'subj'
p4529
sS'display'
p4530
S'deliver'
p4531
sS'prob'
p4532
F1.0
ssS'<subj> surrounded cottages'
p4533
(dp4534
g797
I2
sg798
I2
sg799
g800
sg801
S'surrounded cottages'
p4535
sg803
F1.0
ssS'<subj> is eliminated'
p4536
(dp4537
g106
I21
sg107
I21
sg108
g486
sg110
S'is eliminated'
p4538
sg112
F1.0
ssS'<subj> await'
p4539
(dp4540
g79
I2
sg80
I2
sg81
g4183
sg83
S'await'
p4541
sg85
F1.0
ssS'<subj> many era'
p4542
(dp4543
g957
I1
sg958
I1
sg959
g960
sg961
S'many era'
p4544
sg963
F1.0
ssS'creating <dobj>'
p4545
(dp4546
g1677
I13
sg1678
I13
sg1679
g4053
sg1681
S'creating'
p4547
sg1683
F1.0
ssS'<subj> invite'
p4548
(dp4549
g555
g556
sg557
I3
sg558
I3
sg559
S'invite'
p4550
sg561
F1.0
ssS'<subj> bringing responsibility'
p4551
(dp4552
g3707
g3708
sg3709
I23
sg3710
I23
sg3711
S'bringing responsibility'
p4553
sg3713
F1.0
ssS'<subj> doing network'
p4554
(dp4555
g106
I21
sg107
I21
sg108
g486
sg110
S'doing network'
p4556
sg112
F1.0
ssS'<subj> pays'
p4557
(dp4558
g137
I4
sg138
I4
sg139
g140
sg141
S'pays'
p4559
sg143
F1.0
ssS'understand <dobj>'
p4560
(dp4561
g761
g3119
sg763
I7
sg764
I7
sg765
S'understand'
p4562
sg767
F1.0
ssS'<subj> comes'
p4563
(dp4564
g1719
I1
sg1720
I1
sg1721
S'subj'
p4565
sg1723
S'comes'
p4566
sg1725
F1.0
ssS'<subj> have ruling'
p4567
(dp4568
g266
I21
sg267
I21
sg268
g269
sg270
S'have ruling'
p4569
sg272
F1.0
ssS'<subj> getting'
p4570
(dp4571
g1450
g3937
sg1452
I8
sg1453
I8
sg1454
S'getting'
p4572
sg1456
F1.0
ssS'<subj> be told'
p4573
(dp4574
g221
I19
sg222
I19
sg223
g224
sg225
S'be told'
p4575
sg227
F1.0
ssS'use of <np>'
p4576
(dp4577
g2554
S'np'
p4578
sg2556
I17
sg2557
I0
sg2558
S'use of'
p4579
sg2560
F0.0
ssS'build <dobj>'
p4580
(dp4581
g464
g465
sg466
I7
sg467
I7
sg468
S'build'
p4582
sg470
F1.0
ssS'<subj> bring lots'
p4583
(dp4584
S'type'
p4585
S'subj'
p4586
sS'freq'
p4587
I1
sS'subj_freq'
p4588
I1
sS'display'
p4589
S'bring lots'
p4590
sS'prob'
p4591
F1.0
ssS'going to begin <dobj>'
p4592
(dp4593
g2700
S'dobj'
p4594
sg2702
I1
sg2703
I1
sg2704
S'going to begin'
p4595
sg2706
F1.0
ssS'spotted <dobj>'
p4596
(dp4597
g3044
S'dobj'
p4598
sg3046
I4
sg3047
I4
sg3048
S'spotted'
p4599
sg3050
F1.0
ssS'<subj> produces'
p4600
(dp4601
g1602
I7
sg1603
I7
sg1604
S'subj'
p4602
sg1606
S'produces'
p4603
sg1608
F1.0
ssS'varied <dobj>'
p4604
(dp4605
g3780
S'dobj'
p4606
sg3782
I3
sg3783
I3
sg3784
S'varied'
p4607
sg3786
F1.0
ssS'<subj> writing Marvin'
p4608
(dp4609
g2466
I1
sg2467
I1
sg2468
g2469
sg2470
S'writing Marvin'
p4610
sg2472
F1.0
ssV<subj> watched video
p4611
(dp4612
g1289
g1290
sg1291
I2
sg1292
I2
sg1293
Vwatched video
p4613
sg1295
F1.0
ssS'operate <dobj>'
p4614
(dp4615
g408
I4
sg409
I4
sg410
S'dobj'
p4616
sg412
S'operate'
p4617
sg414
F1.0
ssS'taking place for <np>'
p4618
(dp4619
S'type'
p4620
S'np'
p4621
sS'freq'
p4622
I1
sS'subj_freq'
p4623
I1
sS'display'
p4624
S'taking place for'
p4625
sS'prob'
p4626
F1.0
ssS'gather <dobj>'
p4627
(dp4628
g1689
g1690
sg1691
I1
sg1692
I1
sg1693
S'gather'
p4629
sg1695
F1.0
ssS'<subj> cost'
p4630
(dp4631
S'type'
p4632
S'subj'
p4633
sS'freq'
p4634
I1
sS'subj_freq'
p4635
I1
sS'display'
p4636
S'cost'
p4637
sS'prob'
p4638
F1.0
ssS'<subj> spend holidays'
p4639
(dp4640
g797
I2
sg798
I2
sg799
g800
sg801
S'spend holidays'
p4641
sg803
F1.0
ssS'<subj> required'
p4642
(dp4643
g97
I7
sg98
I7
sg99
g100
sg101
S'required'
p4644
sg103
F1.0
ssS'<subj> was connected'
p4645
(dp4646
g106
I21
sg107
I21
sg108
g486
sg110
S'was connected'
p4647
sg112
F1.0
ssS'<subj> writing'
p4648
(dp4649
g2466
I1
sg2467
I1
sg2468
g2469
sg2470
S'writing'
p4650
sg2472
F1.0
ssS'spread across <np>'
p4651
(dp4652
g865
S'np'
p4653
sg867
I21
sg868
I21
sg869
S'spread across'
p4654
sg871
F1.0
ssS'shining <dobj>'
p4655
(dp4656
g146
g147
sg148
I1
sg149
I1
sg150
S'shining'
p4657
sg152
F1.0
ssS'reach <dobj>'
p4658
(dp4659
g106
I22
sg107
I22
sg108
g109
sg110
S'reach'
p4660
sg112
F1.0
ssS'interview on <np>'
p4661
(dp4662
g1949
S'np'
p4663
sg1951
I21
sg1952
I21
sg1953
S'interview on'
p4664
sg1955
F1.0
ssS'<subj> gave reports'
p4665
(dp4666
g1081
I7
sg1082
I7
sg1083
g1084
sg1085
S'gave reports'
p4667
sg1087
F1.0
ssS'<subj> moved Ohio'
p4668
(dp4669
g1023
I7
sg1024
I7
sg1025
g1117
sg1027
S'moved Ohio'
p4670
sg1029
F1.0
ssV<subj> was blown
p4671
(dp4672
g1289
g1290
sg1291
I2
sg1292
I2
sg1293
Vwas blown
p4673
sg1295
F1.0
ssS'<subj> is classified'
p4674
(dp4675
g3953
I0
sg3954
I1
sg3955
g3956
sg3957
S'is classified'
p4676
sg3959
F0.0
ssS'<subj> is attached'
p4677
(dp4678
g3074
g3075
sg3076
I6
sg3077
I6
sg3078
S'is attached'
p4679
sg3080
F1.0
ssS'<subj> makes country'
p4680
(dp4681
S'type'
p4682
S'subj'
p4683
sS'freq'
p4684
I1
sS'subj_freq'
p4685
I1
sS'display'
p4686
S'makes country'
p4687
sS'prob'
p4688
F1.0
ssS'<subj> meets immensity'
p4689
(dp4690
g1146
g1147
sg1148
I1
sg1149
I1
sg1150
S'meets immensity'
p4691
sg1152
F1.0
ssS'contribute <dobj>'
p4692
(dp4693
g4321
S'dobj'
p4694
sg4323
I9
sg4324
I9
sg4325
S'contribute'
p4695
sg4327
F1.0
ssS'are taken out <np>'
p4696
(dp4697
g2466
I1
sg2467
I1
sg2468
g2874
sg2470
S'are taken out'
p4698
sg2472
F1.0
ssS'<subj> is known'
p4699
(dp4700
g3570
S'subj'
p4701
sg3572
I2
sg3573
I2
sg3574
S'is known'
p4702
sg3576
F1.0
ssS'watching years ago <np>'
p4703
(dp4704
g106
I21
sg107
I21
sg108
S'np'
p4705
sg110
S'watching years ago'
p4706
sg112
F1.0
ssS'<subj> awaiting outlook'
p4707
(dp4708
g2226
I1
sg2227
I1
sg2228
g3606
sg2230
S'awaiting outlook'
p4709
sg2232
F1.0
ssS'wants idea of <np>'
p4710
(dp4711
g1753
S'np'
p4712
sg1755
I7
sg1756
I7
sg1757
S'wants idea of'
p4713
sg1759
F1.0
ssS'<subj> undo'
p4714
(dp4715
g266
I21
sg267
I21
sg268
g269
sg270
S'undo'
p4716
sg272
F1.0
ssS'need <dobj>'
p4717
(dp4718
g417
g1821
sg419
I95
sg420
I95
sg421
S'need'
p4719
sg423
F1.0
ssS'<subj> bringing'
p4720
(dp4721
g3707
g3708
sg3709
I26
sg3710
I26
sg3711
S'bringing'
p4722
sg3713
F1.0
ssS'to work <dobj>'
p4723
(dp4724
g2283
I0
sg2284
I1
sg2285
S'dobj'
p4725
sg2287
S'to work'
p4726
sg2289
F0.0
ssS'<subj> be changed'
p4727
(dp4728
g1529
I7
sg1530
I7
sg1531
g1532
sg1533
S'be changed'
p4729
sg1535
F1.0
ssS'<subj> forget'
p4730
(dp4731
g155
I8
sg156
I8
sg157
g158
sg159
S'forget'
p4732
sg161
F1.0
ssS'<subj> loved'
p4733
(dp4734
g1865
g1866
sg1867
I6
sg1868
I6
sg1869
S'loved'
p4735
sg1871
F1.0
ssS'demonstrate <dobj>'
p4736
(dp4737
g4306
I2
sg4307
I2
sg4308
S'dobj'
p4738
sg4310
S'demonstrate'
p4739
sg4312
F1.0
ssS'<subj> celebrated show'
p4740
(dp4741
g676
g2960
sg678
I2
sg679
I2
sg680
S'celebrated show'
p4742
sg682
F1.0
ssS"<subj> 's"
p4743
(dp4744
g591
I251
sg592
I251
sg593
S'subj'
p4745
sg595
S"'s"
p4746
sg597
F1.0
ssS'<subj> found'
p4747
(dp4748
g1023
I7
sg1024
I7
sg1025
g1117
sg1027
S'found'
p4749
sg1029
F1.0
ssS'is lit with <np>'
p4750
(dp4751
g1424
I1
sg1425
I1
sg1426
S'np'
p4752
sg1428
S'is lit with'
p4753
sg1430
F1.0
ssS'call <dobj>'
p4754
(dp4755
g4242
I2
sg4243
I2
sg4244
S'dobj'
p4756
sg4246
S'call'
p4757
sg4248
F1.0
ssS'<subj> seen'
p4758
(dp4759
S'type'
p4760
S'subj'
p4761
sS'freq'
p4762
I3
sS'subj_freq'
p4763
I1
sS'display'
p4764
S'seen'
p4765
sS'prob'
p4766
F0.3333333333333333
ssS'want <dobj>'
p4767
(dp4768
g1650
I49
sg1651
I49
sg1652
S'dobj'
p4769
sg1654
S'want'
p4770
sg1656
F1.0
ssS'<subj> going network'
p4771
(dp4772
g1014
g1039
sg1016
I1
sg1017
I1
sg1018
S'going network'
p4773
sg1020
F1.0
ssS'<subj> listening'
p4774
(dp4775
g939
I21
sg940
I21
sg941
g1598
sg943
S'listening'
p4776
sg945
F1.0
ssS'<subj> seem to understand'
p4777
(dp4778
g3686
I7
sg3687
I7
sg3688
S'subj'
p4779
sg3690
S'seem to understand'
p4780
sg3692
F1.0
ssS'seen <dobj>'
p4781
(dp4782
g4760
S'dobj'
p4783
sg4762
I3
sg4763
I1
sg4764
S'seen'
p4784
sg4766
F0.3333333333333333
ssS'threw <dobj>'
p4785
(dp4786
g1164
S'dobj'
p4787
sg1166
I7
sg1167
I7
sg1168
S'threw'
p4788
sg1170
F1.0
ssS'<subj> need discipline'
p4789
(dp4790
g221
I19
sg222
I19
sg223
g224
sg225
S'need discipline'
p4791
sg227
F1.0
ssV<subj> read
p4792
(dp4793
g1289
g1290
sg1291
I2
sg1292
I2
sg1293
Vread
p4794
sg1295
F1.0
ssV<subj> 'm nurse
p4795
(dp4796
g1289
g1290
sg1291
I2
sg1292
I2
sg1293
V'm nurse
p4797
sg1295
F1.0
ssS'<subj> exercise right'
p4798
(dp4799
g2563
g2564
sg2565
I9
sg2566
I9
sg2567
S'exercise right'
p4800
sg2569
F1.0
ssS'exhibiting <dobj>'
p4801
(dp4802
g600
S'dobj'
p4803
sg602
I1
sg603
I0
sg604
S'exhibiting'
p4804
sg606
F0.0
ssS'lived <dobj>'
p4805
(dp4806
g1874
I7
sg1875
I7
sg1876
S'dobj'
p4807
sg1878
S'lived'
p4808
sg1880
F1.0
ssS'<subj> portraying side'
p4809
(dp4810
g2503
g2504
sg2505
I1
sg2506
I0
sg2507
S'portraying side'
p4811
sg2509
F0.0
ssS'<subj> was converted'
p4812
(dp4813
g874
I0
sg875
I5
sg876
g877
sg878
S'was converted'
p4814
sg880
F0.0
ssS'<subj> made Gujarat'
p4815
(dp4816
g1068
g1069
sg1070
I1
sg1071
I1
sg1072
S'made Gujarat'
p4817
sg1074
F1.0
ssS'<subj> affected'
p4818
(dp4819
S'type'
p4820
S'subj'
p4821
sS'freq'
p4822
I2
sS'subj_freq'
p4823
I2
sS'display'
p4824
S'affected'
p4825
sS'prob'
p4826
F1.0
ssS'moved <dobj>'
p4827
(dp4828
g1023
I7
sg1024
I7
sg1025
g1026
sg1027
S'moved'
p4829
sg1029
F1.0
ssS'<subj> walk'
p4830
(dp4831
g146
g815
sg148
I2
sg149
I2
sg150
S'walk'
p4832
sg152
F1.0
ssS'<subj> has birds'
p4833
(dp4834
S'type'
p4835
S'subj'
p4836
sS'freq'
p4837
I1
sS'subj_freq'
p4838
I1
sS'display'
p4839
S'has birds'
p4840
sS'prob'
p4841
F1.0
ssS'conserves <dobj>'
p4842
(dp4843
g1892
S'dobj'
p4844
sg1894
I4
sg1895
I4
sg1896
S'conserves'
p4845
sg1898
F1.0
ssS'are used as <np>'
p4846
(dp4847
g2139
I0
sg2140
I1
sg2141
S'np'
p4848
sg2143
S'are used as'
p4849
sg2145
F0.0
ssS'<subj> reduced fish'
p4850
(dp4851
g969
I3
sg970
I3
sg971
g972
sg973
S'reduced fish'
p4852
sg975
F1.0
ssS'<subj> develop'
p4853
(dp4854
g39
I9
sg40
I9
sg41
g473
sg43
S'develop'
p4855
sg45
F1.0
ssS'beginning <dobj>'
p4856
(dp4857
g930
g931
sg932
I3
sg933
I2
sg934
S'beginning'
p4858
sg936
F0.6666666666666666
ssS'<subj> made'
p4859
(dp4860
g939
I32
sg940
I32
sg941
g1598
sg943
S'made'
p4861
sg945
F1.0
ssS'<subj> carved caves'
p4862
(dp4863
g2139
I0
sg2140
I1
sg2141
g2142
sg2143
S'carved caves'
p4864
sg2145
F0.0
ssS'presents <dobj>'
p4865
(dp4866
g3747
S'dobj'
p4867
sg3749
I3
sg3750
I3
sg3751
S'presents'
p4868
sg3753
F1.0
ssS'<subj> cause'
p4869
(dp4870
g57
I9
sg58
I9
sg59
g1006
sg61
S'cause'
p4871
sg63
F1.0
ssS'to discover <dobj>'
p4872
(dp4873
g2967
I2
sg2968
I2
sg2969
S'dobj'
p4874
sg2971
S'to discover'
p4875
sg2973
F1.0
ssS'<subj> offers Hill'
p4876
(dp4877
S'subj_freq'
p4878
I1
sS'freq'
p4879
I1
sS'type'
p4880
S'subj'
p4881
sS'display'
p4882
S'offers Hill'
p4883
sS'prob'
p4884
F1.0
ssS'taking <dobj>'
p4885
(dp4886
g257
I17
sg258
I17
sg259
S'dobj'
p4887
sg261
S'taking'
p4888
sg263
F1.0
ssS'<subj> invite entries'
p4889
(dp4890
g555
g556
sg557
I2
sg558
I2
sg559
S'invite entries'
p4891
sg561
F1.0
ssS'selling <dobj>'
p4892
(dp4893
g4150
I16
sg4151
I16
sg4152
S'dobj'
p4894
sg4154
S'selling'
p4895
sg4156
F1.0
ssS'artists of <np>'
p4896
(dp4897
S'subj_freq'
p4898
I2
sS'freq'
p4899
I2
sS'type'
p4900
S'np'
p4901
sS'display'
p4902
S'artists of'
p4903
sS'prob'
p4904
F1.0
ssS'<subj> preserving glory'
p4905
(dp4906
g2414
I2
sg2415
I2
sg2416
g2417
sg2418
S'preserving glory'
p4907
sg2420
F1.0
ssS'glittering <dobj>'
p4908
(dp4909
S'subj_freq'
p4910
I1
sS'freq'
p4911
I1
sS'type'
p4912
S'dobj'
p4913
sS'display'
p4914
S'glittering'
p4915
sS'prob'
p4916
F1.0
ssS'<subj> was held'
p4917
(dp4918
g2314
I0
sg2315
I1
sg2316
g2317
sg2318
S'was held'
p4919
sg2320
F0.0
ssS'<subj> arrive'
p4920
(dp4921
g2936
S'subj'
p4922
sg2938
I7
sg2939
I7
sg2940
S'arrive'
p4923
sg2942
F1.0
ssS'<subj> focused'
p4924
(dp4925
g360
g663
sg362
I7
sg363
I7
sg364
S'focused'
p4926
sg366
F1.0
ssS'<subj> see'
p4927
(dp4928
g342
g3553
sg344
I61
sg345
I60
sg346
S'see'
p4929
sg348
F0.9836065573770492
ssS'<subj> varied birds'
p4930
(dp4931
S'type'
p4932
S'subj'
p4933
sS'freq'
p4934
I1
sS'subj_freq'
p4935
I1
sS'display'
p4936
S'varied birds'
p4937
sS'prob'
p4938
F1.0
ssS'<subj> enjoy'
p4939
(dp4940
g1999
I4
sg2000
I4
sg2001
g2002
sg2003
S'enjoy'
p4941
sg2005
F1.0
ssS'<subj> smitten'
p4942
(dp4943
g1361
S'subj'
p4944
sg1363
I1
sg1364
I1
sg1365
S'smitten'
p4945
sg1367
F1.0
ssS'to operate <dobj>'
p4946
(dp4947
g408
I4
sg409
I4
sg410
g4616
sg412
S'to operate'
p4948
sg414
F1.0
ssS'welcoming <dobj>'
p4949
(dp4950
S'subj_freq'
p4951
I1
sS'freq'
p4952
I2
sS'type'
p4953
S'dobj'
p4954
sS'display'
p4955
S'welcoming'
p4956
sS'prob'
p4957
F0.5
ssS'<subj> knows idea'
p4958
(dp4959
g1753
g1754
sg1755
I7
sg1756
I7
sg1757
S'knows idea'
p4960
sg1759
F1.0
ssS'<subj> gives glimpse'
p4961
(dp4962
g2414
I2
sg2415
I2
sg2416
g2417
sg2418
S'gives glimpse'
p4963
sg2420
F1.0
ssS'<subj> seeing things'
p4964
(dp4965
g1081
I7
sg1082
I7
sg1083
g1084
sg1085
S'seeing things'
p4966
sg1087
F1.0
ssS'offer <dobj>'
p4967
(dp4968
g1677
I10
sg1678
I10
sg1679
g4053
sg1681
S'offer'
p4969
sg1683
F1.0
ssS'spend time in <np>'
p4970
(dp4971
g2785
S'np'
p4972
sg2787
I2
sg2788
I2
sg2789
S'spend time in'
p4973
sg2791
F1.0
ssS'classified <dobj>'
p4974
(dp4975
g3953
I0
sg3954
I1
sg3955
S'dobj'
p4976
sg3957
S'classified'
p4977
sg3959
F0.0
ssS'fail <dobj>'
p4978
(dp4979
g1415
I27
sg1416
I27
sg1417
g1418
sg1419
S'fail'
p4980
sg1421
F1.0
ssS'<subj> seem'
p4981
(dp4982
g3686
I7
sg3687
I7
sg3688
g4779
sg3690
S'seem'
p4983
sg3692
F1.0
ssS'<subj> having properties'
p4984
(dp4985
g2487
g3668
sg2489
I7
sg2490
I7
sg2491
S'having properties'
p4986
sg2493
F1.0
ssS'<subj> talking'
p4987
(dp4988
g1949
g1950
sg1951
I21
sg1952
I21
sg1953
S'talking'
p4989
sg1955
F1.0
ssS'discover <dobj>'
p4990
(dp4991
g2967
I2
sg2968
I2
sg2969
g4874
sg2971
S'discover'
p4992
sg2973
F1.0
ssS'<subj> bless occasion'
p4993
(dp4994
g1373
I1
sg1374
I1
sg1375
g1376
sg1377
S'bless occasion'
p4995
sg1379
F1.0
ssS'<subj> deserves time'
p4996
(dp4997
S'subj_freq'
p4998
I1
sS'freq'
p4999
I1
sS'type'
p5000
S'subj'
p5001
sS'display'
p5002
S'deserves time'
p5003
sS'prob'
p5004
F1.0
ssS'to spread <dobj>'
p5005
(dp5006
g248
I1
sg249
I1
sg250
g251
sg252
S'to spread'
p5007
sg254
F1.0
ssS'<subj> start'
p5008
(dp5009
g3456
g3650
sg3458
I7
sg3459
I7
sg3460
S'start'
p5010
sg3462
F1.0
ssS'deserts <dobj>'
p5011
(dp5012
S'subj_freq'
p5013
I1
sS'freq'
p5014
I1
sS'type'
p5015
S'dobj'
p5016
sS'display'
p5017
S'deserts'
p5018
sS'prob'
p5019
F1.0
ssS'love for <np>'
p5020
(dp5021
S'type'
p5022
S'np'
p5023
sS'freq'
p5024
I5
sS'subj_freq'
p5025
I5
sS'display'
p5026
S'love for'
p5027
sS'prob'
p5028
F1.0
ssS'<subj> learned paralysis'
p5029
(dp5030
g533
I9
sg534
I9
sg535
g536
sg537
S'learned paralysis'
p5031
sg539
F1.0
ssS'<subj> have carbon'
p5032
(dp5033
S'subj_freq'
p5034
I0
sS'freq'
p5035
I9
sS'type'
p5036
S'subj'
p5037
sS'display'
p5038
S'have carbon'
p5039
sS'prob'
p5040
F0.0
ssS'<subj> bringing makers'
p5041
(dp5042
g4306
I2
sg4307
I2
sg4308
g4309
sg4310
S'bringing makers'
p5043
sg4312
F1.0
ssS'<subj> spot Bear'
p5044
(dp5045
g3160
I1
sg3161
I1
sg3162
g3557
sg3164
S'spot Bear'
p5046
sg3166
F1.0
ssS'<subj> saw talk'
p5047
(dp5048
g749
g750
sg751
I7
sg752
I7
sg753
S'saw talk'
p5049
sg755
F1.0
ssS'restored <dobj>'
p5050
(dp5051
g2785
S'dobj'
p5052
sg2787
I2
sg2788
I2
sg2789
S'restored'
p5053
sg2791
F1.0
ssS'to cut <dobj>'
p5054
(dp5055
g203
g204
sg205
I4
sg206
I4
sg207
S'to cut'
p5056
sg209
F1.0
ssS'<subj> wants technology'
p5057
(dp5058
g1753
g1754
sg1755
I7
sg1756
I7
sg1757
S'wants technology'
p5059
sg1759
F1.0
ssS'<subj> celebrate'
p5060
(dp5061
g351
S'subj'
p5062
sg353
I5
sg354
I5
sg355
S'celebrate'
p5063
sg357
F1.0
ssS'<subj> think'
p5064
(dp5065
g342
g3553
sg344
I75
sg345
I75
sg346
S'think'
p5066
sg348
F1.0
ssS'work <dobj>'
p5067
(dp5068
g2283
I0
sg2284
I1
sg2285
g4725
sg2287
S'work'
p5069
sg2289
F0.0
ssS'<subj> welcoming'
p5070
(dp5071
g4951
I1
sg4952
I2
sg4953
S'subj'
p5072
sg4955
S'welcoming'
p5073
sg4957
F0.5
ssS'<subj> means everybody'
p5074
(dp5075
g1937
g1938
sg1939
I9
sg1940
I9
sg1941
S'means everybody'
p5076
sg1943
F1.0
ssS'seem to understand <dobj>'
p5077
(dp5078
g3686
I7
sg3687
I7
sg3688
g3689
sg3690
S'seem to understand'
p5079
sg3692
F1.0
ssS'<subj> is used'
p5080
(dp5081
S'type'
p5082
S'subj'
p5083
sS'freq'
p5084
I1
sS'subj_freq'
p5085
I0
sS'display'
p5086
S'is used'
p5087
sS'prob'
p5088
F0.0
ssS'<subj> had arthritis'
p5089
(dp5090
S'type'
p5091
S'subj'
p5092
sS'freq'
p5093
I7
sS'subj_freq'
p5094
I7
sS'display'
p5095
S'had arthritis'
p5096
sS'prob'
p5097
F1.0
ssS'<subj> get life'
p5098
(dp5099
g257
I13
sg258
I13
sg259
g260
sg261
S'get life'
p5100
sg263
F1.0
ssS'Thanks for <np>'
p5101
(dp5102
g390
S'np'
p5103
sg392
I7
sg393
I7
sg394
S'Thanks for'
p5104
sg396
F1.0
ssS'<subj> explained'
p5105
(dp5106
g2948
I9
sg2949
I9
sg2950
g2951
sg2952
S'explained'
p5107
sg2954
F1.0
ssS'bringing <dobj>'
p5108
(dp5109
g3707
S'dobj'
p5110
sg3709
I26
sg3710
I26
sg3711
S'bringing'
p5111
sg3713
F1.0
ssS'<subj> have search'
p5112
(dp5113
g417
g418
sg419
I21
sg420
I21
sg421
S'have search'
p5114
sg423
F1.0
ssS'<subj> lost powers'
p5115
(dp5116
g1121
I55
sg1122
I55
sg1123
g3978
sg1125
S'lost powers'
p5117
sg1127
F1.0
ssS'elaborate <dobj>'
p5118
(dp5119
g2202
I2
sg2203
I2
sg2204
g2658
sg2206
S'elaborate'
p5120
sg2208
F1.0
ssS'brings <dobj>'
p5121
(dp5122
g3223
I1
sg3224
I1
sg3225
S'dobj'
p5123
sg3227
S'brings'
p5124
sg3229
F1.0
ssS"<subj> 'm Japan"
p5125
(dp5126
g895
I22
sg896
I22
sg897
g898
sg899
S"'m Japan"
p5127
sg901
F1.0
ssS'<subj> come'
p5128
(dp5129
g57
I15
sg58
I15
sg59
g1006
sg61
S'come'
p5130
sg63
F1.0
ssS'to keep <dobj>'
p5131
(dp5132
g1965
g1966
sg1967
I9
sg1968
I9
sg1969
S'to keep'
p5133
sg1971
F1.0
ssS'affected <dobj>'
p5134
(dp5135
g4820
S'dobj'
p5136
sg4822
I2
sg4823
I2
sg4824
S'affected'
p5137
sg4826
F1.0
ssS'to deliver <dobj>'
p5138
(dp5139
g4526
I4
sg4527
I4
sg4528
S'dobj'
p5140
sg4530
S'to deliver'
p5141
sg4532
F1.0
ssS'<subj> according classes'
p5142
(dp5143
g97
I7
sg98
I7
sg99
g100
sg101
S'according classes'
p5144
sg103
F1.0
ssS'<subj> tapping feet'
p5145
(dp5146
g3503
S'subj'
p5147
sg3505
I1
sg3506
I0
sg3507
S'tapping feet'
p5148
sg3509
F0.0
ssS'becoming <dobj>'
p5149
(dp5150
g685
I1
sg686
I1
sg687
S'dobj'
p5151
sg689
S'becoming'
p5152
sg691
F1.0
ssS'<subj> beginning festival'
p5153
(dp5154
g930
g1929
sg932
I1
sg933
I0
sg934
S'beginning festival'
p5155
sg936
F0.0
ssS'influence of <np>'
p5156
(dp5157
S'type'
p5158
S'np'
p5159
sS'freq'
p5160
I2
sS'subj_freq'
p5161
I2
sS'display'
p5162
S'influence of'
p5163
sS'prob'
p5164
F1.0
ssS'<subj> built'
p5165
(dp5166
g3838
I1
sg3839
I4
sg3840
S'subj'
p5167
sg3842
S'built'
p5168
sg3844
F0.25
ssS'<subj> hidden'
p5169
(dp5170
g991
g1646
sg993
I5
sg994
I5
sg995
S'hidden'
p5171
sg997
F1.0
ssS'<subj> portraying'
p5172
(dp5173
g2503
g2504
sg2505
I1
sg2506
I0
sg2507
S'portraying'
p5174
sg2509
F0.0
ssS'give <dobj>'
p5175
(dp5176
S'subj_freq'
p5177
I11
sS'freq'
p5178
I11
sS'type'
p5179
S'dobj'
p5180
sS'display'
p5181
S'give'
p5182
sS'prob'
p5183
F1.0
ssS'saves <dobj>'
p5184
(dp5185
g1320
I7
sg1321
I7
sg1322
S'dobj'
p5186
sg1324
S'saves'
p5187
sg1326
F1.0
ssS'dedicated <dobj>'
p5188
(dp5189
g654
S'dobj'
p5190
sg656
I3
sg657
I3
sg658
S'dedicated'
p5191
sg660
F1.0
ssS'<subj> tapping'
p5192
(dp5193
g3503
g5147
sg3505
I1
sg3506
I0
sg3507
S'tapping'
p5194
sg3509
F0.0
ssS'<subj> decides journalist'
p5195
(dp5196
g3257
g3258
sg3259
I9
sg3260
I9
sg3261
S'decides journalist'
p5197
sg3263
F1.0
ssS'heritage of <np>'
p5198
(dp5199
S'subj_freq'
p5200
I4
sS'freq'
p5201
I4
sS'type'
p5202
S'np'
p5203
sS'display'
p5204
S'heritage of'
p5205
sS'prob'
p5206
F1.0
ssS'to relax <dobj>'
p5207
(dp5208
g1768
I2
sg1769
I2
sg1770
g3629
sg1772
S'to relax'
p5209
sg1774
F1.0
ssS'architecture during <np>'
p5210
(dp5211
S'subj_freq'
p5212
I1
sS'freq'
p5213
I1
sS'type'
p5214
S'np'
p5215
sS'display'
p5216
S'architecture during'
p5217
sS'prob'
p5218
F1.0
ssS'left stuff in <np>'
p5219
(dp5220
g1668
S'np'
p5221
sg1670
I5
sg1671
I5
sg1672
S'left stuff in'
p5222
sg1674
F1.0
ssS'<subj> build'
p5223
(dp5224
g464
g1585
sg466
I7
sg467
I7
sg468
S'build'
p5225
sg470
F1.0
ssS'<subj> put'
p5226
(dp5227
g88
g1139
sg90
I42
sg91
I42
sg92
S'put'
p5228
sg94
F1.0
ssS'<subj> was was'
p5229
(dp5230
g991
g1646
sg993
I4
sg994
I4
sg995
S'was was'
p5231
sg997
F1.0
ssS'to making <dobj>'
p5232
(dp5233
g3074
g3324
sg3076
I6
sg3077
I6
sg3078
S'to making'
p5234
sg3080
F1.0
ssS'remind <dobj>'
p5235
(dp5236
g1865
g3893
sg1867
I4
sg1868
I4
sg1869
S'remind'
p5237
sg1871
F1.0
ssS'<subj> do privilege'
p5238
(dp5239
g173
g174
sg175
I7
sg176
I7
sg177
S'do privilege'
p5240
sg179
F1.0
ssS'<subj> says'
p5241
(dp5242
g57
I9
sg58
I9
sg59
g1006
sg61
S'says'
p5243
sg63
F1.0
ssS"'re <dobj>"
p5244
(dp5245
g106
I55
sg107
I55
sg108
g109
sg110
S"'re"
p5246
sg112
F1.0
ssS'<subj> used'
p5247
(dp5248
g1023
I7
sg1024
I9
sg1025
g1117
sg1027
S'used'
p5249
sg1029
F0.7777777777777778
ssS'<subj> have powers'
p5250
(dp5251
S'type'
p5252
S'subj'
p5253
sS'freq'
p5254
I1
sS'subj_freq'
p5255
I1
sS'display'
p5256
S'have powers'
p5257
sS'prob'
p5258
F1.0
ssS'<subj> fly way'
p5259
(dp5260
g3211
I2
sg3212
I2
sg3213
g3214
sg3215
S'fly way'
p5261
sg3217
F1.0
ssS'<subj> quench'
p5262
(dp5263
S'subj_freq'
p5264
I1
sS'freq'
p5265
I1
sS'type'
p5266
S'subj'
p5267
sS'display'
p5268
S'quench'
p5269
sS'prob'
p5270
F1.0
ssS'<subj> make Beach'
p5271
(dp5272
g1768
I2
sg1769
I2
sg1770
g1771
sg1772
S'make Beach'
p5273
sg1774
F1.0
ssS'<subj> glittering proof'
p5274
(dp5275
g4910
I1
sg4911
I1
sg4912
S'subj'
p5276
sg4914
S'glittering proof'
p5277
sg4916
F1.0
ssS'<subj> do travel'
p5278
(dp5279
S'type'
p5280
S'subj'
p5281
sS'freq'
p5282
I1
sS'subj_freq'
p5283
I1
sS'display'
p5284
S'do travel'
p5285
sS'prob'
p5286
F1.0
ssS'<subj> suggests'
p5287
(dp5288
g2554
S'subj'
p5289
sg2556
I17
sg2557
I0
sg2558
S'suggests'
p5290
sg2560
F0.0
ssS'<subj> bring'
p5291
(dp5292
g1373
I3
sg1374
I3
sg1375
g1376
sg1377
S'bring'
p5293
sg1379
F1.0
ssS'appreciate <dobj>'
p5294
(dp5295
g2360
I1
sg2361
I1
sg2362
S'dobj'
p5296
sg2364
S'appreciate'
p5297
sg2366
F1.0
ssS'<subj> required happiness'
p5298
(dp5299
g97
I7
sg98
I7
sg99
g100
sg101
S'required happiness'
p5300
sg103
F1.0
ssS'to demonstrate <dobj>'
p5301
(dp5302
g4306
I2
sg4307
I2
sg4308
g4738
sg4310
S'to demonstrate'
p5303
sg4312
F1.0
ssS"<subj> 's season"
p5304
(dp5305
S'type'
p5306
S'subj'
p5307
sS'freq'
p5308
I1
sS'subj_freq'
p5309
I1
sS'display'
p5310
S"'s season"
p5311
sS'prob'
p5312
F1.0
ssS'probing <dobj>'
p5313
(dp5314
g88
g1974
sg90
I42
sg91
I42
sg92
S'probing'
p5315
sg94
F1.0
ssS'<subj> portraying sculptures'
p5316
(dp5317
g2503
g2504
sg2505
I1
sg2506
I0
sg2507
S'portraying sculptures'
p5318
sg2509
F0.0
ssS'places <dobj>'
p5319
(dp5320
g770
S'dobj'
p5321
sg772
I4
sg773
I4
sg774
S'places'
p5322
sg776
F1.0
ssS'bless <dobj>'
p5323
(dp5324
g390
g391
sg392
I9
sg393
I9
sg394
S'bless'
p5325
sg396
F1.0
ssS'<subj> discover place'
p5326
(dp5327
g3280
I1
sg3281
I1
sg3282
S'subj'
p5328
sg3284
S'discover place'
p5329
sg3286
F1.0
ssS'<subj> speak'
p5330
(dp5331
g3716
S'subj'
p5332
sg3718
I7
sg3719
I7
sg3720
S'speak'
p5333
sg3722
F1.0
ssS'life with <np>'
p5334
(dp5335
S'type'
p5336
S'np'
p5337
sS'freq'
p5338
I4
sS'subj_freq'
p5339
I4
sS'display'
p5340
S'life with'
p5341
sS'prob'
p5342
F1.0
ssS'reached <dobj>'
p5343
(dp5344
g2994
g3249
sg2996
I25
sg2997
I25
sg2998
S'reached'
p5345
sg3000
F1.0
ssS'<subj> exploring'
p5346
(dp5347
g3280
I1
sg3281
I1
sg3282
g5328
sg3284
S'exploring'
p5348
sg3286
F1.0
ssS'cup from <np>'
p5349
(dp5350
g212
S'np'
p5351
sg214
I7
sg215
I7
sg216
S'cup from'
p5352
sg218
F1.0
ssS'<subj> booked'
p5353
(dp5354
g930
g1929
sg932
I1
sg933
I0
sg934
S'booked'
p5355
sg936
F0.0
ssS'bathing <dobj>'
p5356
(dp5357
g1339
I0
sg1340
I1
sg1341
g1342
sg1343
S'bathing'
p5358
sg1345
F0.0
ssS'home with <np>'
p5359
(dp5360
g30
I2
sg31
I2
sg32
S'np'
p5361
sg34
S'home with'
p5362
sg36
F1.0
ssS'enjoy <dobj>'
p5363
(dp5364
g1999
I4
sg2000
I4
sg2001
g4362
sg2003
S'enjoy'
p5365
sg2005
F1.0
ssS'<subj> deserts'
p5366
(dp5367
g5013
I1
sg5014
I1
sg5015
S'subj'
p5368
sg5017
S'deserts'
p5369
sg5019
F1.0
ssS'<subj> exercise'
p5370
(dp5371
g2563
g2564
sg2565
I9
sg2566
I9
sg2567
S'exercise'
p5372
sg2569
F1.0
ssS'love <dobj>'
p5373
(dp5374
g4441
S'dobj'
p5375
sg4443
I9
sg4444
I9
sg4445
S'love'
p5376
sg4447
F1.0
ssS'<subj> offers'
p5377
(dp5378
g3512
I5
sg3513
I6
sg3514
S'subj'
p5379
sg3516
S'offers'
p5380
sg3518
F0.8333333333333334
ssS'<subj> performing'
p5381
(dp5382
g2262
S'subj'
p5383
sg2264
I1
sg2265
I1
sg2266
S'performing'
p5384
sg2268
F1.0
ssS'<subj> fail'
p5385
(dp5386
g1415
I27
sg1416
I27
sg1417
g1837
sg1419
S'fail'
p5387
sg1421
F1.0
ssS'<subj> blessed'
p5388
(dp5389
g381
I1
sg382
I1
sg383
S'subj'
p5390
sg385
S'blessed'
p5391
sg387
F1.0
ssS'was held between <np>'
p5392
(dp5393
g2314
I0
sg2315
I1
sg2316
S'np'
p5394
sg2318
S'was held between'
p5395
sg2320
F0.0
ssS'<subj> believe'
p5396
(dp5397
g546
I30
sg547
I30
sg548
g549
sg550
S'believe'
p5398
sg552
F1.0
ssS'<subj> enchant'
p5399
(dp5400
g3528
S'subj'
p5401
sg3530
I1
sg3531
I1
sg3532
S'enchant'
p5402
sg3534
F1.0
ssS'dominating <dobj>'
p5403
(dp5404
g106
I21
sg107
I21
sg108
g109
sg110
S'dominating'
p5405
sg112
F1.0
ssS'<subj> glittering'
p5406
(dp5407
g4910
I1
sg4911
I1
sg4912
g5276
sg4914
S'glittering'
p5408
sg4916
F1.0
ssS'shown <dobj>'
p5409
(dp5410
g546
I42
sg547
I42
sg548
g1307
sg550
S'shown'
p5411
sg552
F1.0
ssS'<subj> sending army'
p5412
(dp5413
g464
g1585
sg466
I7
sg467
I7
sg468
S'sending army'
p5414
sg470
F1.0
ssS'promise for <np>'
p5415
(dp5416
S'subj_freq'
p5417
I21
sS'freq'
p5418
I21
sS'type'
p5419
S'np'
p5420
sS'display'
p5421
S'promise for'
p5422
sS'prob'
p5423
F1.0
ssS'<subj> set'
p5424
(dp5425
g1999
I2
sg2000
I2
sg2001
g2002
sg2003
S'set'
p5426
sg2005
F1.0
ssS'art of <np>'
p5427
(dp5428
S'subj_freq'
p5429
I0
sS'freq'
p5430
I4
sS'type'
p5431
S'np'
p5432
sS'display'
p5433
S'art of'
p5434
sS'prob'
p5435
F0.0
ssS'<subj> denied'
p5436
(dp5437
g1189
g1348
sg1191
I21
sg1192
I21
sg1193
S'denied'
p5438
sg1195
F1.0
ssS'created <dobj>'
p5439
(dp5440
g511
S'dobj'
p5441
sg513
I5
sg514
I1
sg515
S'created'
p5442
sg517
F0.2
ssS'<subj> need search'
p5443
(dp5444
g417
g418
sg419
I21
sg420
I21
sg421
S'need search'
p5445
sg423
F1.0
ssS'<subj> incurred'
p5446
(dp5447
g2878
g2879
sg2880
I2
sg2881
I0
sg2882
S'incurred'
p5448
sg2884
F0.0
ssS'<subj> inaugurated'
p5449
(dp5450
g1511
S'subj'
p5451
sg1513
I6
sg1514
I3
sg1515
S'inaugurated'
p5452
sg1517
F0.5
ssS'<subj> enter'
p5453
(dp5454
g477
S'subj'
p5455
sg479
I4
sg480
I4
sg481
S'enter'
p5456
sg483
F1.0
ssS'celebrate <dobj>'
p5457
(dp5458
g351
g352
sg353
I5
sg354
I5
sg355
S'celebrate'
p5459
sg357
F1.0
ssS'<subj> have form'
p5460
(dp5461
g1602
I7
sg1603
I7
sg1604
g4602
sg1606
S'have form'
p5462
sg1608
F1.0
ssS'<subj> celebrating'
p5463
(dp5464
g1130
S'subj'
p5465
sg1132
I2
sg1133
I2
sg1134
S'celebrating'
p5466
sg1136
F1.0
ssS'<subj> providing way'
p5467
(dp5468
g342
g3553
sg344
I21
sg345
I21
sg346
S'providing way'
p5469
sg348
F1.0
ssS'<subj> have fish'
p5470
(dp5471
g969
I3
sg970
I3
sg971
g972
sg973
S'have fish'
p5472
sg975
F1.0
ssS'talking <dobj>'
p5473
(dp5474
g1949
S'dobj'
p5475
sg1951
I21
sg1952
I21
sg1953
S'talking'
p5476
sg1955
F1.0
ssS'<subj> produces euphoria'
p5477
(dp5478
g1602
I7
sg1603
I7
sg1604
g4602
sg1606
S'produces euphoria'
p5479
sg1608
F1.0
ssS'<subj> create'
p5480
(dp5481
g2741
I2
sg2742
I2
sg2743
S'subj'
p5482
sg2745
S'create'
p5483
sg2747
F1.0
ssS'<subj> is was'
p5484
(dp5485
g57
I9
sg58
I9
sg59
g1006
sg61
S'is was'
p5486
sg63
F1.0
ssS'<subj> seeing clutter'
p5487
(dp5488
g1081
I7
sg1082
I7
sg1083
g1084
sg1085
S'seeing clutter'
p5489
sg1087
F1.0
ssS'<subj> are celebrated'
p5490
(dp5491
g2976
g2977
sg2978
I1
sg2979
I1
sg2980
S'are celebrated'
p5492
sg2982
F1.0
ssS'<subj> go'
p5493
(dp5494
g2214
S'subj'
p5495
sg2216
I2
sg2217
I2
sg2218
S'go'
p5496
sg2220
F1.0
ssS'say <dobj>'
p5497
(dp5498
g1949
g5475
sg1951
I68
sg1952
I68
sg1953
S'say'
p5499
sg1955
F1.0
ssS'<subj> heed'
p5500
(dp5501
g948
g2389
sg950
I7
sg951
I7
sg952
S'heed'
p5502
sg954
F1.0
ssS'to think <dobj>'
p5503
(dp5504
g2563
g3253
sg2565
I9
sg2566
I9
sg2567
S'to think'
p5505
sg2569
F1.0
ssS'<subj> leads'
p5506
(dp5507
g564
I21
sg565
I22
sg566
g567
sg568
S'leads'
p5508
sg570
F0.9545454545454546
ssS'<subj> state'
p5509
(dp5510
g3035
S'subj'
p5511
sg3037
I23
sg3038
I23
sg3039
S'state'
p5512
sg3041
F1.0
ssS'<subj> please'
p5513
(dp5514
g3897
g3898
sg3899
I6
sg3900
I6
sg3901
S'please'
p5515
sg3903
F1.0
ssS'<subj> uses Europe'
p5516
(dp5517
g1698
I17
sg1699
I17
sg1700
g1701
sg1702
S'uses Europe'
p5518
sg1704
F1.0
ssS'<subj> selling'
p5519
(dp5520
g4150
I16
sg4151
I16
sg4152
g4153
sg4154
S'selling'
p5521
sg4156
F1.0
ssS'to claim <dobj>'
p5522
(dp5523
g106
I21
sg107
I21
sg108
g109
sg110
S'to claim'
p5524
sg112
F1.0
ssS'<subj> claim'
p5525
(dp5526
g106
I28
sg107
I28
sg108
g486
sg110
S'claim'
p5527
sg112
F1.0
ssS'<subj> transforms'
p5528
(dp5529
g4423
S'subj'
p5530
sg4425
I1
sg4426
I1
sg4427
S'transforms'
p5531
sg4429
F1.0
ssS'<subj> began'
p5532
(dp5533
g2235
S'subj'
p5534
sg2237
I3
sg2238
I1
sg2239
S'began'
p5535
sg2241
F0.3333333333333333
ssS'lead by <np>'
p5536
(dp5537
g257
I13
sg258
I13
sg259
g2426
sg261
S'lead by'
p5538
sg263
F1.0
ssS'<subj> makes beach'
p5539
(dp5540
g1901
I1
sg1902
I1
sg1903
g1904
sg1905
S'makes beach'
p5541
sg1907
F1.0
ssS'attend <dobj>'
p5542
(dp5543
g1108
S'dobj'
p5544
sg1110
I2
sg1111
I2
sg1112
S'attend'
p5545
sg1114
F1.0
ssS'<subj> is celebrated'
p5546
(dp5547
g3780
g3781
sg3782
I2
sg3783
I2
sg3784
S'is celebrated'
p5548
sg3786
F1.0
ssS'<subj> do concept'
p5549
(dp5550
g1096
g1097
sg1098
I23
sg1099
I23
sg1100
S'do concept'
p5551
sg1102
F1.0
ssS'made <dobj>'
p5552
(dp5553
g939
I32
sg940
I32
sg941
g2632
sg943
S'made'
p5554
sg945
F1.0
ssS'eliminated <dobj>'
p5555
(dp5556
g106
I21
sg107
I21
sg108
g109
sg110
S'eliminated'
p5557
sg112
F1.0
ssS'<subj> was inaugurated'
p5558
(dp5559
g1511
g5451
sg1513
I2
sg1514
I0
sg1515
S'was inaugurated'
p5560
sg1517
F0.0
ssS'announce <dobj>'
p5561
(dp5562
g3360
g3361
sg3362
I2
sg3363
I2
sg3364
S'announce'
p5563
sg3366
F1.0
ssS'<subj> offers Great'
p5564
(dp5565
g5013
I1
sg5014
I1
sg5015
g5368
sg5017
S'offers Great'
p5566
sg5019
F1.0
ssS'<subj> take'
p5567
(dp5568
g948
g2389
sg950
I13
sg951
I13
sg952
S'take'
p5569
sg954
F1.0
ssS'<subj> sounds'
p5570
(dp5571
g624
g2045
sg626
I22
sg627
I22
sg628
S'sounds'
p5572
sg630
F1.0
ssS'<subj> taken'
p5573
(dp5574
g2466
I1
sg2467
I1
sg2468
g2469
sg2470
S'taken'
p5575
sg2472
F1.0
ssS'visiting <dobj>'
p5576
(dp5577
g3179
S'dobj'
p5578
sg3181
I6
sg3182
I6
sg3183
S'visiting'
p5579
sg3185
F1.0
ssS'<subj> has stuff'
p5580
(dp5581
g1668
g1669
sg1670
I5
sg1671
I5
sg1672
S'has stuff'
p5582
sg1674
F1.0
ssS'<subj> give'
p5583
(dp5584
g5177
I11
sg5178
I11
sg5179
S'subj'
p5585
sg5181
S'give'
p5586
sg5183
F1.0
ssS'listening <dobj>'
p5587
(dp5588
g939
I21
sg940
I21
sg941
g2632
sg943
S'listening'
p5589
sg945
F1.0
ssS'<subj> announce judges'
p5590
(dp5591
g3360
g3756
sg3362
I2
sg3363
I2
sg3364
S'announce judges'
p5592
sg3366
F1.0
ssS'gearing <dobj>'
p5593
(dp5594
g1207
S'dobj'
p5595
sg1209
I1
sg1210
I0
sg1211
S'gearing'
p5596
sg1213
F0.0
ssS'witnessed <dobj>'
p5597
(dp5598
g57
I9
sg58
I9
sg59
g60
sg61
S'witnessed'
p5599
sg63
F1.0
ssS'<subj> gets'
p5600
(dp5601
g2524
S'subj'
p5602
sg2526
I1
sg2527
I1
sg2528
S'gets'
p5603
sg2530
F1.0
ssS'fall <dobj>'
p5604
(dp5605
g856
S'dobj'
p5606
sg858
I1
sg859
I1
sg860
S'fall'
p5607
sg862
F1.0
ssS'deliver <dobj>'
p5608
(dp5609
g4526
I4
sg4527
I4
sg4528
g5140
sg4530
S'deliver'
p5610
sg4532
F1.0
ssS'made fun of <np>'
p5611
(dp5612
g1164
S'np'
p5613
sg1166
I7
sg1167
I7
sg1168
S'made fun of'
p5614
sg1170
F1.0
ssS'maintained <dobj>'
p5615
(dp5616
g1731
I0
sg1732
I4
sg1733
S'dobj'
p5617
sg1735
S'maintained'
p5618
sg1737
F0.0
ssS'<subj> fill festival'
p5619
(dp5620
g30
I2
sg31
I2
sg32
g33
sg34
S'fill festival'
p5621
sg36
F1.0
ssS'<subj> help'
p5622
(dp5623
g731
I7
sg732
I7
sg733
g734
sg735
S'help'
p5624
sg737
F1.0
ssS'to do <dobj>'
p5625
(dp5626
g1059
g4190
sg1061
I49
sg1062
I49
sg1063
S'to do'
p5627
sg1065
F1.0
ssS'<subj> told'
p5628
(dp5629
g221
I19
sg222
I19
sg223
g224
sg225
S'told'
p5630
sg227
F1.0
ssS'<subj> providing'
p5631
(dp5632
g342
g3553
sg344
I21
sg345
I21
sg346
S'providing'
p5633
sg348
F1.0
ssS'did <dobj>'
p5634
(dp5635
g667
I16
sg668
I16
sg669
g2304
sg671
S'did'
p5636
sg673
F1.0
ssV<subj> posted people
p5637
(dp5638
g1289
g1290
sg1291
I2
sg1292
I2
sg1293
Vposted people
p5639
sg1295
F1.0
ssS'converted <dobj>'
p5640
(dp5641
g874
I4
sg875
I9
sg876
S'dobj'
p5642
sg878
S'converted'
p5643
sg880
F0.4444444444444444
ssS'<subj> has ocean'
p5644
(dp5645
g212
g4043
sg214
I7
sg215
I7
sg216
S'has ocean'
p5646
sg218
F1.0
ssS'<subj> takes'
p5647
(dp5648
g1255
I0
sg1256
I2
sg1257
S'subj'
p5649
sg1259
S'takes'
p5650
sg1261
F0.0
ssS'<subj> deserts world'
p5651
(dp5652
g5013
I1
sg5014
I1
sg5015
g5368
sg5017
S'deserts world'
p5653
sg5019
F1.0
ssS'<subj> has property'
p5654
(dp5655
g1914
g2378
sg1916
I4
sg1917
I4
sg1918
S'has property'
p5656
sg1920
F1.0
ssS'<subj> has India'
p5657
(dp5658
g770
g771
sg772
I4
sg773
I4
sg774
S'has India'
p5659
sg776
F1.0
ssS'<subj> leave'
p5660
(dp5661
g1361
g4944
sg1363
I1
sg1364
I1
sg1365
S'leave'
p5662
sg1367
F1.0
ssS'<subj> call heart'
p5663
(dp5664
g4242
I2
sg4243
I2
sg4244
g4245
sg4246
S'call heart'
p5665
sg4248
F1.0
ssS'<subj> standing'
p5666
(dp5667
g2649
I2
sg2650
I2
sg2651
g3404
sg2653
S'standing'
p5668
sg2655
F1.0
ssS'<subj> stand respect'
p5669
(dp5670
g4682
g4683
sg4684
I1
sg4685
I1
sg4686
S'stand respect'
p5671
sg4688
F1.0
ssS'stop <dobj>'
p5672
(dp5673
g939
I21
sg940
I21
sg941
g2632
sg943
S'stop'
p5674
sg945
F1.0
ssS'<subj> fight term'
p5675
(dp5676
g464
g1585
sg466
I7
sg467
I7
sg468
S'fight term'
p5677
sg470
F1.0
ssS'<subj> awaits past'
p5678
(dp5679
g2611
I1
sg2612
I1
sg2613
S'subj'
p5680
sg2615
S'awaits past'
p5681
sg2617
F1.0
ssS'leave <dobj>'
p5682
(dp5683
g1361
g1362
sg1363
I1
sg1364
I1
sg1365
S'leave'
p5684
sg1367
F1.0
ssS'<subj> sending'
p5685
(dp5686
g464
g1585
sg466
I7
sg467
I7
sg468
S'sending'
p5687
sg470
F1.0
ssS'<subj> needed arthritis'
p5688
(dp5689
g5091
g5092
sg5093
I7
sg5094
I7
sg5095
S'needed arthritis'
p5690
sg5097
F1.0
ssS'<subj> done to reduced'
p5691
(dp5692
g969
I3
sg970
I3
sg971
g972
sg973
S'done to reduced'
p5693
sg975
F1.0
ssS'<subj> awaits'
p5694
(dp5695
g2611
I1
sg2612
I1
sg2613
g5680
sg2615
S'awaits'
p5696
sg2617
F1.0
ssS'to added <dobj>'
p5697
(dp5698
g137
I4
sg138
I4
sg139
g3703
sg141
S'to added'
p5699
sg143
F1.0
ssS'put <dobj>'
p5700
(dp5701
g88
g1974
sg90
I42
sg91
I42
sg92
S'put'
p5702
sg94
F1.0
ssS"<subj> 's spending"
p5703
(dp5704
S'subj_freq'
p5705
I1
sS'freq'
p5706
I1
sS'type'
p5707
S'subj'
p5708
sS'display'
p5709
S"'s spending"
p5710
sS'prob'
p5711
F1.0
ssS'<subj> got'
p5712
(dp5713
g57
I9
sg58
I9
sg59
g1006
sg61
S'got'
p5714
sg63
F1.0
ssS'<subj> sees'
p5715
(dp5716
g88
g1139
sg90
I42
sg91
I42
sg92
S'sees'
p5717
sg94
F1.0
ssS'explains <dobj>'
p5718
(dp5719
g88
g1974
sg90
I42
sg91
I42
sg92
S'explains'
p5720
sg94
F1.0
ssS'to conserve <dobj>'
p5721
(dp5722
g1615
g1616
sg1617
I3
sg1618
I3
sg1619
S'to conserve'
p5723
sg1621
F1.0
ssS'<subj> quit years'
p5724
(dp5725
g731
I4
sg732
I4
sg733
g734
sg735
S'quit years'
p5726
sg737
F1.0
ssS'<subj> lies heart'
p5727
(dp5728
S'subj_freq'
p5729
I1
sS'freq'
p5730
I1
sS'type'
p5731
S'subj'
p5732
sS'display'
p5733
S'lies heart'
p5734
sS'prob'
p5735
F1.0
ssS'<subj> moved'
p5736
(dp5737
g1023
I7
sg1024
I7
sg1025
g1117
sg1027
S'moved'
p5738
sg1029
F1.0
ssS'managing <dobj>'
p5739
(dp5740
g2158
S'dobj'
p5741
sg2160
I4
sg2161
I4
sg2162
S'managing'
p5742
sg2164
F1.0
ssS'video of <np>'
p5743
(dp5744
g806
I0
sg807
I2
sg808
S'np'
p5745
sg810
S'video of'
p5746
sg812
F0.0
ssS'unveiled <dobj>'
p5747
(dp5748
g612
I10
sg613
I10
sg614
g2012
sg616
S'unveiled'
p5749
sg618
F1.0
ssS'written <dobj>'
p5750
(dp5751
g3074
g3324
sg3076
I6
sg3077
I6
sg3078
S'written'
p5752
sg3080
F1.0
ssS'<subj> packed'
p5753
(dp5754
g694
g3646
sg696
I2
sg697
I2
sg698
S'packed'
p5755
sg700
F1.0
ssS'please <dobj>'
p5756
(dp5757
g3897
S'dobj'
p5758
sg3899
I6
sg3900
I6
sg3901
S'please'
p5759
sg3903
F1.0
ssS'bothered <dobj>'
p5760
(dp5761
g917
g2750
sg919
I6
sg920
I6
sg921
S'bothered'
p5762
sg923
F1.0
ssS"<subj> 's moment"
p5763
(dp5764
S'subj_freq'
p5765
I3
sS'freq'
p5766
I3
sS'type'
p5767
S'subj'
p5768
sS'display'
p5769
S"'s moment"
p5770
sS'prob'
p5771
F1.0
ssS'conceded <dobj>'
p5772
(dp5773
g119
g529
sg121
I7
sg122
I7
sg123
S'conceded'
p5774
sg125
F1.0
ssS'<subj> are articulated'
p5775
(dp5776
g2563
g2564
sg2565
I9
sg2566
I9
sg2567
S'are articulated'
p5777
sg2569
F1.0
ssS'making <dobj>'
p5778
(dp5779
g1437
S'dobj'
p5780
sg1439
I34
sg1440
I34
sg1441
S'making'
p5781
sg1443
F1.0
ssS'<subj> added'
p5782
(dp5783
g137
I5
sg138
I6
sg139
g140
sg141
S'added'
p5784
sg143
F0.8333333333333334
ssS'<subj> managing'
p5785
(dp5786
g2158
g2159
sg2160
I4
sg2161
I4
sg2162
S'managing'
p5787
sg2164
F1.0
ssS'Day on <np>'
p5788
(dp5789
S'subj_freq'
p5790
I0
sS'freq'
p5791
I4
sS'type'
p5792
S'np'
p5793
sS'display'
p5794
S'Day on'
p5795
sS'prob'
p5796
F0.0
ssS'<subj> given image'
p5797
(dp5798
g3151
I2
sg3152
I2
sg3153
g3602
sg3155
S'given image'
p5799
sg3157
F1.0
ssS'watching <dobj>'
p5800
(dp5801
g106
I29
sg107
I29
sg108
g109
sg110
S'watching'
p5802
sg112
F1.0
ssS'<subj> came'
p5803
(dp5804
g749
g750
sg751
I7
sg752
I7
sg753
S'came'
p5805
sg755
F1.0
ssS'<subj> taking'
p5806
(dp5807
g257
I17
sg258
I17
sg259
g260
sg261
S'taking'
p5808
sg263
F1.0
ssS'need to try <dobj>'
p5809
(dp5810
g3392
I23
sg3393
I23
sg3394
S'dobj'
p5811
sg3396
S'need to try'
p5812
sg3398
F1.0
ssS'<subj> conceded'
p5813
(dp5814
g119
g120
sg121
I7
sg122
I7
sg123
S'conceded'
p5815
sg125
F1.0
ssS'<subj> are used'
p5816
(dp5817
g2139
I0
sg2140
I1
sg2141
g2142
sg2143
S'are used'
p5818
sg2145
F0.0
ssS'<subj> have years'
p5819
(dp5820
g917
g918
sg919
I6
sg920
I6
sg921
S'have years'
p5821
sg923
F1.0
ssS'<subj> involves thrill'
p5822
(dp5823
g1589
I1
sg1590
I1
sg1591
g3859
sg1593
S'involves thrill'
p5824
sg1595
F1.0
ssS'<subj> operate'
p5825
(dp5826
g408
I4
sg409
I4
sg410
g411
sg412
S'operate'
p5827
sg414
F1.0
ssS'quench <dobj>'
p5828
(dp5829
g5264
I1
sg5265
I1
sg5266
S'dobj'
p5830
sg5268
S'quench'
p5831
sg5270
F1.0
ssS'<subj> escape'
p5832
(dp5833
g284
I1
sg285
I1
sg286
S'subj'
p5834
sg288
S'escape'
p5835
sg290
F1.0
ssS'<subj> restored years'
p5836
(dp5837
g2785
g2786
sg2787
I2
sg2788
I2
sg2789
S'restored years'
p5838
sg2791
F1.0
ssS'rate of <np>'
p5839
(dp5840
g3796
I21
sg3797
I21
sg3798
S'np'
p5841
sg3800
S'rate of'
p5842
sg3802
F1.0
ssS'<subj> created capital'
p5843
(dp5844
g511
g512
sg513
I4
sg514
I0
sg515
S'created capital'
p5845
sg517
F0.0
ssS'cost <dobj>'
p5846
(dp5847
g4632
S'dobj'
p5848
sg4634
I1
sg4635
I1
sg4636
S'cost'
p5849
sg4638
F1.0
ssS'<subj> fly'
p5850
(dp5851
g2948
I11
sg2949
I11
sg2950
g2951
sg2952
S'fly'
p5852
sg2954
F1.0
ssS'<subj> was fell'
p5853
(dp5854
g709
g710
sg711
I1
sg712
I1
sg713
S'was fell'
p5855
sg715
F1.0
ssS'<subj> have been misled'
p5856
(dp5857
g1189
g1348
sg1191
I21
sg1192
I21
sg1193
S'have been misled'
p5858
sg1195
F1.0
ssS'portraying characters from <np>'
p5859
(dp5860
g2503
S'np'
p5861
sg2505
I1
sg2506
I0
sg2507
S'portraying characters from'
p5862
sg2509
F0.0
ssS'<subj> want hall'
p5863
(dp5864
S'type'
p5865
S'subj'
p5866
sS'freq'
p5867
I7
sS'subj_freq'
p5868
I7
sS'display'
p5869
S'want hall'
p5870
sS'prob'
p5871
F1.0
ssS'food in <np>'
p5872
(dp5873
S'type'
p5874
S'np'
p5875
sS'freq'
p5876
I2
sS'subj_freq'
p5877
I2
sS'display'
p5878
S'food in'
p5879
sS'prob'
p5880
F1.0
ssS'Fair at <np>'
p5881
(dp5882
g5280
S'np'
p5883
sg5282
I1
sg5283
I1
sg5284
S'Fair at'
p5884
sg5286
F1.0
ssS'<subj> be surprised'
p5885
(dp5886
g3
g4
sg5
I1
sg6
I1
sg7
S'be surprised'
p5887
sg9
F1.0
ssS'learned to play <dobj>'
p5888
(dp5889
g991
g992
sg993
I4
sg994
I4
sg995
S'learned to play'
p5890
sg997
F1.0
ss.